;--------------------------------------------------------
; File Created by SDCC : free open source ANSI-C Compiler
; Version 4.2.0 #13081 (MINGW64)
;--------------------------------------------------------
	.module input
	.optsdcc -mmcs51 --model-large
	
;--------------------------------------------------------
; Public variables in this module
;--------------------------------------------------------
	.globl _putchar
	.globl _getchar
	.globl _memset
	.globl _P5_7
	.globl _P5_6
	.globl _P5_5
	.globl _P5_4
	.globl _P5_3
	.globl _P5_2
	.globl _P5_1
	.globl _P5_0
	.globl _P4_7
	.globl _P4_6
	.globl _P4_5
	.globl _P4_4
	.globl _P4_3
	.globl _P4_2
	.globl _P4_1
	.globl _P4_0
	.globl _PX0L
	.globl _PT0L
	.globl _PX1L
	.globl _PT1L
	.globl _PSL
	.globl _PT2L
	.globl _PPCL
	.globl _EC
	.globl _CCF0
	.globl _CCF1
	.globl _CCF2
	.globl _CCF3
	.globl _CCF4
	.globl _CR
	.globl _CF
	.globl _TF2
	.globl _EXF2
	.globl _RCLK
	.globl _TCLK
	.globl _EXEN2
	.globl _TR2
	.globl _C_T2
	.globl _CP_RL2
	.globl _T2CON_7
	.globl _T2CON_6
	.globl _T2CON_5
	.globl _T2CON_4
	.globl _T2CON_3
	.globl _T2CON_2
	.globl _T2CON_1
	.globl _T2CON_0
	.globl _PT2
	.globl _ET2
	.globl _CY
	.globl _AC
	.globl _F0
	.globl _RS1
	.globl _RS0
	.globl _OV
	.globl _F1
	.globl _P
	.globl _PS
	.globl _PT1
	.globl _PX1
	.globl _PT0
	.globl _PX0
	.globl _RD
	.globl _WR
	.globl _T1
	.globl _T0
	.globl _INT1
	.globl _INT0
	.globl _TXD
	.globl _RXD
	.globl _P3_7
	.globl _P3_6
	.globl _P3_5
	.globl _P3_4
	.globl _P3_3
	.globl _P3_2
	.globl _P3_1
	.globl _P3_0
	.globl _EA
	.globl _ES
	.globl _ET1
	.globl _EX1
	.globl _ET0
	.globl _EX0
	.globl _P2_7
	.globl _P2_6
	.globl _P2_5
	.globl _P2_4
	.globl _P2_3
	.globl _P2_2
	.globl _P2_1
	.globl _P2_0
	.globl _SM0
	.globl _SM1
	.globl _SM2
	.globl _REN
	.globl _TB8
	.globl _RB8
	.globl _TI
	.globl _RI
	.globl _P1_7
	.globl _P1_6
	.globl _P1_5
	.globl _P1_4
	.globl _P1_3
	.globl _P1_2
	.globl _P1_1
	.globl _P1_0
	.globl _TF1
	.globl _TR1
	.globl _TF0
	.globl _TR0
	.globl _IE1
	.globl _IT1
	.globl _IE0
	.globl _IT0
	.globl _P0_7
	.globl _P0_6
	.globl _P0_5
	.globl _P0_4
	.globl _P0_3
	.globl _P0_2
	.globl _P0_1
	.globl _P0_0
	.globl _EECON
	.globl _KBF
	.globl _KBE
	.globl _KBLS
	.globl _BRL
	.globl _BDRCON
	.globl _T2MOD
	.globl _SPDAT
	.globl _SPSTA
	.globl _SPCON
	.globl _SADEN
	.globl _SADDR
	.globl _WDTPRG
	.globl _WDTRST
	.globl _P5
	.globl _P4
	.globl _IPH1
	.globl _IPL1
	.globl _IPH0
	.globl _IPL0
	.globl _IEN1
	.globl _IEN0
	.globl _CMOD
	.globl _CL
	.globl _CH
	.globl _CCON
	.globl _CCAPM4
	.globl _CCAPM3
	.globl _CCAPM2
	.globl _CCAPM1
	.globl _CCAPM0
	.globl _CCAP4L
	.globl _CCAP3L
	.globl _CCAP2L
	.globl _CCAP1L
	.globl _CCAP0L
	.globl _CCAP4H
	.globl _CCAP3H
	.globl _CCAP2H
	.globl _CCAP1H
	.globl _CCAP0H
	.globl _CKCON1
	.globl _CKCON0
	.globl _CKRL
	.globl _AUXR1
	.globl _AUXR
	.globl _TH2
	.globl _TL2
	.globl _RCAP2H
	.globl _RCAP2L
	.globl _T2CON
	.globl _B
	.globl _ACC
	.globl _PSW
	.globl _IP
	.globl _P3
	.globl _IE
	.globl _P2
	.globl _SBUF
	.globl _SCON
	.globl _P1
	.globl _TH1
	.globl _TH0
	.globl _TL1
	.globl _TL0
	.globl _TMOD
	.globl _TCON
	.globl _PCON
	.globl _DPH
	.globl _DPL
	.globl _SP
	.globl _P0
	.globl _character_count
	.globl _string_input_buffer
	.globl _get_input_buffer
	.globl _get_string
	.globl _get_next_input_char
	.globl _get_hex_value
	.globl _get_char_count
	.globl _reset_char_count
;--------------------------------------------------------
; special function registers
;--------------------------------------------------------
	.area RSEG    (ABS,DATA)
	.org 0x0000
_P0	=	0x0080
_SP	=	0x0081
_DPL	=	0x0082
_DPH	=	0x0083
_PCON	=	0x0087
_TCON	=	0x0088
_TMOD	=	0x0089
_TL0	=	0x008a
_TL1	=	0x008b
_TH0	=	0x008c
_TH1	=	0x008d
_P1	=	0x0090
_SCON	=	0x0098
_SBUF	=	0x0099
_P2	=	0x00a0
_IE	=	0x00a8
_P3	=	0x00b0
_IP	=	0x00b8
_PSW	=	0x00d0
_ACC	=	0x00e0
_B	=	0x00f0
_T2CON	=	0x00c8
_RCAP2L	=	0x00ca
_RCAP2H	=	0x00cb
_TL2	=	0x00cc
_TH2	=	0x00cd
_AUXR	=	0x008e
_AUXR1	=	0x00a2
_CKRL	=	0x0097
_CKCON0	=	0x008f
_CKCON1	=	0x00af
_CCAP0H	=	0x00fa
_CCAP1H	=	0x00fb
_CCAP2H	=	0x00fc
_CCAP3H	=	0x00fd
_CCAP4H	=	0x00fe
_CCAP0L	=	0x00ea
_CCAP1L	=	0x00eb
_CCAP2L	=	0x00ec
_CCAP3L	=	0x00ed
_CCAP4L	=	0x00ee
_CCAPM0	=	0x00da
_CCAPM1	=	0x00db
_CCAPM2	=	0x00dc
_CCAPM3	=	0x00dd
_CCAPM4	=	0x00de
_CCON	=	0x00d8
_CH	=	0x00f9
_CL	=	0x00e9
_CMOD	=	0x00d9
_IEN0	=	0x00a8
_IEN1	=	0x00b1
_IPL0	=	0x00b8
_IPH0	=	0x00b7
_IPL1	=	0x00b2
_IPH1	=	0x00b3
_P4	=	0x00c0
_P5	=	0x00e8
_WDTRST	=	0x00a6
_WDTPRG	=	0x00a7
_SADDR	=	0x00a9
_SADEN	=	0x00b9
_SPCON	=	0x00c3
_SPSTA	=	0x00c4
_SPDAT	=	0x00c5
_T2MOD	=	0x00c9
_BDRCON	=	0x009b
_BRL	=	0x009a
_KBLS	=	0x009c
_KBE	=	0x009d
_KBF	=	0x009e
_EECON	=	0x00d2
;--------------------------------------------------------
; special function bits
;--------------------------------------------------------
	.area RSEG    (ABS,DATA)
	.org 0x0000
_P0_0	=	0x0080
_P0_1	=	0x0081
_P0_2	=	0x0082
_P0_3	=	0x0083
_P0_4	=	0x0084
_P0_5	=	0x0085
_P0_6	=	0x0086
_P0_7	=	0x0087
_IT0	=	0x0088
_IE0	=	0x0089
_IT1	=	0x008a
_IE1	=	0x008b
_TR0	=	0x008c
_TF0	=	0x008d
_TR1	=	0x008e
_TF1	=	0x008f
_P1_0	=	0x0090
_P1_1	=	0x0091
_P1_2	=	0x0092
_P1_3	=	0x0093
_P1_4	=	0x0094
_P1_5	=	0x0095
_P1_6	=	0x0096
_P1_7	=	0x0097
_RI	=	0x0098
_TI	=	0x0099
_RB8	=	0x009a
_TB8	=	0x009b
_REN	=	0x009c
_SM2	=	0x009d
_SM1	=	0x009e
_SM0	=	0x009f
_P2_0	=	0x00a0
_P2_1	=	0x00a1
_P2_2	=	0x00a2
_P2_3	=	0x00a3
_P2_4	=	0x00a4
_P2_5	=	0x00a5
_P2_6	=	0x00a6
_P2_7	=	0x00a7
_EX0	=	0x00a8
_ET0	=	0x00a9
_EX1	=	0x00aa
_ET1	=	0x00ab
_ES	=	0x00ac
_EA	=	0x00af
_P3_0	=	0x00b0
_P3_1	=	0x00b1
_P3_2	=	0x00b2
_P3_3	=	0x00b3
_P3_4	=	0x00b4
_P3_5	=	0x00b5
_P3_6	=	0x00b6
_P3_7	=	0x00b7
_RXD	=	0x00b0
_TXD	=	0x00b1
_INT0	=	0x00b2
_INT1	=	0x00b3
_T0	=	0x00b4
_T1	=	0x00b5
_WR	=	0x00b6
_RD	=	0x00b7
_PX0	=	0x00b8
_PT0	=	0x00b9
_PX1	=	0x00ba
_PT1	=	0x00bb
_PS	=	0x00bc
_P	=	0x00d0
_F1	=	0x00d1
_OV	=	0x00d2
_RS0	=	0x00d3
_RS1	=	0x00d4
_F0	=	0x00d5
_AC	=	0x00d6
_CY	=	0x00d7
_ET2	=	0x00ad
_PT2	=	0x00bd
_T2CON_0	=	0x00c8
_T2CON_1	=	0x00c9
_T2CON_2	=	0x00ca
_T2CON_3	=	0x00cb
_T2CON_4	=	0x00cc
_T2CON_5	=	0x00cd
_T2CON_6	=	0x00ce
_T2CON_7	=	0x00cf
_CP_RL2	=	0x00c8
_C_T2	=	0x00c9
_TR2	=	0x00ca
_EXEN2	=	0x00cb
_TCLK	=	0x00cc
_RCLK	=	0x00cd
_EXF2	=	0x00ce
_TF2	=	0x00cf
_CF	=	0x00df
_CR	=	0x00de
_CCF4	=	0x00dc
_CCF3	=	0x00db
_CCF2	=	0x00da
_CCF1	=	0x00d9
_CCF0	=	0x00d8
_EC	=	0x00ae
_PPCL	=	0x00be
_PT2L	=	0x00bd
_PSL	=	0x00bc
_PT1L	=	0x00bb
_PX1L	=	0x00ba
_PT0L	=	0x00b9
_PX0L	=	0x00b8
_P4_0	=	0x00c0
_P4_1	=	0x00c1
_P4_2	=	0x00c2
_P4_3	=	0x00c3
_P4_4	=	0x00c4
_P4_5	=	0x00c5
_P4_6	=	0x00c6
_P4_7	=	0x00c7
_P5_0	=	0x00e8
_P5_1	=	0x00e9
_P5_2	=	0x00ea
_P5_3	=	0x00eb
_P5_4	=	0x00ec
_P5_5	=	0x00ed
_P5_6	=	0x00ee
_P5_7	=	0x00ef
;--------------------------------------------------------
; overlayable register banks
;--------------------------------------------------------
	.area REG_BANK_0	(REL,OVR,DATA)
	.ds 8
;--------------------------------------------------------
; internal ram data
;--------------------------------------------------------
	.area DSEG    (DATA)
;--------------------------------------------------------
; overlayable items in internal ram
;--------------------------------------------------------
;--------------------------------------------------------
; indirectly addressable internal ram data
;--------------------------------------------------------
	.area ISEG    (DATA)
;--------------------------------------------------------
; absolute internal ram data
;--------------------------------------------------------
	.area IABS    (ABS,DATA)
	.area IABS    (ABS,DATA)
;--------------------------------------------------------
; bit data
;--------------------------------------------------------
	.area BSEG    (BIT)
_get_string_sloc0_1_0:
	.ds 1
;--------------------------------------------------------
; paged external ram data
;--------------------------------------------------------
	.area PSEG    (PAG,XDATA)
;--------------------------------------------------------
; external ram data
;--------------------------------------------------------
	.area XSEG    (XDATA)
_string_input_buffer::
	.ds 10
_character_count::
	.ds 2
_get_string_current_buffer_loc_65537_49:
	.ds 3
_get_hex_value_return_value_65536_56:
	.ds 3
_get_hex_value_src_65537_58:
	.ds 3
_get_hex_value_parsed_value_65538_60:
	.ds 2
_get_hex_value_c_65538_60:
	.ds 1
;--------------------------------------------------------
; absolute external ram data
;--------------------------------------------------------
	.area XABS    (ABS,XDATA)
;--------------------------------------------------------
; external initialized ram data
;--------------------------------------------------------
	.area XISEG   (XDATA)
	.area HOME    (CODE)
	.area GSINIT0 (CODE)
	.area GSINIT1 (CODE)
	.area GSINIT2 (CODE)
	.area GSINIT3 (CODE)
	.area GSINIT4 (CODE)
	.area GSINIT5 (CODE)
	.area GSINIT  (CODE)
	.area GSFINAL (CODE)
	.area CSEG    (CODE)
;--------------------------------------------------------
; global & static initialisations
;--------------------------------------------------------
	.area HOME    (CODE)
	.area GSINIT  (CODE)
	.area GSFINAL (CODE)
	.area GSINIT  (CODE)
;--------------------------------------------------------
; Home
;--------------------------------------------------------
	.area HOME    (CODE)
	.area HOME    (CODE)
;--------------------------------------------------------
; code
;--------------------------------------------------------
	.area CSEG    (CODE)
;------------------------------------------------------------
;Allocation info for local variables in function 'get_input_buffer'
;------------------------------------------------------------
;	src/input.c:22: const char *get_input_buffer() {
;	-----------------------------------------
;	 function get_input_buffer
;	-----------------------------------------
_get_input_buffer:
	ar7 = 0x07
	ar6 = 0x06
	ar5 = 0x05
	ar4 = 0x04
	ar3 = 0x03
	ar2 = 0x02
	ar1 = 0x01
	ar0 = 0x00
;	src/input.c:23: return string_input_buffer; 
	mov	dptr,#_string_input_buffer
	mov	b,#0x00
;	src/input.c:24: }
	ret
;------------------------------------------------------------
;Allocation info for local variables in function 'get_string'
;------------------------------------------------------------
;received_char             Allocated with name '_get_string_received_char_65537_49'
;current_buffer_loc        Allocated with name '_get_string_current_buffer_loc_65537_49'
;------------------------------------------------------------
;	src/input.c:26: void get_string()
;	-----------------------------------------
;	 function get_string
;	-----------------------------------------
_get_string:
;	src/input.c:28: memset(string_input_buffer, '\0', BUFFER_SZ);
	mov	dptr,#_memset_PARM_2
	clr	a
	movx	@dptr,a
	mov	dptr,#_memset_PARM_3
	mov	a,#0x0a
	movx	@dptr,a
	clr	a
	inc	dptr
	movx	@dptr,a
	mov	dptr,#_string_input_buffer
	mov	b,#0x00
	lcall	_memset
;	src/input.c:30: char *current_buffer_loc = string_input_buffer;
	mov	dptr,#_get_string_current_buffer_loc_65537_49
	mov	a,#_string_input_buffer
	movx	@dptr,a
	mov	a,#(_string_input_buffer >> 8)
	inc	dptr
	movx	@dptr,a
	clr	a
	inc	dptr
	movx	@dptr,a
;	src/input.c:31: do {
00118$:
;	src/input.c:32: received_char = getchar(); 
	lcall	_getchar
	mov	r6,dpl
;	src/input.c:33: putchar(received_char);
	mov	ar5,r6
	mov	r7,#0x00
	mov	dpl,r5
	mov	dph,r7
	push	ar6
	lcall	_putchar
	pop	ar6
;	src/input.c:39: if (received_char == BACKSPACE)
	clr	a
	cjne	r6,#0x08,00171$
	inc	a
00171$:
	mov	r7,a
	jz	00102$
;	src/input.c:41: putchar(' ');
	mov	dptr,#0x0020
	push	ar7
	push	ar6
	lcall	_putchar
;	src/input.c:42: putchar('\b');
	mov	dptr,#0x0008
	lcall	_putchar
	pop	ar6
	pop	ar7
00102$:
;	src/input.c:45: && received_char != '\n'
	cjne	r6,#0x0d,00174$
	setb	c
	sjmp	00175$
00174$:
	clr	c
00175$:
	mov	_get_string_sloc0_1_0,c
	jc	00109$
;	src/input.c:46: && received_char != '\0'
	cjne	r6,#0x0a,00177$
	sjmp	00109$
00177$:
	mov	a,r6
	jz	00109$
;	src/input.c:48: && received_char != BACKSPACE)
	cjne	r6,#0x7f,00179$
	sjmp	00109$
00179$:
	cjne	r6,#0x08,00180$
	sjmp	00109$
00180$:
;	src/input.c:50: *current_buffer_loc= received_char;
	mov	dptr,#_get_string_current_buffer_loc_65537_49
	movx	a,@dptr
	mov	r3,a
	inc	dptr
	movx	a,@dptr
	mov	r4,a
	inc	dptr
	movx	a,@dptr
	mov	r5,a
	mov	dpl,r3
	mov	dph,r4
	mov	b,r5
	mov	a,r6
	lcall	__gptrput
;	src/input.c:51: current_buffer_loc++;
	mov	dptr,#_get_string_current_buffer_loc_65537_49
	mov	a,#0x01
	add	a,r3
	movx	@dptr,a
	clr	a
	addc	a,r4
	inc	dptr
	movx	@dptr,a
	mov	a,r5
	inc	dptr
	movx	@dptr,a
	sjmp	00119$
00109$:
;	src/input.c:53: else if(received_char == DELETE || received_char == BACKSPACE)
	cjne	r6,#0x7f,00181$
	sjmp	00105$
00181$:
	mov	a,r7
	jz	00119$
00105$:
;	src/input.c:55: if (current_buffer_loc != string_input_buffer)
	mov	dptr,#_get_string_current_buffer_loc_65537_49
	movx	a,@dptr
	mov	r4,a
	inc	dptr
	movx	a,@dptr
	mov	r5,a
	inc	dptr
	movx	a,@dptr
	mov	r7,a
	mov	a,#_string_input_buffer
	push	acc
	mov	a,#(_string_input_buffer >> 8)
	push	acc
	clr	a
	push	acc
	mov	dpl,r4
	mov	dph,r5
	mov	b,r7
	lcall	___gptr_cmp
	dec	sp
	dec	sp
	dec	sp
	jz	00104$
;	src/input.c:57: current_buffer_loc--;
	dec	r4
	cjne	r4,#0xff,00184$
	dec	r5
00184$:
	mov	dptr,#_get_string_current_buffer_loc_65537_49
	mov	a,r4
	movx	@dptr,a
	mov	a,r5
	inc	dptr
	movx	@dptr,a
	mov	a,r7
	inc	dptr
	movx	@dptr,a
00104$:
;	src/input.c:59: *current_buffer_loc = '\0';
	mov	dptr,#_get_string_current_buffer_loc_65537_49
	movx	a,@dptr
	mov	r4,a
	inc	dptr
	movx	a,@dptr
	mov	r5,a
	inc	dptr
	movx	a,@dptr
	mov	r7,a
	mov	dpl,r4
	mov	dph,r5
	mov	b,r7
	clr	a
	lcall	__gptrput
00119$:
;	src/input.c:63: && received_char != '\n' 
	jb	_get_string_sloc0_1_0,00120$
;	src/input.c:64: && received_char != '\0'
	cjne	r6,#0x0a,00186$
	sjmp	00120$
00186$:
	mov	a,r6
	jz	00120$
;	src/input.c:65: && (current_buffer_loc < (string_input_buffer+BUFFER_SZ-1)));
	mov	dptr,#_get_string_current_buffer_loc_65537_49
	movx	a,@dptr
	mov	r5,a
	inc	dptr
	movx	a,@dptr
	mov	r6,a
	inc	dptr
	movx	a,@dptr
	mov	r7,a
	mov	a,#(_string_input_buffer + 0x0009)
	push	acc
	mov	a,#((_string_input_buffer + 0x0009) >> 8)
	push	acc
	clr	a
	push	acc
	mov	dpl,r5
	mov	dph,r6
	mov	b,r7
	lcall	___gptr_cmp
	dec	sp
	dec	sp
	dec	sp
	jnc	00188$
	ljmp	00118$
00188$:
00120$:
;	src/input.c:66: *current_buffer_loc = '\0';
	mov	dptr,#_get_string_current_buffer_loc_65537_49
	movx	a,@dptr
	mov	r5,a
	inc	dptr
	movx	a,@dptr
	mov	r6,a
	inc	dptr
	movx	a,@dptr
	mov	r7,a
	mov	dpl,r5
	mov	dph,r6
	mov	b,r7
	clr	a
;	src/input.c:67: }
	ljmp	__gptrput
;------------------------------------------------------------
;Allocation info for local variables in function 'get_next_input_char'
;------------------------------------------------------------
;c                         Allocated with name '_get_next_input_char_c_65536_55'
;------------------------------------------------------------
;	src/input.c:69: char get_next_input_char()
;	-----------------------------------------
;	 function get_next_input_char
;	-----------------------------------------
_get_next_input_char:
;	src/input.c:71: char c = getchar();
	lcall	_getchar
	mov	r6,dpl
;	src/input.c:72: putchar(c);
	mov	ar5,r6
	mov	r7,#0x00
	mov	dpl,r5
	mov	dph,r7
	push	ar6
	lcall	_putchar
	pop	ar6
;	src/input.c:73: character_count++;
	mov	dptr,#_character_count
	movx	a,@dptr
	add	a,#0x01
	movx	@dptr,a
	inc	dptr
	movx	a,@dptr
	addc	a,#0x00
	movx	@dptr,a
;	src/input.c:74: return c; 
	mov	dpl,r6
;	src/input.c:75: }
	ret
;------------------------------------------------------------
;Allocation info for local variables in function 'get_hex_value'
;------------------------------------------------------------
;return_value              Allocated with name '_get_hex_value_return_value_65536_56'
;src                       Allocated with name '_get_hex_value_src_65537_58'
;parsed_value              Allocated with name '_get_hex_value_parsed_value_65538_60'
;c                         Allocated with name '_get_hex_value_c_65538_60'
;------------------------------------------------------------
;	src/input.c:77: int get_hex_value(int *return_value)
;	-----------------------------------------
;	 function get_hex_value
;	-----------------------------------------
_get_hex_value:
	mov	r7,b
	mov	r6,dph
	mov	a,dpl
	mov	dptr,#_get_hex_value_return_value_65536_56
	movx	@dptr,a
	mov	a,r6
	inc	dptr
	movx	@dptr,a
	mov	a,r7
	inc	dptr
	movx	@dptr,a
;	src/input.c:79: get_string();
	lcall	_get_string
;	src/input.c:80: char *src = string_input_buffer;
	mov	dptr,#_get_hex_value_src_65537_58
	mov	a,#_string_input_buffer
	movx	@dptr,a
	mov	a,#(_string_input_buffer >> 8)
	inc	dptr
	movx	@dptr,a
	clr	a
	inc	dptr
	movx	@dptr,a
;	src/input.c:81: if (*src == '0' && *(src+1) == 'x')
	mov	dptr,#_string_input_buffer
	movx	a,@dptr
	mov	r7,a
	cjne	r7,#0x30,00102$
	mov	dptr,#(_string_input_buffer + 0x0001)
	mov	b,#0x00
	lcall	__gptrget
	mov	r7,a
	cjne	r7,#0x78,00102$
;	src/input.c:83: src += 2;
	mov	dptr,#_get_hex_value_src_65537_58
	mov	a,#0x02
	add	a,#_string_input_buffer
	movx	@dptr,a
	clr	a
	addc	a,#(_string_input_buffer >> 8)
	inc	dptr
	movx	@dptr,a
	clr	a
	inc	dptr
	movx	@dptr,a
00102$:
;	src/input.c:86: int parsed_value = 0;
	mov	dptr,#_get_hex_value_parsed_value_65538_60
	clr	a
	movx	@dptr,a
	inc	dptr
	movx	@dptr,a
;	src/input.c:87: char c = *src;
	mov	dptr,#_get_hex_value_src_65537_58
	movx	a,@dptr
	mov	r5,a
	inc	dptr
	movx	a,@dptr
	mov	r6,a
	inc	dptr
	movx	a,@dptr
	mov	r7,a
	mov	dpl,r5
	mov	dph,r6
	mov	b,r7
	lcall	__gptrget
	mov	r4,a
	mov	dptr,#_get_hex_value_c_65538_60
	movx	@dptr,a
;	src/input.c:88: while (c != '\0')
00116$:
	mov	dptr,#_get_hex_value_c_65538_60
	movx	a,@dptr
	mov	r4,a
	jnz	00165$
	ljmp	00118$
00165$:
;	src/input.c:90: parsed_value <<= 4;
	mov	dptr,#_get_hex_value_parsed_value_65538_60
	movx	a,@dptr
	mov	r2,a
	inc	dptr
	movx	a,@dptr
	swap	a
	anl	a,#0xf0
	xch	a,r2
	swap	a
	xch	a,r2
	xrl	a,r2
	xch	a,r2
	anl	a,#0xf0
	xch	a,r2
	xrl	a,r2
	mov	r3,a
	mov	dptr,#_get_hex_value_parsed_value_65538_60
	mov	a,r2
	movx	@dptr,a
	mov	a,r3
	inc	dptr
	movx	@dptr,a
;	src/input.c:91: if(c >= '0' && c <= '9' )
	cjne	r4,#0x30,00166$
00166$:
	jc	00113$
	mov	a,r4
	add	a,#0xff - 0x39
	jc	00113$
;	src/input.c:93: parsed_value += (int) c - '0';
	mov	r3,#0x00
	mov	a,r4
	add	a,#0xd0
	mov	r4,a
	mov	a,r3
	addc	a,#0xff
	mov	r3,a
	mov	dptr,#_get_hex_value_parsed_value_65538_60
	movx	a,@dptr
	mov	r1,a
	inc	dptr
	movx	a,@dptr
	mov	r2,a
	mov	dptr,#_get_hex_value_parsed_value_65538_60
	mov	a,r4
	add	a,r1
	movx	@dptr,a
	mov	a,r3
	addc	a,r2
	inc	dptr
	movx	@dptr,a
	sjmp	00114$
00113$:
;	src/input.c:94: } else if (c >= 'a' && c <= 'f')
	mov	dptr,#_get_hex_value_c_65538_60
	movx	a,@dptr
	mov	r4,a
	cjne	r4,#0x61,00169$
00169$:
	jc	00109$
	mov	a,r4
	add	a,#0xff - 0x66
	jc	00109$
;	src/input.c:96: parsed_value += c - 'a' + 10;
	mov	r3,#0x00
	mov	a,#0xa9
	add	a,r4
	mov	r4,a
	mov	a,#0xff
	addc	a,r3
	mov	r3,a
	mov	dptr,#_get_hex_value_parsed_value_65538_60
	movx	a,@dptr
	mov	r1,a
	inc	dptr
	movx	a,@dptr
	mov	r2,a
	mov	dptr,#_get_hex_value_parsed_value_65538_60
	mov	a,r4
	add	a,r1
	movx	@dptr,a
	mov	a,r3
	addc	a,r2
	inc	dptr
	movx	@dptr,a
	sjmp	00114$
00109$:
;	src/input.c:97: } else if (c >= 'A' && c <= 'F')
	mov	dptr,#_get_hex_value_c_65538_60
	movx	a,@dptr
	mov	r4,a
	cjne	r4,#0x41,00172$
00172$:
	jc	00105$
	mov	a,r4
	add	a,#0xff - 0x46
	jc	00105$
;	src/input.c:99: parsed_value += c - 'A' + 10;
	mov	r3,#0x00
	mov	a,#0xc9
	add	a,r4
	mov	r4,a
	mov	a,#0xff
	addc	a,r3
	mov	r3,a
	mov	dptr,#_get_hex_value_parsed_value_65538_60
	movx	a,@dptr
	mov	r1,a
	inc	dptr
	movx	a,@dptr
	mov	r2,a
	mov	dptr,#_get_hex_value_parsed_value_65538_60
	mov	a,r4
	add	a,r1
	movx	@dptr,a
	mov	a,r3
	addc	a,r2
	inc	dptr
	movx	@dptr,a
	sjmp	00114$
00105$:
;	src/input.c:101: return -1; //error in parsing
	mov	dptr,#0xffff
	ret
00114$:
;	src/input.c:103: src++;
	inc	r5
	cjne	r5,#0x00,00175$
	inc	r6
00175$:
;	src/input.c:104: c = *src;
	mov	dpl,r5
	mov	dph,r6
	mov	b,r7
	lcall	__gptrget
	mov	r4,a
	mov	dptr,#_get_hex_value_c_65538_60
	movx	@dptr,a
	ljmp	00116$
00118$:
;	src/input.c:107: *return_value = parsed_value;
	mov	dptr,#_get_hex_value_return_value_65536_56
	movx	a,@dptr
	mov	r5,a
	inc	dptr
	movx	a,@dptr
	mov	r6,a
	inc	dptr
	movx	a,@dptr
	mov	r7,a
	mov	dptr,#_get_hex_value_parsed_value_65538_60
	movx	a,@dptr
	mov	r3,a
	inc	dptr
	movx	a,@dptr
	mov	r4,a
	mov	dpl,r5
	mov	dph,r6
	mov	b,r7
	mov	a,r3
	lcall	__gptrput
	inc	dptr
	mov	a,r4
	lcall	__gptrput
;	src/input.c:108: return 0; 
	mov	dptr,#0x0000
;	src/input.c:109: }
	ret
;------------------------------------------------------------
;Allocation info for local variables in function 'get_char_count'
;------------------------------------------------------------
;	src/input.c:111: size_t get_char_count()
;	-----------------------------------------
;	 function get_char_count
;	-----------------------------------------
_get_char_count:
;	src/input.c:113: return character_count;
	mov	dptr,#_character_count
	movx	a,@dptr
	mov	r6,a
	inc	dptr
	movx	a,@dptr
;	src/input.c:114: }
	mov	dpl,r6
	mov	dph,a
	ret
;------------------------------------------------------------
;Allocation info for local variables in function 'reset_char_count'
;------------------------------------------------------------
;	src/input.c:116: void reset_char_count()
;	-----------------------------------------
;	 function reset_char_count
;	-----------------------------------------
_reset_char_count:
;	src/input.c:118: character_count = 0; 
	mov	dptr,#_character_count
	clr	a
	movx	@dptr,a
	inc	dptr
	movx	@dptr,a
;	src/input.c:119: }
	ret
	.area CSEG    (CODE)
	.area CONST   (CODE)
	.area XINIT   (CODE)
	.area CABS    (ABS,CODE)
