ASxxxx Linker V03.00 + NoICE + sdld,  page 1.
Hexadecimal  [32-Bits]

Area                                    Addr        Size        Decimal Bytes (Attributes)
--------------------------------        ----        ----        ------- ----- ------------
CABS                                00000000    00000000 =           0. bytes (ABS,CON,CODE)

      Value  Global                              Global Defined In Module
      -----  --------------------------------   ------------------------
C:   00000000  l_CABS                          
C:   00000000  l_GSINIT                        
C:   00000000  l_GSINIT1                       
C:   00000000  l_GSINIT5                       
C:   00000000  l_IABS                          
C:   00000000  l_ISEG                          
C:   00000000  l_PSEG                          
C:   00000000  l_REG_BANK_1                    
C:   00000000  l_REG_BANK_2                    
C:   00000000  l_REG_BANK_3                    
C:   00000000  l_RSEG                          
C:   00000000  l_RSEG0                         
C:   00000000  l_RSEG1                         
C:   00000000  l_XABS                          
C:   00000000  l_XINIT                         
C:   00000000  l_XISEG                         
C:   00000000  l__CODE                         
C:   00000000  s_BSEG                          
C:   00000000  s_CABS                          
C:   00000000  s_DSEG                          
C:   00000000  s_IABS                          
C:   00000000  s_ISEG                          
C:   00000000  s_REG_BANK_0                    
C:   00000000  s_RSEG                          
C:   00000000  s_RSEG0                         
C:   00000000  s_RSEG1                         
C:   00000000  s_XABS                          
C:   00000001  l_BIT_BANK                      
C:   00000001  l_BSEG_BYTES                    
C:   00000001  s_PSEG                          
C:   00000001  s_XSEG                          
C:   00000002  l_BSEG                          
C:   00000003  l_GSFINAL                       
C:   00000003  l_GSINIT0                       
C:   00000003  l_OSEG                          
C:   00000008  l_REG_BANK_0                    
C:   00000008  s_REG_BANK_1                    
C:   0000000A  l_GSINIT2                       
C:   00000010  s_REG_BANK_2                    
C:   00000018  s_REG_BANK_3                    
C:   0000001B  s_OSEG                          
C:   00000020  s_BSEG_BYTES                    
C:   00000020  s__CODE                         
C:   00000021  s_BIT_BANK                      
C:   00000022  l_GSINIT3                       
C:   00000022  s_SSEG                          
C:   0000002A  l_GSINIT4                       
C:   0000003F  l_HOME                          
C:   0000007E  l_DSEG                          
C:   000000DB  l_CONST                         
ASxxxx Linker V03.00 + NoICE + sdld,  page 2.
Hexadecimal  [32-Bits]

Area                                    Addr        Size        Decimal Bytes (Attributes)
--------------------------------        ----        ----        ------- ----- ------------
CABS                                00000000    00000000 =           0. bytes (ABS,CON,CODE)

      Value  Global                              Global Defined In Module
      -----  --------------------------------   ------------------------
C:   000000DE  l_SSEG                          
C:   00000100  l_IRAM                          
C:   00001A5B  l_CSEG                          
C:   00002000  s_HOME                          
C:   0000203F  s_GSINIT0                       
C:   00002042  s_GSINIT1                       
C:   00002042  s_GSINIT2                       
C:   0000204C  s_GSINIT3                       
C:   0000206E  s_GSINIT4                       
C:   00002098  s_GSFINAL                       
C:   00002098  s_GSINIT                        
C:   00002098  s_GSINIT5                       
C:   0000209B  s_CSEG                          
C:   000020B3  l_XSEG                          
C:   000020B4  s_XISEG                         
C:   00003AF6  s_CONST                         
C:   00003BD1  s_XINIT                         

ASxxxx Linker V03.00 + NoICE + sdld,  page 3.
Hexadecimal  [32-Bits]

Area                                    Addr        Size        Decimal Bytes (Attributes)
--------------------------------        ----        ----        ------- ----- ------------
.  .ABS.                            00000000    00000000 =           0. bytes (ABS,CON)

      Value  Global                              Global Defined In Module
      -----  --------------------------------   ------------------------
     00000000  .__.ABS.                           _bp
     00000080  _P0                                lcd
     00000080  _P0_0                              lcd
     00000081  _P0_1                              lcd
     00000081  _SP                                lcd
     00000082  _DPL                               lcd
     00000082  _P0_2                              lcd
     00000083  _DPH                               lcd
     00000083  _P0_3                              lcd
     00000084  _P0_4                              lcd
     00000085  _P0_5                              lcd
     00000086  _P0_6                              lcd
     00000087  _P0_7                              lcd
     00000087  _PCON                              lcd
     00000088  _IT0                               lcd
     00000088  _TCON                              lcd
     00000089  _IE0                               lcd
     00000089  _TMOD                              lcd
     0000008A  _IT1                               lcd
     0000008A  _TL0                               lcd
     0000008B  _IE1                               lcd
     0000008B  _TL1                               lcd
     0000008C  _TH0                               lcd
     0000008C  _TR0                               lcd
     0000008D  _TF0                               lcd
     0000008D  _TH1                               lcd
     0000008E  _AUXR                              lcd
     0000008E  _TR1                               lcd
     0000008F  _CKCON0                            lcd
     0000008F  _TF1                               lcd
     00000090  _P1                                lcd
     00000090  _P1_0                              lcd
     00000091  _P1_1                              lcd
     00000092  _P1_2                              lcd
     00000093  _P1_3                              lcd
     00000094  _P1_4                              lcd
     00000095  _P1_5                              lcd
     00000096  _P1_6                              lcd
     00000097  _CKRL                              lcd
     00000097  _P1_7                              lcd
     00000098  _RI                                lcd
     00000098  _SCON                              lcd
     00000099  _SBUF                              lcd
     00000099  _TI                                lcd
     0000009A  _BRL                               lcd
     0000009A  _RB8                               lcd
     0000009B  _BDRCON                            lcd
     0000009B  _TB8                               lcd
     0000009C  _KBLS                              lcd
     0000009C  _REN                               lcd
ASxxxx Linker V03.00 + NoICE + sdld,  page 4.
Hexadecimal  [32-Bits]

Area                                    Addr        Size        Decimal Bytes (Attributes)
--------------------------------        ----        ----        ------- ----- ------------
.  .ABS.                            00000000    00000000 =           0. bytes (ABS,CON)

      Value  Global                              Global Defined In Module
      -----  --------------------------------   ------------------------
     0000009D  _KBE                               lcd
     0000009D  _SM2                               lcd
     0000009E  _KBF                               lcd
     0000009E  _SM1                               lcd
     0000009F  _SM0                               lcd
     000000A0  _P2                                lcd
     000000A0  _P2_0                              lcd
     000000A0  __XPAGE                            
     000000A1  _P2_1                              lcd
     000000A2  _AUXR1                             lcd
     000000A2  _P2_2                              lcd
     000000A3  _P2_3                              lcd
     000000A4  _P2_4                              lcd
     000000A5  _P2_5                              lcd
     000000A6  _P2_6                              lcd
     000000A6  _WDTRST                            lcd
     000000A7  _P2_7                              lcd
     000000A7  _WDTPRG                            lcd
     000000A8  _EX0                               lcd
     000000A8  _IE                                lcd
     000000A8  _IEN0                              lcd
     000000A9  _ET0                               lcd
     000000A9  _SADDR                             lcd
     000000AA  _EX1                               lcd
     000000AB  _ET1                               lcd
     000000AC  _ES                                lcd
     000000AD  _ET2                               lcd
     000000AE  _EC                                lcd
     000000AF  _CKCON1                            lcd
     000000AF  _EA                                lcd
     000000B0  _P3                                lcd
     000000B0  _P3_0                              lcd
     000000B0  _RXD                               lcd
     000000B1  _IEN1                              lcd
     000000B1  _P3_1                              lcd
     000000B1  _TXD                               lcd
     000000B2  _INT0                              lcd
     000000B2  _IPL1                              lcd
     000000B2  _P3_2                              lcd
     000000B3  _INT1                              lcd
     000000B3  _IPH1                              lcd
     000000B3  _P3_3                              lcd
     000000B4  _P3_4                              lcd
     000000B4  _T0                                lcd
     000000B5  _P3_5                              lcd
     000000B5  _T1                                lcd
     000000B6  _P3_6                              lcd
     000000B6  _WR                                lcd
     000000B7  _IPH0                              lcd
     000000B7  _P3_7                              lcd
     000000B7  _RD                                lcd
ASxxxx Linker V03.00 + NoICE + sdld,  page 5.
Hexadecimal  [32-Bits]

Area                                    Addr        Size        Decimal Bytes (Attributes)
--------------------------------        ----        ----        ------- ----- ------------
.  .ABS.                            00000000    00000000 =           0. bytes (ABS,CON)

      Value  Global                              Global Defined In Module
      -----  --------------------------------   ------------------------
     000000B8  _IP                                lcd
     000000B8  _IPL0                              lcd
     000000B8  _PX0                               lcd
     000000B8  _PX0L                              lcd
     000000B9  _PT0                               lcd
     000000B9  _PT0L                              lcd
     000000B9  _SADEN                             lcd
     000000BA  _PX1                               lcd
     000000BA  _PX1L                              lcd
     000000BB  _PT1                               lcd
     000000BB  _PT1L                              lcd
     000000BC  _PS                                lcd
     000000BC  _PSL                               lcd
     000000BD  _PT2                               lcd
     000000BD  _PT2L                              lcd
     000000BE  _PPCL                              lcd
     000000C0  _P4                                lcd
     000000C0  _P4_0                              lcd
     000000C1  _P4_1                              lcd
     000000C2  _P4_2                              lcd
     000000C3  _P4_3                              lcd
     000000C3  _SPCON                             lcd
     000000C4  _P4_4                              lcd
     000000C4  _SPSTA                             lcd
     000000C5  _P4_5                              lcd
     000000C5  _SPDAT                             lcd
     000000C6  _P4_6                              lcd
     000000C7  _P4_7                              lcd
     000000C8  _CP_RL2                            lcd
     000000C8  _T2CON                             lcd
     000000C8  _T2CON_0                           lcd
     000000C9  _C_T2                              lcd
     000000C9  _T2CON_1                           lcd
     000000C9  _T2MOD                             lcd
     000000CA  _RCAP2L                            lcd
     000000CA  _T2CON_2                           lcd
     000000CA  _TR2                               lcd
     000000CB  _EXEN2                             lcd
     000000CB  _RCAP2H                            lcd
     000000CB  _T2CON_3                           lcd
     000000CC  _T2CON_4                           lcd
     000000CC  _TCLK                              lcd
     000000CC  _TL2                               lcd
     000000CD  _RCLK                              lcd
     000000CD  _T2CON_5                           lcd
     000000CD  _TH2                               lcd
     000000CE  _EXF2                              lcd
     000000CE  _T2CON_6                           lcd
     000000CF  _T2CON_7                           lcd
     000000CF  _TF2                               lcd
     000000D0  _P                                 lcd
ASxxxx Linker V03.00 + NoICE + sdld,  page 6.
Hexadecimal  [32-Bits]

Area                                    Addr        Size        Decimal Bytes (Attributes)
--------------------------------        ----        ----        ------- ----- ------------
.  .ABS.                            00000000    00000000 =           0. bytes (ABS,CON)

      Value  Global                              Global Defined In Module
      -----  --------------------------------   ------------------------
     000000D0  _PSW                               lcd
     000000D1  _F1                                lcd
     000000D2  _EECON                             lcd
     000000D2  _OV                                lcd
     000000D3  _RS0                               lcd
     000000D4  _RS1                               lcd
     000000D5  _F0                                lcd
     000000D6  _AC                                lcd
     000000D7  _CY                                lcd
     000000D8  _CCF0                              lcd
     000000D8  _CCON                              lcd
     000000D9  _CCF1                              lcd
     000000D9  _CMOD                              lcd
     000000DA  _CCAPM0                            lcd
     000000DA  _CCF2                              lcd
     000000DB  _CCAPM1                            lcd
     000000DB  _CCF3                              lcd
     000000DC  _CCAPM2                            lcd
     000000DC  _CCF4                              lcd
     000000DD  _CCAPM3                            lcd
     000000DE  _CCAPM4                            lcd
     000000DE  _CR                                lcd
     000000DF  _CF                                lcd
     000000E0  _ACC                               lcd
     000000E8  _P5                                lcd
     000000E8  _P5_0                              lcd
     000000E9  _CL                                lcd
     000000E9  _P5_1                              lcd
     000000EA  _CCAP0L                            lcd
     000000EA  _P5_2                              lcd
     000000EB  _CCAP1L                            lcd
     000000EB  _P5_3                              lcd
     000000EC  _CCAP2L                            lcd
     000000EC  _P5_4                              lcd
     000000ED  _CCAP3L                            lcd
     000000ED  _P5_5                              lcd
     000000EE  _CCAP4L                            lcd
     000000EE  _P5_6                              lcd
     000000EF  _P5_7                              lcd
     000000F0  _B                                 lcd
     000000F5  _B_5                               _gptrget
     000000F6  _B_6                               _gptrget
     000000F7  _B_7                               _gptrget
     000000F9  _CH                                lcd
     000000FA  _CCAP0H                            lcd
     000000FB  _CCAP1H                            lcd
     000000FC  _CCAP2H                            lcd
     000000FD  _CCAP3H                            lcd
     000000FE  _CCAP4H                            lcd
ASxxxx Linker V03.00 + NoICE + sdld,  page 7.
Hexadecimal  [32-Bits]

Area                                    Addr        Size        Decimal Bytes (Attributes)
--------------------------------        ----        ----        ------- ----- ------------
BSEG_BYTES                          00000020    00000001 =           1. bytes (REL,CON)

      Value  Global                              Global Defined In Module
      -----  --------------------------------   ------------------------
ASxxxx Linker V03.00 + NoICE + sdld,  page 8.
Hexadecimal  [32-Bits]

Area                                    Addr        Size        Decimal Bytes (Attributes)
--------------------------------        ----        ----        ------- ----- ------------
REG_BANK_0                          00000000    00000008 =           8. bytes (REL,OVR)

      Value  Global                              Global Defined In Module
      -----  --------------------------------   ------------------------
ASxxxx Linker V03.00 + NoICE + sdld,  page 9.
Hexadecimal  [32-Bits]

Area                                    Addr        Size        Decimal Bytes (Attributes)
--------------------------------        ----        ----        ------- ----- ------------
BIT_BANK                            00000021    00000001 =           1. bytes (REL,OVR)

      Value  Global                              Global Defined In Module
      -----  --------------------------------   ------------------------
ASxxxx Linker V03.00 + NoICE + sdld,  page 10.
Hexadecimal  [32-Bits]

Area                                    Addr        Size        Decimal Bytes (Attributes)
--------------------------------        ----        ----        ------- ----- ------------
DSEG                                00000000    0000007E =         126. bytes (REL,CON)

      Value  Global                              Global Defined In Module
      -----  --------------------------------   ------------------------
     0000001A  _bp                                _bp

ASxxxx Linker V03.00 + NoICE + sdld,  page 11.
Hexadecimal  [32-Bits]

Area                                    Addr        Size        Decimal Bytes (Attributes)
--------------------------------        ----        ----        ------- ----- ------------
OSEG                                0000001B    00000003 =           3. bytes (REL,OVR)

      Value  Global                              Global Defined In Module
      -----  --------------------------------   ------------------------
ASxxxx Linker V03.00 + NoICE + sdld,  page 12.
Hexadecimal  [32-Bits]

Area                                    Addr        Size        Decimal Bytes (Attributes)
--------------------------------        ----        ----        ------- ----- ------------
SSEG                                00000022    000000DE =         222. bytes (REL,OVR)

      Value  Global                              Global Defined In Module
      -----  --------------------------------   ------------------------
     00000022  __start__stack                     main

ASxxxx Linker V03.00 + NoICE + sdld,  page 13.
Hexadecimal  [32-Bits]

Area                                    Addr        Size        Decimal Bytes (Attributes)
--------------------------------        ----        ----        ------- ----- ------------
XSEG                                00000001    000020B3 =        8371. bytes (REL,CON,XDATA)

      Value  Global                              Global Defined In Module
      -----  --------------------------------   ------------------------
D:   00000003  ___sdcc_heap                       _heap
D:   00002003  _string_input_buffer               input
D:   0000200D  _character_count                   input
D:   0000201B  _append_to_buffer_list_PARM_2      linked_list
D:   00002024  _remove_from_buffer_list_PARM_2    linked_list
D:   0000203D  _ll_get_elem_PARM_2                linked_list
D:   00002045  _dataout_PARM_2                    debug
D:   00002048  _clock_fields                      lcd
D:   00002050  _minutes_tens                      lcd
D:   00002051  _minutes_ones                      lcd
D:   00002052  _seconds_tens                      lcd
D:   00002053  _seconds_ones                      lcd
D:   00002054  _seconds_tenths                    lcd
D:   00002055  _current_overflow_count            lcd
D:   00002056  _clock_paused                      lcd
D:   00002060  _lcdgotoxy_PARM_2                  lcd
D:   0000206F  _memset_PARM_2                     _memset
D:   00002070  _memset_PARM_3                     _memset
D:   00002072  __gptrput_PARM_2                   _gptrput
D:   00002073  _vprintf_PARM_2                    vprintf
D:   00002088  __print_format_PARM_2              printf_large
D:   0000208B  __print_format_PARM_3              printf_large
D:   0000208E  __print_format_PARM_4              printf_large
D:   000020AA  __mulint_PARM_2                    _mulint
D:   000020AC  ___sdcc_heap_free                  malloc

ASxxxx Linker V03.00 + NoICE + sdld,  page 14.
Hexadecimal  [32-Bits]

Area                                    Addr        Size        Decimal Bytes (Attributes)
--------------------------------        ----        ----        ------- ----- ------------
HOME                                00002000    0000003F =          63. bytes (REL,CON,CODE)

      Value  Global                              Global Defined In Module
      -----  --------------------------------   ------------------------
C:   0000200E  __sdcc_program_startup             main
C:   00002011  ___gptr_cmp                        

ASxxxx Linker V03.00 + NoICE + sdld,  page 15.
Hexadecimal  [32-Bits]

Area                                    Addr        Size        Decimal Bytes (Attributes)
--------------------------------        ----        ----        ------- ----- ------------
GSINIT0                             0000203F    00000003 =           3. bytes (REL,CON,CODE)

      Value  Global                              Global Defined In Module
      -----  --------------------------------   ------------------------
C:   0000203F  __sdcc_gsinit_startup              

ASxxxx Linker V03.00 + NoICE + sdld,  page 16.
Hexadecimal  [32-Bits]

Area                                    Addr        Size        Decimal Bytes (Attributes)
--------------------------------        ----        ----        ------- ----- ------------
GSINIT2                             00002042    0000000A =          10. bytes (REL,CON,CODE)

      Value  Global                              Global Defined In Module
      -----  --------------------------------   ------------------------
ASxxxx Linker V03.00 + NoICE + sdld,  page 17.
Hexadecimal  [32-Bits]

Area                                    Addr        Size        Decimal Bytes (Attributes)
--------------------------------        ----        ----        ------- ----- ------------
GSINIT3                             0000204C    00000022 =          34. bytes (REL,CON,CODE)

      Value  Global                              Global Defined In Module
      -----  --------------------------------   ------------------------
C:   0000204C  __mcs51_genXINIT                   

ASxxxx Linker V03.00 + NoICE + sdld,  page 18.
Hexadecimal  [32-Bits]

Area                                    Addr        Size        Decimal Bytes (Attributes)
--------------------------------        ----        ----        ------- ----- ------------
GSINIT4                             0000206E    0000002A =          42. bytes (REL,CON,CODE)

      Value  Global                              Global Defined In Module
      -----  --------------------------------   ------------------------
C:   0000206E  __mcs51_genRAMCLEAR                
C:   00002074  __mcs51_genXRAMCLEAR               

ASxxxx Linker V03.00 + NoICE + sdld,  page 19.
Hexadecimal  [32-Bits]

Area                                    Addr        Size        Decimal Bytes (Attributes)
--------------------------------        ----        ----        ------- ----- ------------
GSFINAL                             00002098    00000003 =           3. bytes (REL,CON,CODE)

      Value  Global                              Global Defined In Module
      -----  --------------------------------   ------------------------
ASxxxx Linker V03.00 + NoICE + sdld,  page 20.
Hexadecimal  [32-Bits]

Area                                    Addr        Size        Decimal Bytes (Attributes)
--------------------------------        ----        ----        ------- ----- ------------
CSEG                                0000209B    00001A5B =        6747. bytes (REL,CON,CODE)

      Value  Global                              Global Defined In Module
      -----  --------------------------------   ------------------------
C:   0000209B  __sdcc_external_startup            main
C:   0000209F  _timer0_ISR                        main
C:   000020F9  _main                              main
C:   00002207  _putchar                           my_serial
C:   00002226  _getchar                           my_serial
C:   00002234  _get_input_buffer                  input
C:   0000223B  _get_string                        input
C:   0000236F  _get_next_input_char               input
C:   00002392  _get_hex_value                     input
C:   000024DF  _get_char_count                    input
C:   000024EB  _reset_char_count                  input
C:   000024F3  _append_to_buffer_list             linked_list
C:   000025D9  _remove_from_buffer_list           linked_list
C:   0000278B  _free_all_elems_from_list          linked_list
C:   000028AC  _ll_length                         linked_list
C:   00002937  _ll_get_elem                       linked_list
C:   000029D3  _dataout                           debug
C:   000029F0  _reload_counter                    lcd
C:   000029F7  _init_timer                        lcd
C:   00002A07  _lcdbusywait                       lcd
C:   00002A1F  _lcdinit                           lcd
C:   00002B19  _lcdgotoaddr                       lcd
C:   00002B36  _lcdgotoxy                         lcd
C:   00002B4D  _lcdputch                          lcd
C:   00002B68  _lcdputstr                         lcd
C:   00002BBE  _lcdclear                          lcd
C:   00002BCF  _clock_init_and_start              lcd
C:   00002C24  _increment_clock_values            lcd
C:   00002C89  _output_clock                      lcd
C:   00002CCA  _increment_clock                   lcd
C:   00002CD0  _reset_clock                       lcd
C:   00002CF4  _pause_clock                       lcd
C:   00002CFB  _unpause_clock                     lcd
C:   00002D01  _free                              free
C:   00002E58  _memset                            _memset
C:   00002E80  __gptrput                          _gptrput
C:   00002EAA  _vprintf                           vprintf
C:   00002EE9  _printf                            vprintf
C:   00002FEF  __print_format                     printf_large
C:   000038FD  _strlen                            _strlen
C:   00003915  __mulint                           _mulint
C:   00003935  ___sdcc_heap_init                  malloc
C:   00003971  _malloc                            malloc
C:   00003ADA  __gptrget                          _gptrget

ASxxxx Linker V03.00 + NoICE + sdld,  page 21.
Hexadecimal  [32-Bits]

Area                                    Addr        Size        Decimal Bytes (Attributes)
--------------------------------        ----        ----        ------- ----- ------------
CONST                               00003AF6    000000DB =         219. bytes (REL,CON,CODE)

      Value  Global                              Global Defined In Module
      -----  --------------------------------   ------------------------
C:   00003BB2  ___sdcc_heap_size                  _heap

ASxxxx Linker V03.00 + NoICE + sdld,  page 22.

Files Linked                              [ module(s) ]

bin/main.rel                              [  ]
bin/my_serial.rel                         [  ]
bin/_heap.rel                             [  ]
bin/input.rel                             [  ]
bin/linked_list.rel                       [  ]
bin/debug.rel                             [  ]
bin/lcd.rel                               [  ]


Libraries Linked                          [ object file ]

C:\Program Files\SDCC\bin\..\lib\large/libsdcc.lib
                                          [ free.rel ]
C:\Program Files\SDCC\bin\..\lib\large/mcs51.lib
                                          [ crtclear.rel ]
C:\Program Files\SDCC\bin\..\lib\large/libsdcc.lib
                                          [ _memset.rel ]
C:\Program Files\SDCC\bin\..\lib\large/mcs51.lib
                                          [ crtxinit.rel ]
C:\Program Files\SDCC\bin\..\lib\large/libsdcc.lib
                                          [ _gptrput.rel ]
C:\Program Files\SDCC\bin\..\lib\large/mcs51.lib
                                          [ crtxclear.rel ]
C:\Program Files\SDCC\bin\..\lib\large/libsdcc.lib
                                          [ vprintf.rel ]
C:\Program Files\SDCC\bin\..\lib\large/libsdcc.lib
                                          [ printf_large.rel ]
C:\Program Files\SDCC\bin\..\lib\large/mcs51.lib
                                          [ crtpagesfr.rel ]
C:\Program Files\SDCC\bin\..\lib\large/libsdcc.lib
                                          [ _strlen.rel ]
C:\Program Files\SDCC\bin\..\lib\large/libint.lib
                                          [ _mulint.rel ]
C:\Program Files\SDCC\bin\..\lib\large/libsdcc.lib
                                          [ malloc.rel ]
C:\Program Files\SDCC\bin\..\lib\large/mcs51.lib
                                          [ gptr_cmp.rel ]
C:\Program Files\SDCC\bin\..\lib\large/mcs51.lib
                                          [ crtstart.rel ]
C:\Program Files\SDCC\bin\..\lib\large/libsdcc.lib
                                          [ _gptrget.rel ]
C:\Program Files\SDCC\bin\..\lib\large/libsdcc.lib
                                          [ _bp.rel ]

ASxxxx Linker V03.00 + NoICE + sdld,  page 23.

User Base Address Definitions

HOME = 0x2000
XSEG = 0x0001
PSEG = 0x0001
ISEG = 0x0000
BSEG = 0x0000

