                                      1 ;--------------------------------------------------------
                                      2 ; File Created by SDCC : free open source ANSI-C Compiler
                                      3 ; Version 4.2.0 #13081 (MINGW64)
                                      4 ;--------------------------------------------------------
                                      5 	.module main
                                      6 	.optsdcc -mmcs51 --model-large
                                      7 	
                                      8 ;--------------------------------------------------------
                                      9 ; Public variables in this module
                                     10 ;--------------------------------------------------------
                                     11 	.globl _main
                                     12 	.globl _ampersand_command_handler
                                     13 	.globl _star_command_handler
                                     14 	.globl _minus_command_handler
                                     15 	.globl _plus_command_handler
                                     16 	.globl _hashtag_command_handler
                                     17 	.globl _dollar_sign_command_handler
                                     18 	.globl _percent_command_handler
                                     19 	.globl _enter_command_handler
                                     20 	.globl _qmark_command_handler
                                     21 	.globl _heap_report
                                     22 	.globl _command_header
                                     23 	.globl _print_dashed_line
                                     24 	.globl _store_in_buffer
                                     25 	.globl _initialize_buffers
                                     26 	.globl _is_number
                                     27 	.globl _alloc_new_buffer
                                     28 	.globl _initialize_default_elements
                                     29 	.globl _is_alphabet_char
                                     30 	.globl __sdcc_external_startup
                                     31 	.globl _ll_get_elem
                                     32 	.globl _ll_length
                                     33 	.globl _free_all_elems_from_list
                                     34 	.globl _remove_from_buffer_list
                                     35 	.globl _append_to_buffer_list
                                     36 	.globl ___memcpy
                                     37 	.globl _strlen
                                     38 	.globl _memset
                                     39 	.globl _reset_char_count
                                     40 	.globl _get_char_count
                                     41 	.globl _get_next_input_char
                                     42 	.globl _get_input_buffer
                                     43 	.globl _get_string
                                     44 	.globl _free
                                     45 	.globl _malloc
                                     46 	.globl _atoi
                                     47 	.globl _printf
                                     48 	.globl _CY
                                     49 	.globl _AC
                                     50 	.globl _F0
                                     51 	.globl _RS1
                                     52 	.globl _RS0
                                     53 	.globl _OV
                                     54 	.globl _F1
                                     55 	.globl _P
                                     56 	.globl _PS
                                     57 	.globl _PT1
                                     58 	.globl _PX1
                                     59 	.globl _PT0
                                     60 	.globl _PX0
                                     61 	.globl _RD
                                     62 	.globl _WR
                                     63 	.globl _T1
                                     64 	.globl _T0
                                     65 	.globl _INT1
                                     66 	.globl _INT0
                                     67 	.globl _TXD
                                     68 	.globl _RXD
                                     69 	.globl _P3_7
                                     70 	.globl _P3_6
                                     71 	.globl _P3_5
                                     72 	.globl _P3_4
                                     73 	.globl _P3_3
                                     74 	.globl _P3_2
                                     75 	.globl _P3_1
                                     76 	.globl _P3_0
                                     77 	.globl _EA
                                     78 	.globl _ES
                                     79 	.globl _ET1
                                     80 	.globl _EX1
                                     81 	.globl _ET0
                                     82 	.globl _EX0
                                     83 	.globl _P2_7
                                     84 	.globl _P2_6
                                     85 	.globl _P2_5
                                     86 	.globl _P2_4
                                     87 	.globl _P2_3
                                     88 	.globl _P2_2
                                     89 	.globl _P2_1
                                     90 	.globl _P2_0
                                     91 	.globl _SM0
                                     92 	.globl _SM1
                                     93 	.globl _SM2
                                     94 	.globl _REN
                                     95 	.globl _TB8
                                     96 	.globl _RB8
                                     97 	.globl _TI
                                     98 	.globl _RI
                                     99 	.globl _P1_7
                                    100 	.globl _P1_6
                                    101 	.globl _P1_5
                                    102 	.globl _P1_4
                                    103 	.globl _P1_3
                                    104 	.globl _P1_2
                                    105 	.globl _P1_1
                                    106 	.globl _P1_0
                                    107 	.globl _TF1
                                    108 	.globl _TR1
                                    109 	.globl _TF0
                                    110 	.globl _TR0
                                    111 	.globl _IE1
                                    112 	.globl _IT1
                                    113 	.globl _IE0
                                    114 	.globl _IT0
                                    115 	.globl _P0_7
                                    116 	.globl _P0_6
                                    117 	.globl _P0_5
                                    118 	.globl _P0_4
                                    119 	.globl _P0_3
                                    120 	.globl _P0_2
                                    121 	.globl _P0_1
                                    122 	.globl _P0_0
                                    123 	.globl _P5_7
                                    124 	.globl _P5_6
                                    125 	.globl _P5_5
                                    126 	.globl _P5_4
                                    127 	.globl _P5_3
                                    128 	.globl _P5_2
                                    129 	.globl _P5_1
                                    130 	.globl _P5_0
                                    131 	.globl _P4_7
                                    132 	.globl _P4_6
                                    133 	.globl _P4_5
                                    134 	.globl _P4_4
                                    135 	.globl _P4_3
                                    136 	.globl _P4_2
                                    137 	.globl _P4_1
                                    138 	.globl _P4_0
                                    139 	.globl _PX0L
                                    140 	.globl _PT0L
                                    141 	.globl _PX1L
                                    142 	.globl _PT1L
                                    143 	.globl _PSL
                                    144 	.globl _PT2L
                                    145 	.globl _PPCL
                                    146 	.globl _EC
                                    147 	.globl _CCF0
                                    148 	.globl _CCF1
                                    149 	.globl _CCF2
                                    150 	.globl _CCF3
                                    151 	.globl _CCF4
                                    152 	.globl _CR
                                    153 	.globl _CF
                                    154 	.globl _TF2
                                    155 	.globl _EXF2
                                    156 	.globl _RCLK
                                    157 	.globl _TCLK
                                    158 	.globl _EXEN2
                                    159 	.globl _TR2
                                    160 	.globl _C_T2
                                    161 	.globl _CP_RL2
                                    162 	.globl _T2CON_7
                                    163 	.globl _T2CON_6
                                    164 	.globl _T2CON_5
                                    165 	.globl _T2CON_4
                                    166 	.globl _T2CON_3
                                    167 	.globl _T2CON_2
                                    168 	.globl _T2CON_1
                                    169 	.globl _T2CON_0
                                    170 	.globl _PT2
                                    171 	.globl _ET2
                                    172 	.globl _B
                                    173 	.globl _ACC
                                    174 	.globl _PSW
                                    175 	.globl _IP
                                    176 	.globl _P3
                                    177 	.globl _IE
                                    178 	.globl _P2
                                    179 	.globl _SBUF
                                    180 	.globl _SCON
                                    181 	.globl _P1
                                    182 	.globl _TH1
                                    183 	.globl _TH0
                                    184 	.globl _TL1
                                    185 	.globl _TL0
                                    186 	.globl _TMOD
                                    187 	.globl _TCON
                                    188 	.globl _PCON
                                    189 	.globl _DPH
                                    190 	.globl _DPL
                                    191 	.globl _SP
                                    192 	.globl _P0
                                    193 	.globl _EECON
                                    194 	.globl _KBF
                                    195 	.globl _KBE
                                    196 	.globl _KBLS
                                    197 	.globl _BRL
                                    198 	.globl _BDRCON
                                    199 	.globl _T2MOD
                                    200 	.globl _SPDAT
                                    201 	.globl _SPSTA
                                    202 	.globl _SPCON
                                    203 	.globl _SADEN
                                    204 	.globl _SADDR
                                    205 	.globl _WDTPRG
                                    206 	.globl _WDTRST
                                    207 	.globl _P5
                                    208 	.globl _P4
                                    209 	.globl _IPH1
                                    210 	.globl _IPL1
                                    211 	.globl _IPH0
                                    212 	.globl _IPL0
                                    213 	.globl _IEN1
                                    214 	.globl _IEN0
                                    215 	.globl _CMOD
                                    216 	.globl _CL
                                    217 	.globl _CH
                                    218 	.globl _CCON
                                    219 	.globl _CCAPM4
                                    220 	.globl _CCAPM3
                                    221 	.globl _CCAPM2
                                    222 	.globl _CCAPM1
                                    223 	.globl _CCAPM0
                                    224 	.globl _CCAP4L
                                    225 	.globl _CCAP3L
                                    226 	.globl _CCAP2L
                                    227 	.globl _CCAP1L
                                    228 	.globl _CCAP0L
                                    229 	.globl _CCAP4H
                                    230 	.globl _CCAP3H
                                    231 	.globl _CCAP2H
                                    232 	.globl _CCAP1H
                                    233 	.globl _CCAP0H
                                    234 	.globl _CKCON1
                                    235 	.globl _CKCON0
                                    236 	.globl _CKRL
                                    237 	.globl _AUXR1
                                    238 	.globl _AUXR
                                    239 	.globl _TH2
                                    240 	.globl _TL2
                                    241 	.globl _RCAP2H
                                    242 	.globl _RCAP2L
                                    243 	.globl _T2CON
                                    244 	.globl _dynamic_buffers_list
                                    245 	.globl _store_in_buffer_PARM_2
                                    246 	.globl _static_buffers
                                    247 	.globl _get_user_buffer_sz
                                    248 	.globl _free_all_buffers
                                    249 ;--------------------------------------------------------
                                    250 ; special function registers
                                    251 ;--------------------------------------------------------
                                    252 	.area RSEG    (ABS,DATA)
      000000                        253 	.org 0x0000
                           0000C8   254 _T2CON	=	0x00c8
                           0000CA   255 _RCAP2L	=	0x00ca
                           0000CB   256 _RCAP2H	=	0x00cb
                           0000CC   257 _TL2	=	0x00cc
                           0000CD   258 _TH2	=	0x00cd
                           00008E   259 _AUXR	=	0x008e
                           0000A2   260 _AUXR1	=	0x00a2
                           000097   261 _CKRL	=	0x0097
                           00008F   262 _CKCON0	=	0x008f
                           0000AF   263 _CKCON1	=	0x00af
                           0000FA   264 _CCAP0H	=	0x00fa
                           0000FB   265 _CCAP1H	=	0x00fb
                           0000FC   266 _CCAP2H	=	0x00fc
                           0000FD   267 _CCAP3H	=	0x00fd
                           0000FE   268 _CCAP4H	=	0x00fe
                           0000EA   269 _CCAP0L	=	0x00ea
                           0000EB   270 _CCAP1L	=	0x00eb
                           0000EC   271 _CCAP2L	=	0x00ec
                           0000ED   272 _CCAP3L	=	0x00ed
                           0000EE   273 _CCAP4L	=	0x00ee
                           0000DA   274 _CCAPM0	=	0x00da
                           0000DB   275 _CCAPM1	=	0x00db
                           0000DC   276 _CCAPM2	=	0x00dc
                           0000DD   277 _CCAPM3	=	0x00dd
                           0000DE   278 _CCAPM4	=	0x00de
                           0000D8   279 _CCON	=	0x00d8
                           0000F9   280 _CH	=	0x00f9
                           0000E9   281 _CL	=	0x00e9
                           0000D9   282 _CMOD	=	0x00d9
                           0000A8   283 _IEN0	=	0x00a8
                           0000B1   284 _IEN1	=	0x00b1
                           0000B8   285 _IPL0	=	0x00b8
                           0000B7   286 _IPH0	=	0x00b7
                           0000B2   287 _IPL1	=	0x00b2
                           0000B3   288 _IPH1	=	0x00b3
                           0000C0   289 _P4	=	0x00c0
                           0000E8   290 _P5	=	0x00e8
                           0000A6   291 _WDTRST	=	0x00a6
                           0000A7   292 _WDTPRG	=	0x00a7
                           0000A9   293 _SADDR	=	0x00a9
                           0000B9   294 _SADEN	=	0x00b9
                           0000C3   295 _SPCON	=	0x00c3
                           0000C4   296 _SPSTA	=	0x00c4
                           0000C5   297 _SPDAT	=	0x00c5
                           0000C9   298 _T2MOD	=	0x00c9
                           00009B   299 _BDRCON	=	0x009b
                           00009A   300 _BRL	=	0x009a
                           00009C   301 _KBLS	=	0x009c
                           00009D   302 _KBE	=	0x009d
                           00009E   303 _KBF	=	0x009e
                           0000D2   304 _EECON	=	0x00d2
                           000080   305 _P0	=	0x0080
                           000081   306 _SP	=	0x0081
                           000082   307 _DPL	=	0x0082
                           000083   308 _DPH	=	0x0083
                           000087   309 _PCON	=	0x0087
                           000088   310 _TCON	=	0x0088
                           000089   311 _TMOD	=	0x0089
                           00008A   312 _TL0	=	0x008a
                           00008B   313 _TL1	=	0x008b
                           00008C   314 _TH0	=	0x008c
                           00008D   315 _TH1	=	0x008d
                           000090   316 _P1	=	0x0090
                           000098   317 _SCON	=	0x0098
                           000099   318 _SBUF	=	0x0099
                           0000A0   319 _P2	=	0x00a0
                           0000A8   320 _IE	=	0x00a8
                           0000B0   321 _P3	=	0x00b0
                           0000B8   322 _IP	=	0x00b8
                           0000D0   323 _PSW	=	0x00d0
                           0000E0   324 _ACC	=	0x00e0
                           0000F0   325 _B	=	0x00f0
                                    326 ;--------------------------------------------------------
                                    327 ; special function bits
                                    328 ;--------------------------------------------------------
                                    329 	.area RSEG    (ABS,DATA)
      000000                        330 	.org 0x0000
                           0000AD   331 _ET2	=	0x00ad
                           0000BD   332 _PT2	=	0x00bd
                           0000C8   333 _T2CON_0	=	0x00c8
                           0000C9   334 _T2CON_1	=	0x00c9
                           0000CA   335 _T2CON_2	=	0x00ca
                           0000CB   336 _T2CON_3	=	0x00cb
                           0000CC   337 _T2CON_4	=	0x00cc
                           0000CD   338 _T2CON_5	=	0x00cd
                           0000CE   339 _T2CON_6	=	0x00ce
                           0000CF   340 _T2CON_7	=	0x00cf
                           0000C8   341 _CP_RL2	=	0x00c8
                           0000C9   342 _C_T2	=	0x00c9
                           0000CA   343 _TR2	=	0x00ca
                           0000CB   344 _EXEN2	=	0x00cb
                           0000CC   345 _TCLK	=	0x00cc
                           0000CD   346 _RCLK	=	0x00cd
                           0000CE   347 _EXF2	=	0x00ce
                           0000CF   348 _TF2	=	0x00cf
                           0000DF   349 _CF	=	0x00df
                           0000DE   350 _CR	=	0x00de
                           0000DC   351 _CCF4	=	0x00dc
                           0000DB   352 _CCF3	=	0x00db
                           0000DA   353 _CCF2	=	0x00da
                           0000D9   354 _CCF1	=	0x00d9
                           0000D8   355 _CCF0	=	0x00d8
                           0000AE   356 _EC	=	0x00ae
                           0000BE   357 _PPCL	=	0x00be
                           0000BD   358 _PT2L	=	0x00bd
                           0000BC   359 _PSL	=	0x00bc
                           0000BB   360 _PT1L	=	0x00bb
                           0000BA   361 _PX1L	=	0x00ba
                           0000B9   362 _PT0L	=	0x00b9
                           0000B8   363 _PX0L	=	0x00b8
                           0000C0   364 _P4_0	=	0x00c0
                           0000C1   365 _P4_1	=	0x00c1
                           0000C2   366 _P4_2	=	0x00c2
                           0000C3   367 _P4_3	=	0x00c3
                           0000C4   368 _P4_4	=	0x00c4
                           0000C5   369 _P4_5	=	0x00c5
                           0000C6   370 _P4_6	=	0x00c6
                           0000C7   371 _P4_7	=	0x00c7
                           0000E8   372 _P5_0	=	0x00e8
                           0000E9   373 _P5_1	=	0x00e9
                           0000EA   374 _P5_2	=	0x00ea
                           0000EB   375 _P5_3	=	0x00eb
                           0000EC   376 _P5_4	=	0x00ec
                           0000ED   377 _P5_5	=	0x00ed
                           0000EE   378 _P5_6	=	0x00ee
                           0000EF   379 _P5_7	=	0x00ef
                           000080   380 _P0_0	=	0x0080
                           000081   381 _P0_1	=	0x0081
                           000082   382 _P0_2	=	0x0082
                           000083   383 _P0_3	=	0x0083
                           000084   384 _P0_4	=	0x0084
                           000085   385 _P0_5	=	0x0085
                           000086   386 _P0_6	=	0x0086
                           000087   387 _P0_7	=	0x0087
                           000088   388 _IT0	=	0x0088
                           000089   389 _IE0	=	0x0089
                           00008A   390 _IT1	=	0x008a
                           00008B   391 _IE1	=	0x008b
                           00008C   392 _TR0	=	0x008c
                           00008D   393 _TF0	=	0x008d
                           00008E   394 _TR1	=	0x008e
                           00008F   395 _TF1	=	0x008f
                           000090   396 _P1_0	=	0x0090
                           000091   397 _P1_1	=	0x0091
                           000092   398 _P1_2	=	0x0092
                           000093   399 _P1_3	=	0x0093
                           000094   400 _P1_4	=	0x0094
                           000095   401 _P1_5	=	0x0095
                           000096   402 _P1_6	=	0x0096
                           000097   403 _P1_7	=	0x0097
                           000098   404 _RI	=	0x0098
                           000099   405 _TI	=	0x0099
                           00009A   406 _RB8	=	0x009a
                           00009B   407 _TB8	=	0x009b
                           00009C   408 _REN	=	0x009c
                           00009D   409 _SM2	=	0x009d
                           00009E   410 _SM1	=	0x009e
                           00009F   411 _SM0	=	0x009f
                           0000A0   412 _P2_0	=	0x00a0
                           0000A1   413 _P2_1	=	0x00a1
                           0000A2   414 _P2_2	=	0x00a2
                           0000A3   415 _P2_3	=	0x00a3
                           0000A4   416 _P2_4	=	0x00a4
                           0000A5   417 _P2_5	=	0x00a5
                           0000A6   418 _P2_6	=	0x00a6
                           0000A7   419 _P2_7	=	0x00a7
                           0000A8   420 _EX0	=	0x00a8
                           0000A9   421 _ET0	=	0x00a9
                           0000AA   422 _EX1	=	0x00aa
                           0000AB   423 _ET1	=	0x00ab
                           0000AC   424 _ES	=	0x00ac
                           0000AF   425 _EA	=	0x00af
                           0000B0   426 _P3_0	=	0x00b0
                           0000B1   427 _P3_1	=	0x00b1
                           0000B2   428 _P3_2	=	0x00b2
                           0000B3   429 _P3_3	=	0x00b3
                           0000B4   430 _P3_4	=	0x00b4
                           0000B5   431 _P3_5	=	0x00b5
                           0000B6   432 _P3_6	=	0x00b6
                           0000B7   433 _P3_7	=	0x00b7
                           0000B0   434 _RXD	=	0x00b0
                           0000B1   435 _TXD	=	0x00b1
                           0000B2   436 _INT0	=	0x00b2
                           0000B3   437 _INT1	=	0x00b3
                           0000B4   438 _T0	=	0x00b4
                           0000B5   439 _T1	=	0x00b5
                           0000B6   440 _WR	=	0x00b6
                           0000B7   441 _RD	=	0x00b7
                           0000B8   442 _PX0	=	0x00b8
                           0000B9   443 _PT0	=	0x00b9
                           0000BA   444 _PX1	=	0x00ba
                           0000BB   445 _PT1	=	0x00bb
                           0000BC   446 _PS	=	0x00bc
                           0000D0   447 _P	=	0x00d0
                           0000D1   448 _F1	=	0x00d1
                           0000D2   449 _OV	=	0x00d2
                           0000D3   450 _RS0	=	0x00d3
                           0000D4   451 _RS1	=	0x00d4
                           0000D5   452 _F0	=	0x00d5
                           0000D6   453 _AC	=	0x00d6
                           0000D7   454 _CY	=	0x00d7
                                    455 ;--------------------------------------------------------
                                    456 ; overlayable register banks
                                    457 ;--------------------------------------------------------
                                    458 	.area REG_BANK_0	(REL,OVR,DATA)
      000000                        459 	.ds 8
                                    460 ;--------------------------------------------------------
                                    461 ; internal ram data
                                    462 ;--------------------------------------------------------
                                    463 	.area DSEG    (DATA)
      000000                        464 _initialize_buffers_sloc0_1_0:
      000000                        465 	.ds 2
      000002                        466 _initialize_buffers_sloc1_1_0:
      000002                        467 	.ds 2
      000004                        468 _initialize_buffers_sloc2_1_0:
      000004                        469 	.ds 2
      000006                        470 _initialize_buffers_sloc3_1_0:
      000006                        471 	.ds 3
      000009                        472 _initialize_buffers_sloc4_1_0:
      000009                        473 	.ds 3
      00000C                        474 _initialize_buffers_sloc5_1_0:
      00000C                        475 	.ds 3
      00000F                        476 _store_in_buffer_sloc0_1_0:
      00000F                        477 	.ds 2
      000011                        478 _store_in_buffer_sloc1_1_0:
      000011                        479 	.ds 3
      000014                        480 _heap_report_sloc0_1_0:
      000014                        481 	.ds 2
      000016                        482 _heap_report_sloc1_1_0:
      000016                        483 	.ds 2
      000018                        484 _heap_report_sloc2_1_0:
      000018                        485 	.ds 2
      00001A                        486 _heap_report_sloc3_1_0:
      00001A                        487 	.ds 2
      00001C                        488 _heap_report_sloc4_1_0:
      00001C                        489 	.ds 3
      00001F                        490 _heap_report_sloc5_1_0:
      00001F                        491 	.ds 3
      000022                        492 _qmark_command_handler_sloc0_1_0:
      000022                        493 	.ds 2
      000024                        494 _qmark_command_handler_sloc1_1_0:
      000024                        495 	.ds 3
      000027                        496 _enter_command_handler_sloc0_1_0:
      000027                        497 	.ds 3
      00002A                        498 _enter_command_handler_sloc1_1_0:
      00002A                        499 	.ds 2
      00002C                        500 _enter_command_handler_sloc2_1_0:
      00002C                        501 	.ds 2
      00002E                        502 _enter_command_handler_sloc3_1_0:
      00002E                        503 	.ds 2
      000030                        504 _percent_command_handler_sloc0_1_0:
      000030                        505 	.ds 3
      000033                        506 _dollar_sign_command_handler_sloc0_1_0:
      000033                        507 	.ds 2
      000035                        508 _hashtag_command_handler_c_196609_174:
      000035                        509 	.ds 1
      000036                        510 _ampersand_command_handler_sloc0_1_0:
      000036                        511 	.ds 3
      000039                        512 _ampersand_command_handler_sloc1_1_0:
      000039                        513 	.ds 2
      00003B                        514 _ampersand_command_handler_sloc2_1_0:
      00003B                        515 	.ds 3
                                    516 ;--------------------------------------------------------
                                    517 ; overlayable items in internal ram
                                    518 ;--------------------------------------------------------
                                    519 ;--------------------------------------------------------
                                    520 ; Stack segment in internal ram
                                    521 ;--------------------------------------------------------
                                    522 	.area	SSEG
      000000                        523 __start__stack:
      000000                        524 	.ds	1
                                    525 
                                    526 ;--------------------------------------------------------
                                    527 ; indirectly addressable internal ram data
                                    528 ;--------------------------------------------------------
                                    529 	.area ISEG    (DATA)
                                    530 ;--------------------------------------------------------
                                    531 ; absolute internal ram data
                                    532 ;--------------------------------------------------------
                                    533 	.area IABS    (ABS,DATA)
                                    534 	.area IABS    (ABS,DATA)
                                    535 ;--------------------------------------------------------
                                    536 ; bit data
                                    537 ;--------------------------------------------------------
                                    538 	.area BSEG    (BIT)
      000000                        539 _is_alphabet_char_sloc0_1_0:
      000000                        540 	.ds 1
      000001                        541 _is_number_sloc0_1_0:
      000001                        542 	.ds 1
                                    543 ;--------------------------------------------------------
                                    544 ; paged external ram data
                                    545 ;--------------------------------------------------------
                                    546 	.area PSEG    (PAG,XDATA)
                                    547 ;--------------------------------------------------------
                                    548 ; external ram data
                                    549 ;--------------------------------------------------------
                                    550 	.area XSEG    (XDATA)
      000000                        551 _static_buffers::
      000000                        552 	.ds 22
      000016                        553 _is_alphabet_char_c_65536_82:
      000016                        554 	.ds 1
      000017                        555 _initialize_default_elements_buffer_65536_84:
      000017                        556 	.ds 3
      00001A                        557 _alloc_new_buffer_size_65536_86:
      00001A                        558 	.ds 2
      00001C                        559 _is_number_c_65536_90:
      00001C                        560 	.ds 1
      00001D                        561 _initialize_buffers_max_user_input_65538_98:
      00001D                        562 	.ds 2
      00001F                        563 _initialize_buffers_total_heap_sz_65539_114:
      00001F                        564 	.ds 2
      000021                        565 _initialize_buffers_curr_65540_118:
      000021                        566 	.ds 3
      000024                        567 _store_in_buffer_PARM_2:
      000024                        568 	.ds 1
      000025                        569 _store_in_buffer_buffer_65536_121:
      000025                        570 	.ds 3
      000028                        571 _command_header_command_string_65536_126:
      000028                        572 	.ds 3
      00002B                        573 _heap_report_total_heap_sz_65537_129:
      00002B                        574 	.ds 2
      00002D                        575 _heap_report_curr_65538_133:
      00002D                        576 	.ds 3
      000030                        577 _get_user_buffer_sz_maximum_sz_65536_136:
      000030                        578 	.ds 2
      000032                        579 _qmark_command_handler_curr_output_char_65538_149:
      000032                        580 	.ds 2
      000034                        581 _qmark_command_handler_curr_char_196610_151:
      000034                        582 	.ds 1
      000035                        583 _percent_command_handler_curr_65537_165:
      000035                        584 	.ds 3
                                    585 ;--------------------------------------------------------
                                    586 ; absolute external ram data
                                    587 ;--------------------------------------------------------
                                    588 	.area XABS    (ABS,XDATA)
                                    589 ;--------------------------------------------------------
                                    590 ; external initialized ram data
                                    591 ;--------------------------------------------------------
                                    592 	.area XISEG   (XDATA)
      000000                        593 _dynamic_buffers_list::
      000000                        594 	.ds 3
                                    595 	.area HOME    (CODE)
                                    596 	.area GSINIT0 (CODE)
                                    597 	.area GSINIT1 (CODE)
                                    598 	.area GSINIT2 (CODE)
                                    599 	.area GSINIT3 (CODE)
                                    600 	.area GSINIT4 (CODE)
                                    601 	.area GSINIT5 (CODE)
                                    602 	.area GSINIT  (CODE)
                                    603 	.area GSFINAL (CODE)
                                    604 	.area CSEG    (CODE)
                                    605 ;--------------------------------------------------------
                                    606 ; interrupt vector
                                    607 ;--------------------------------------------------------
                                    608 	.area HOME    (CODE)
      000000                        609 __interrupt_vect:
      000000 02r00r00         [24]  610 	ljmp	__sdcc_gsinit_startup
                                    611 ;--------------------------------------------------------
                                    612 ; global & static initialisations
                                    613 ;--------------------------------------------------------
                                    614 	.area HOME    (CODE)
                                    615 	.area GSINIT  (CODE)
                                    616 	.area GSFINAL (CODE)
                                    617 	.area GSINIT  (CODE)
                                    618 	.globl __sdcc_gsinit_startup
                                    619 	.globl __sdcc_program_startup
                                    620 	.globl __start__stack
                                    621 	.globl __mcs51_genXINIT
                                    622 	.globl __mcs51_genXRAMCLEAR
                                    623 	.globl __mcs51_genRAMCLEAR
                                    624 	.area GSFINAL (CODE)
      000000 02r00r03         [24]  625 	ljmp	__sdcc_program_startup
                                    626 ;--------------------------------------------------------
                                    627 ; Home
                                    628 ;--------------------------------------------------------
                                    629 	.area HOME    (CODE)
                                    630 	.area HOME    (CODE)
      000003                        631 __sdcc_program_startup:
      000003 02r18r14         [24]  632 	ljmp	_main
                                    633 ;	return from main will return to caller
                                    634 ;--------------------------------------------------------
                                    635 ; code
                                    636 ;--------------------------------------------------------
                                    637 	.area CSEG    (CODE)
                                    638 ;------------------------------------------------------------
                                    639 ;Allocation info for local variables in function '_sdcc_external_startup'
                                    640 ;------------------------------------------------------------
                                    641 ;	src/main.c:54: int _sdcc_external_startup()
                                    642 ;	-----------------------------------------
                                    643 ;	 function _sdcc_external_startup
                                    644 ;	-----------------------------------------
      000000                        645 __sdcc_external_startup:
                           000007   646 	ar7 = 0x07
                           000006   647 	ar6 = 0x06
                           000005   648 	ar5 = 0x05
                           000004   649 	ar4 = 0x04
                           000003   650 	ar3 = 0x03
                           000002   651 	ar2 = 0x02
                           000001   652 	ar1 = 0x01
                           000000   653 	ar0 = 0x00
                                    654 ;	src/main.c:57: return 0;
      000000 90 00 00         [24]  655 	mov	dptr,#0x0000
                                    656 ;	src/main.c:58: }
      000003 22               [24]  657 	ret
                                    658 ;------------------------------------------------------------
                                    659 ;Allocation info for local variables in function 'is_alphabet_char'
                                    660 ;------------------------------------------------------------
                                    661 ;c                         Allocated with name '_is_alphabet_char_c_65536_82'
                                    662 ;------------------------------------------------------------
                                    663 ;	src/main.c:88: bool is_alphabet_char(char c)
                                    664 ;	-----------------------------------------
                                    665 ;	 function is_alphabet_char
                                    666 ;	-----------------------------------------
      000004                        667 _is_alphabet_char:
      000004 E5 82            [12]  668 	mov	a,dpl
      000006 90r00r16         [24]  669 	mov	dptr,#_is_alphabet_char_c_65536_82
      000009 F0               [24]  670 	movx	@dptr,a
                                    671 ;	src/main.c:90: return (c <= 'Z' && c >= 'A')
      00000A E0               [24]  672 	movx	a,@dptr
      00000B FF               [12]  673 	mov  r7,a
      00000C 24 A5            [12]  674 	add	a,#0xff - 0x5a
      00000E 92*00            [24]  675 	mov	_is_alphabet_char_sloc0_1_0,c
      000010 40 07            [24]  676 	jc	00108$
      000012 BF 41 00         [24]  677 	cjne	r7,#0x41,00121$
      000015                        678 00121$:
      000015 92*00            [24]  679 	mov	_is_alphabet_char_sloc0_1_0,c
      000017 50 16            [24]  680 	jnc	00104$
      000019                        681 00108$:
                                    682 ;	src/main.c:91: || (c <= 'z' && c >= 'a');
      000019 90r00r16         [24]  683 	mov	dptr,#_is_alphabet_char_c_65536_82
      00001C E0               [24]  684 	movx	a,@dptr
      00001D FF               [12]  685 	mov  r7,a
      00001E 24 85            [12]  686 	add	a,#0xff - 0x7a
      000020 92*00            [24]  687 	mov	_is_alphabet_char_sloc0_1_0,c
      000022 40 07            [24]  688 	jc	00103$
      000024 BF 61 00         [24]  689 	cjne	r7,#0x61,00124$
      000027                        690 00124$:
      000027 92*00            [24]  691 	mov	_is_alphabet_char_sloc0_1_0,c
      000029 50 04            [24]  692 	jnc	00104$
      00002B                        693 00103$:
                                    694 ;	assignBit
      00002B C2*00            [12]  695 	clr	_is_alphabet_char_sloc0_1_0
      00002D 80 02            [24]  696 	sjmp	00105$
      00002F                        697 00104$:
                                    698 ;	assignBit
      00002F D2*00            [12]  699 	setb	_is_alphabet_char_sloc0_1_0
      000031                        700 00105$:
      000031 A2*00            [12]  701 	mov	c,_is_alphabet_char_sloc0_1_0
      000033 E4               [12]  702 	clr	a
      000034 33               [12]  703 	rlc	a
      000035 F5 82            [12]  704 	mov	dpl,a
                                    705 ;	src/main.c:92: }
      000037 22               [24]  706 	ret
                                    707 ;------------------------------------------------------------
                                    708 ;Allocation info for local variables in function 'initialize_default_elements'
                                    709 ;------------------------------------------------------------
                                    710 ;buffer                    Allocated with name '_initialize_default_elements_buffer_65536_84'
                                    711 ;------------------------------------------------------------
                                    712 ;	src/main.c:94: void initialize_default_elements(buffer_t *buffer)
                                    713 ;	-----------------------------------------
                                    714 ;	 function initialize_default_elements
                                    715 ;	-----------------------------------------
      000038                        716 _initialize_default_elements:
      000038 AF F0            [24]  717 	mov	r7,b
      00003A AE 83            [24]  718 	mov	r6,dph
      00003C E5 82            [12]  719 	mov	a,dpl
      00003E 90r00r17         [24]  720 	mov	dptr,#_initialize_default_elements_buffer_65536_84
      000041 F0               [24]  721 	movx	@dptr,a
      000042 EE               [12]  722 	mov	a,r6
      000043 A3               [24]  723 	inc	dptr
      000044 F0               [24]  724 	movx	@dptr,a
      000045 EF               [12]  725 	mov	a,r7
      000046 A3               [24]  726 	inc	dptr
      000047 F0               [24]  727 	movx	@dptr,a
                                    728 ;	src/main.c:96: buffer->alphabet_chars = 0;
      000048 90r00r17         [24]  729 	mov	dptr,#_initialize_default_elements_buffer_65536_84
      00004B E0               [24]  730 	movx	a,@dptr
      00004C FD               [12]  731 	mov	r5,a
      00004D A3               [24]  732 	inc	dptr
      00004E E0               [24]  733 	movx	a,@dptr
      00004F FE               [12]  734 	mov	r6,a
      000050 A3               [24]  735 	inc	dptr
      000051 E0               [24]  736 	movx	a,@dptr
      000052 FF               [12]  737 	mov	r7,a
      000053 74 02            [12]  738 	mov	a,#0x02
      000055 2D               [12]  739 	add	a,r5
      000056 FA               [12]  740 	mov	r2,a
      000057 E4               [12]  741 	clr	a
      000058 3E               [12]  742 	addc	a,r6
      000059 FB               [12]  743 	mov	r3,a
      00005A 8F 04            [24]  744 	mov	ar4,r7
      00005C 8A 82            [24]  745 	mov	dpl,r2
      00005E 8B 83            [24]  746 	mov	dph,r3
      000060 8C F0            [24]  747 	mov	b,r4
      000062 E4               [12]  748 	clr	a
      000063 12r00r00         [24]  749 	lcall	__gptrput
      000066 A3               [24]  750 	inc	dptr
      000067 12r00r00         [24]  751 	lcall	__gptrput
                                    752 ;	src/main.c:97: buffer->curr_available_char = 0;
      00006A 74 06            [12]  753 	mov	a,#0x06
      00006C 2D               [12]  754 	add	a,r5
      00006D FA               [12]  755 	mov	r2,a
      00006E E4               [12]  756 	clr	a
      00006F 3E               [12]  757 	addc	a,r6
      000070 FB               [12]  758 	mov	r3,a
      000071 8F 04            [24]  759 	mov	ar4,r7
      000073 8A 82            [24]  760 	mov	dpl,r2
      000075 8B 83            [24]  761 	mov	dph,r3
      000077 8C F0            [24]  762 	mov	b,r4
      000079 E4               [12]  763 	clr	a
      00007A 12r00r00         [24]  764 	lcall	__gptrput
      00007D A3               [24]  765 	inc	dptr
      00007E 12r00r00         [24]  766 	lcall	__gptrput
                                    767 ;	src/main.c:98: buffer->next = NULL;
      000081 74 08            [12]  768 	mov	a,#0x08
      000083 2D               [12]  769 	add	a,r5
      000084 FA               [12]  770 	mov	r2,a
      000085 E4               [12]  771 	clr	a
      000086 3E               [12]  772 	addc	a,r6
      000087 FB               [12]  773 	mov	r3,a
      000088 8F 04            [24]  774 	mov	ar4,r7
      00008A 8A 82            [24]  775 	mov	dpl,r2
      00008C 8B 83            [24]  776 	mov	dph,r3
      00008E 8C F0            [24]  777 	mov	b,r4
      000090 E4               [12]  778 	clr	a
      000091 12r00r00         [24]  779 	lcall	__gptrput
      000094 A3               [24]  780 	inc	dptr
      000095 12r00r00         [24]  781 	lcall	__gptrput
      000098 A3               [24]  782 	inc	dptr
      000099 12r00r00         [24]  783 	lcall	__gptrput
                                    784 ;	src/main.c:100: memset(buffer->buffer, 0x00, buffer->size);
      00009C 8D 82            [24]  785 	mov	dpl,r5
      00009E 8E 83            [24]  786 	mov	dph,r6
      0000A0 8F F0            [24]  787 	mov	b,r7
      0000A2 12r00r00         [24]  788 	lcall	__gptrget
      0000A5 FB               [12]  789 	mov	r3,a
      0000A6 A3               [24]  790 	inc	dptr
      0000A7 12r00r00         [24]  791 	lcall	__gptrget
      0000AA FC               [12]  792 	mov	r4,a
      0000AB 7A 00            [12]  793 	mov	r2,#0x00
      0000AD 74 04            [12]  794 	mov	a,#0x04
      0000AF 2D               [12]  795 	add	a,r5
      0000B0 FD               [12]  796 	mov	r5,a
      0000B1 E4               [12]  797 	clr	a
      0000B2 3E               [12]  798 	addc	a,r6
      0000B3 FE               [12]  799 	mov	r6,a
      0000B4 8D 82            [24]  800 	mov	dpl,r5
      0000B6 8E 83            [24]  801 	mov	dph,r6
      0000B8 8F F0            [24]  802 	mov	b,r7
      0000BA 12r00r00         [24]  803 	lcall	__gptrget
      0000BD FD               [12]  804 	mov	r5,a
      0000BE A3               [24]  805 	inc	dptr
      0000BF 12r00r00         [24]  806 	lcall	__gptrget
      0000C2 FE               [12]  807 	mov	r6,a
      0000C3 90r00r00         [24]  808 	mov	dptr,#_memset_PARM_2
      0000C6 E4               [12]  809 	clr	a
      0000C7 F0               [24]  810 	movx	@dptr,a
      0000C8 90r00r00         [24]  811 	mov	dptr,#_memset_PARM_3
      0000CB ED               [12]  812 	mov	a,r5
      0000CC F0               [24]  813 	movx	@dptr,a
      0000CD EE               [12]  814 	mov	a,r6
      0000CE A3               [24]  815 	inc	dptr
      0000CF F0               [24]  816 	movx	@dptr,a
      0000D0 8B 82            [24]  817 	mov	dpl,r3
      0000D2 8C 83            [24]  818 	mov	dph,r4
      0000D4 8A F0            [24]  819 	mov	b,r2
                                    820 ;	src/main.c:101: }
      0000D6 02r00r00         [24]  821 	ljmp	_memset
                                    822 ;------------------------------------------------------------
                                    823 ;Allocation info for local variables in function 'alloc_new_buffer'
                                    824 ;------------------------------------------------------------
                                    825 ;size                      Allocated with name '_alloc_new_buffer_size_65536_86'
                                    826 ;header                    Allocated with name '_alloc_new_buffer_header_65536_87'
                                    827 ;------------------------------------------------------------
                                    828 ;	src/main.c:103: buffer_t *alloc_new_buffer(size_t size)
                                    829 ;	-----------------------------------------
                                    830 ;	 function alloc_new_buffer
                                    831 ;	-----------------------------------------
      0000D9                        832 _alloc_new_buffer:
      0000D9 AF 83            [24]  833 	mov	r7,dph
      0000DB E5 82            [12]  834 	mov	a,dpl
      0000DD 90r00r1A         [24]  835 	mov	dptr,#_alloc_new_buffer_size_65536_86
      0000E0 F0               [24]  836 	movx	@dptr,a
      0000E1 EF               [12]  837 	mov	a,r7
      0000E2 A3               [24]  838 	inc	dptr
      0000E3 F0               [24]  839 	movx	@dptr,a
                                    840 ;	src/main.c:105: buffer_t *header = malloc(sizeof(buffer_t));
      0000E4 90 00 0B         [24]  841 	mov	dptr,#0x000b
      0000E7 12r00r00         [24]  842 	lcall	_malloc
      0000EA AE 82            [24]  843 	mov	r6,dpl
      0000EC AD 83            [24]  844 	mov	r5,dph
      0000EE 7F 00            [12]  845 	mov	r7,#0x00
                                    846 ;	src/main.c:106: if (header == NULL)
      0000F0 EE               [12]  847 	mov	a,r6
      0000F1 4D               [12]  848 	orl	a,r5
                                    849 ;	src/main.c:108: return NULL;
      0000F2 70 06            [24]  850 	jnz	00102$
      0000F4 90 00 00         [24]  851 	mov	dptr,#0x0000
      0000F7 F5 F0            [12]  852 	mov	b,a
      0000F9 22               [24]  853 	ret
      0000FA                        854 00102$:
                                    855 ;	src/main.c:110: header->size = size;
      0000FA 74 04            [12]  856 	mov	a,#0x04
      0000FC 2E               [12]  857 	add	a,r6
      0000FD FA               [12]  858 	mov	r2,a
      0000FE E4               [12]  859 	clr	a
      0000FF 3D               [12]  860 	addc	a,r5
      000100 FB               [12]  861 	mov	r3,a
      000101 8F 04            [24]  862 	mov	ar4,r7
      000103 90r00r1A         [24]  863 	mov	dptr,#_alloc_new_buffer_size_65536_86
      000106 E0               [24]  864 	movx	a,@dptr
      000107 F8               [12]  865 	mov	r0,a
      000108 A3               [24]  866 	inc	dptr
      000109 E0               [24]  867 	movx	a,@dptr
      00010A F9               [12]  868 	mov	r1,a
      00010B 8A 82            [24]  869 	mov	dpl,r2
      00010D 8B 83            [24]  870 	mov	dph,r3
      00010F 8C F0            [24]  871 	mov	b,r4
      000111 E8               [12]  872 	mov	a,r0
      000112 12r00r00         [24]  873 	lcall	__gptrput
      000115 A3               [24]  874 	inc	dptr
      000116 E9               [12]  875 	mov	a,r1
      000117 12r00r00         [24]  876 	lcall	__gptrput
                                    877 ;	src/main.c:111: header->buffer = malloc(size);
      00011A 88 82            [24]  878 	mov	dpl,r0
      00011C 89 83            [24]  879 	mov	dph,r1
      00011E C0 07            [24]  880 	push	ar7
      000120 C0 06            [24]  881 	push	ar6
      000122 C0 05            [24]  882 	push	ar5
      000124 12r00r00         [24]  883 	lcall	_malloc
      000127 AB 82            [24]  884 	mov	r3,dpl
      000129 AC 83            [24]  885 	mov	r4,dph
      00012B D0 05            [24]  886 	pop	ar5
      00012D D0 06            [24]  887 	pop	ar6
      00012F D0 07            [24]  888 	pop	ar7
      000131 8E 82            [24]  889 	mov	dpl,r6
      000133 8D 83            [24]  890 	mov	dph,r5
      000135 8F F0            [24]  891 	mov	b,r7
      000137 EB               [12]  892 	mov	a,r3
      000138 12r00r00         [24]  893 	lcall	__gptrput
      00013B A3               [24]  894 	inc	dptr
      00013C EC               [12]  895 	mov	a,r4
      00013D 12r00r00         [24]  896 	lcall	__gptrput
                                    897 ;	src/main.c:112: if (header->buffer == NULL)
      000140 EB               [12]  898 	mov	a,r3
      000141 4C               [12]  899 	orl	a,r4
      000142 70 16            [24]  900 	jnz	00104$
                                    901 ;	src/main.c:114: free(header);
      000144 8E 02            [24]  902 	mov	ar2,r6
      000146 8D 03            [24]  903 	mov	ar3,r5
      000148 8F 04            [24]  904 	mov	ar4,r7
      00014A 8A 82            [24]  905 	mov	dpl,r2
      00014C 8B 83            [24]  906 	mov	dph,r3
      00014E 8C F0            [24]  907 	mov	b,r4
      000150 12r00r00         [24]  908 	lcall	_free
                                    909 ;	src/main.c:115: return NULL;
      000153 90 00 00         [24]  910 	mov	dptr,#0x0000
      000156 75 F0 00         [24]  911 	mov	b,#0x00
      000159 22               [24]  912 	ret
      00015A                        913 00104$:
                                    914 ;	src/main.c:117: initialize_default_elements(header);
      00015A 8E 82            [24]  915 	mov	dpl,r6
      00015C 8D 83            [24]  916 	mov	dph,r5
      00015E 8F F0            [24]  917 	mov	b,r7
      000160 C0 07            [24]  918 	push	ar7
      000162 C0 06            [24]  919 	push	ar6
      000164 C0 05            [24]  920 	push	ar5
      000166 12r00r38         [24]  921 	lcall	_initialize_default_elements
      000169 D0 05            [24]  922 	pop	ar5
      00016B D0 06            [24]  923 	pop	ar6
      00016D D0 07            [24]  924 	pop	ar7
                                    925 ;	src/main.c:118: return header; 
      00016F 8E 82            [24]  926 	mov	dpl,r6
      000171 8D 83            [24]  927 	mov	dph,r5
      000173 8F F0            [24]  928 	mov	b,r7
                                    929 ;	src/main.c:119: }
      000175 22               [24]  930 	ret
                                    931 ;------------------------------------------------------------
                                    932 ;Allocation info for local variables in function 'is_number'
                                    933 ;------------------------------------------------------------
                                    934 ;c                         Allocated with name '_is_number_c_65536_90'
                                    935 ;------------------------------------------------------------
                                    936 ;	src/main.c:121: bool is_number(char c)
                                    937 ;	-----------------------------------------
                                    938 ;	 function is_number
                                    939 ;	-----------------------------------------
      000176                        940 _is_number:
      000176 E5 82            [12]  941 	mov	a,dpl
      000178 90r00r1C         [24]  942 	mov	dptr,#_is_number_c_65536_90
      00017B F0               [24]  943 	movx	@dptr,a
                                    944 ;	src/main.c:123: return c >= '0' && c <= '9';
      00017C E0               [24]  945 	movx	a,@dptr
      00017D FF               [12]  946 	mov	r7,a
      00017E BF 30 00         [24]  947 	cjne	r7,#0x30,00110$
      000181                        948 00110$:
      000181 92*01            [24]  949 	mov	_is_number_sloc0_1_0,c
      000183 40 07            [24]  950 	jc	00103$
      000185 EF               [12]  951 	mov	a,r7
      000186 24 C6            [12]  952 	add	a,#0xff - 0x39
      000188 92*01            [24]  953 	mov	_is_number_sloc0_1_0,c
      00018A 50 04            [24]  954 	jnc	00104$
      00018C                        955 00103$:
                                    956 ;	assignBit
      00018C C2*01            [12]  957 	clr	_is_number_sloc0_1_0
      00018E 80 02            [24]  958 	sjmp	00105$
      000190                        959 00104$:
                                    960 ;	assignBit
      000190 D2*01            [12]  961 	setb	_is_number_sloc0_1_0
      000192                        962 00105$:
      000192 A2*01            [12]  963 	mov	c,_is_number_sloc0_1_0
      000194 E4               [12]  964 	clr	a
      000195 33               [12]  965 	rlc	a
      000196 F5 82            [12]  966 	mov	dpl,a
                                    967 ;	src/main.c:124: }
      000198 22               [24]  968 	ret
                                    969 ;------------------------------------------------------------
                                    970 ;Allocation info for local variables in function 'initialize_buffers'
                                    971 ;------------------------------------------------------------
                                    972 ;sloc0                     Allocated with name '_initialize_buffers_sloc0_1_0'
                                    973 ;sloc1                     Allocated with name '_initialize_buffers_sloc1_1_0'
                                    974 ;sloc2                     Allocated with name '_initialize_buffers_sloc2_1_0'
                                    975 ;sloc3                     Allocated with name '_initialize_buffers_sloc3_1_0'
                                    976 ;sloc4                     Allocated with name '_initialize_buffers_sloc4_1_0'
                                    977 ;sloc5                     Allocated with name '_initialize_buffers_sloc5_1_0'
                                    978 ;student_number            Allocated with name '_initialize_buffers_student_number_65537_93'
                                    979 ;max_user_input            Allocated with name '_initialize_buffers_max_user_input_65538_98'
                                    980 ;user_buffer_size          Allocated with name '_initialize_buffers_user_buffer_size_65538_98'
                                    981 ;i                         Allocated with name '_initialize_buffers_i_196610_100'
                                    982 ;i                         Allocated with name '_initialize_buffers_i_196610_104'
                                    983 ;new_buffer                Allocated with name '_initialize_buffers_new_buffer_262146_105'
                                    984 ;buffer_4                  Allocated with name '_initialize_buffers_buffer_4_131075_108'
                                    985 ;buffer_5                  Allocated with name '_initialize_buffers_buffer_5_131076_111'
                                    986 ;total_heap_sz             Allocated with name '_initialize_buffers_total_heap_sz_65539_114'
                                    987 ;i                         Allocated with name '_initialize_buffers_i_65539_114'
                                    988 ;curr                      Allocated with name '_initialize_buffers_curr_65540_118'
                                    989 ;------------------------------------------------------------
                                    990 ;	src/main.c:127: void initialize_buffers()
                                    991 ;	-----------------------------------------
                                    992 ;	 function initialize_buffers
                                    993 ;	-----------------------------------------
      000199                        994 _initialize_buffers:
                                    995 ;	src/main.c:129: dynamic_buffers_list.head = NULL;
      000199 90r00r00         [24]  996 	mov	dptr,#_dynamic_buffers_list
      00019C E4               [12]  997 	clr	a
      00019D F0               [24]  998 	movx	@dptr,a
      00019E A3               [24]  999 	inc	dptr
      00019F F0               [24] 1000 	movx	@dptr,a
      0001A0 A3               [24] 1001 	inc	dptr
      0001A1 F0               [24] 1002 	movx	@dptr,a
                                   1003 ;	src/main.c:131: while (true) 
      0001A2                       1004 00110$:
                                   1005 ;	src/main.c:133: printf("\r\nPlease enter the last two digits of your ID:");
      0001A2 74r00            [12] 1006 	mov	a,#___str_0
      0001A4 C0 E0            [24] 1007 	push	acc
      0001A6 74s00            [12] 1008 	mov	a,#(___str_0 >> 8)
      0001A8 C0 E0            [24] 1009 	push	acc
      0001AA 74 80            [12] 1010 	mov	a,#0x80
      0001AC C0 E0            [24] 1011 	push	acc
      0001AE 12r00r00         [24] 1012 	lcall	_printf
      0001B1 15 81            [12] 1013 	dec	sp
      0001B3 15 81            [12] 1014 	dec	sp
      0001B5 15 81            [12] 1015 	dec	sp
                                   1016 ;	src/main.c:134: get_string();
      0001B7 12r00r00         [24] 1017 	lcall	_get_string
                                   1018 ;	src/main.c:135: if (strlen(get_input_buffer()) != TWO_DIGIT_LEN 
      0001BA 12r00r00         [24] 1019 	lcall	_get_input_buffer
      0001BD 12r00r00         [24] 1020 	lcall	_strlen
      0001C0 AE 82            [24] 1021 	mov	r6,dpl
      0001C2 AF 83            [24] 1022 	mov	r7,dph
      0001C4 BE 02 32         [24] 1023 	cjne	r6,#0x02,00101$
      0001C7 BF 00 2F         [24] 1024 	cjne	r7,#0x00,00101$
                                   1025 ;	src/main.c:136: || !is_number(*get_input_buffer())
      0001CA 12r00r00         [24] 1026 	lcall	_get_input_buffer
      0001CD 12r00r00         [24] 1027 	lcall	__gptrget
      0001D0 F5 82            [12] 1028 	mov	dpl,a
      0001D2 12r01r76         [24] 1029 	lcall	_is_number
      0001D5 E5 82            [12] 1030 	mov	a,dpl
      0001D7 60 20            [24] 1031 	jz	00101$
                                   1032 ;	src/main.c:137: || !is_number(*(get_input_buffer()+1)))
      0001D9 12r00r00         [24] 1033 	lcall	_get_input_buffer
      0001DC AD 82            [24] 1034 	mov	r5,dpl
      0001DE AE 83            [24] 1035 	mov	r6,dph
      0001E0 AF F0            [24] 1036 	mov	r7,b
      0001E2 0D               [12] 1037 	inc	r5
      0001E3 BD 00 01         [24] 1038 	cjne	r5,#0x00,00229$
      0001E6 0E               [12] 1039 	inc	r6
      0001E7                       1040 00229$:
      0001E7 8D 82            [24] 1041 	mov	dpl,r5
      0001E9 8E 83            [24] 1042 	mov	dph,r6
      0001EB 8F F0            [24] 1043 	mov	b,r7
      0001ED 12r00r00         [24] 1044 	lcall	__gptrget
      0001F0 F5 82            [12] 1045 	mov	dpl,a
      0001F2 12r01r76         [24] 1046 	lcall	_is_number
      0001F5 E5 82            [12] 1047 	mov	a,dpl
      0001F7 70 17            [24] 1048 	jnz	00102$
      0001F9                       1049 00101$:
                                   1050 ;	src/main.c:139: printf("\r\n Did not enter valid two digit number, please try again");
      0001F9 74r2F            [12] 1051 	mov	a,#___str_1
      0001FB C0 E0            [24] 1052 	push	acc
      0001FD 74s00            [12] 1053 	mov	a,#(___str_1 >> 8)
      0001FF C0 E0            [24] 1054 	push	acc
      000201 74 80            [12] 1055 	mov	a,#0x80
      000203 C0 E0            [24] 1056 	push	acc
      000205 12r00r00         [24] 1057 	lcall	_printf
      000208 15 81            [12] 1058 	dec	sp
      00020A 15 81            [12] 1059 	dec	sp
      00020C 15 81            [12] 1060 	dec	sp
                                   1061 ;	src/main.c:140: continue;
      00020E 80 92            [24] 1062 	sjmp	00110$
      000210                       1063 00102$:
                                   1064 ;	src/main.c:142: student_number = atoi(get_input_buffer());
      000210 12r00r00         [24] 1065 	lcall	_get_input_buffer
      000213 12r00r00         [24] 1066 	lcall	_atoi
      000216 85 82*04         [24] 1067 	mov	_initialize_buffers_sloc2_1_0,dpl
                                   1068 ;	src/main.c:143: if (!(student_number < 0 || student_number > MAX_STUDENT_NUMBER))
      000219 E5 83            [12] 1069 	mov	a,dph
      00021B F5*05            [12] 1070 	mov	(_initialize_buffers_sloc2_1_0 + 1),a
      00021D 20 E7 11         [24] 1071 	jb	acc.7,00106$
      000220 C3               [12] 1072 	clr	c
      000221 74 63            [12] 1073 	mov	a,#0x63
      000223 95*04            [12] 1074 	subb	a,_initialize_buffers_sloc2_1_0
      000225 74 80            [12] 1075 	mov	a,#(0x00 ^ 0x80)
      000227 85*05 F0         [24] 1076 	mov	b,(_initialize_buffers_sloc2_1_0 + 1)
      00022A 63 F0 80         [24] 1077 	xrl	b,#0x80
      00022D 95 F0            [12] 1078 	subb	a,b
      00022F 50 18            [24] 1079 	jnc	00111$
                                   1080 ;	src/main.c:145: break;
      000231                       1081 00106$:
                                   1082 ;	src/main.c:149: printf("\r\nAtoi error: number invalid or out of range, please try again");
      000231 74r69            [12] 1083 	mov	a,#___str_2
      000233 C0 E0            [24] 1084 	push	acc
      000235 74s00            [12] 1085 	mov	a,#(___str_2 >> 8)
      000237 C0 E0            [24] 1086 	push	acc
      000239 74 80            [12] 1087 	mov	a,#0x80
      00023B C0 E0            [24] 1088 	push	acc
      00023D 12r00r00         [24] 1089 	lcall	_printf
      000240 15 81            [12] 1090 	dec	sp
      000242 15 81            [12] 1091 	dec	sp
      000244 15 81            [12] 1092 	dec	sp
      000246 02r01rA2         [24] 1093 	ljmp	00110$
      000249                       1094 00111$:
                                   1095 ;	src/main.c:153: size_t max_user_input = USER_BUFFER_MAX;
      000249 90r00r1D         [24] 1096 	mov	dptr,#_initialize_buffers_max_user_input_65538_98
      00024C E4               [12] 1097 	clr	a
      00024D F0               [24] 1098 	movx	@dptr,a
      00024E 74 04            [12] 1099 	mov	a,#0x04
      000250 A3               [24] 1100 	inc	dptr
      000251 F0               [24] 1101 	movx	@dptr,a
                                   1102 ;	src/main.c:157: memset(static_buffers, 0, BUFFER_ALWAYS_HELD_COUNT * sizeof(buffer_t));
      000252 90r00r00         [24] 1103 	mov	dptr,#_memset_PARM_2
      000255 E4               [12] 1104 	clr	a
      000256 F0               [24] 1105 	movx	@dptr,a
      000257 90r00r00         [24] 1106 	mov	dptr,#_memset_PARM_3
      00025A 74 16            [12] 1107 	mov	a,#0x16
      00025C F0               [24] 1108 	movx	@dptr,a
      00025D E4               [12] 1109 	clr	a
      00025E A3               [24] 1110 	inc	dptr
      00025F F0               [24] 1111 	movx	@dptr,a
      000260 90r00r00         [24] 1112 	mov	dptr,#_static_buffers
      000263 75 F0 00         [24] 1113 	mov	b,#0x00
      000266 12r00r00         [24] 1114 	lcall	_memset
                                   1115 ;	src/main.c:158: while(true)
      000269 90r00r00         [24] 1116 	mov	dptr,#__mulint_PARM_2
      00026C 74 02            [12] 1117 	mov	a,#0x02
      00026E 25*04            [12] 1118 	add	a,_initialize_buffers_sloc2_1_0
      000270 F0               [24] 1119 	movx	@dptr,a
      000271 E4               [12] 1120 	clr	a
      000272 35*05            [12] 1121 	addc	a,(_initialize_buffers_sloc2_1_0 + 1)
      000274 A3               [24] 1122 	inc	dptr
      000275 F0               [24] 1123 	movx	@dptr,a
      000276 90 00 0A         [24] 1124 	mov	dptr,#0x000a
      000279 12r00r00         [24] 1125 	lcall	__mulint
      00027C AC 82            [24] 1126 	mov	r4,dpl
      00027E AD 83            [24] 1127 	mov	r5,dph
      000280                       1128 00128$:
                                   1129 ;	src/main.c:160: user_buffer_size = get_user_buffer_sz(max_user_input);
      000280 90r00r1D         [24] 1130 	mov	dptr,#_initialize_buffers_max_user_input_65538_98
      000283 E0               [24] 1131 	movx	a,@dptr
      000284 FA               [12] 1132 	mov	r2,a
      000285 A3               [24] 1133 	inc	dptr
      000286 E0               [24] 1134 	movx	a,@dptr
      000287 FB               [12] 1135 	mov	r3,a
      000288 8A 82            [24] 1136 	mov	dpl,r2
      00028A 8B 83            [24] 1137 	mov	dph,r3
      00028C C0 05            [24] 1138 	push	ar5
      00028E C0 04            [24] 1139 	push	ar4
      000290 12r0Br6D         [24] 1140 	lcall	_get_user_buffer_sz
      000293 AA 82            [24] 1141 	mov	r2,dpl
      000295 AB 83            [24] 1142 	mov	r3,dph
      000297 D0 04            [24] 1143 	pop	ar4
      000299 D0 05            [24] 1144 	pop	ar5
                                   1145 ;	src/main.c:161: for(int i = 0; i < BUFFER_ALWAYS_HELD_COUNT; i++)
      00029B 78 00            [12] 1146 	mov	r0,#0x00
      00029D 79 00            [12] 1147 	mov	r1,#0x00
      00029F                       1148 00139$:
      00029F C3               [12] 1149 	clr	c
      0002A0 E8               [12] 1150 	mov	a,r0
      0002A1 94 02            [12] 1151 	subb	a,#0x02
      0002A3 E9               [12] 1152 	mov	a,r1
      0002A4 64 80            [12] 1153 	xrl	a,#0x80
      0002A6 94 80            [12] 1154 	subb	a,#0x80
      0002A8 40 03            [24] 1155 	jc	00233$
      0002AA 02r03rA4         [24] 1156 	ljmp	00158$
      0002AD                       1157 00233$:
                                   1158 ;	src/main.c:164: static_buffers[i].buffer = malloc(user_buffer_size);
      0002AD C0 04            [24] 1159 	push	ar4
      0002AF C0 05            [24] 1160 	push	ar5
      0002B1 90r00r00         [24] 1161 	mov	dptr,#__mulint_PARM_2
      0002B4 E8               [12] 1162 	mov	a,r0
      0002B5 F0               [24] 1163 	movx	@dptr,a
      0002B6 E9               [12] 1164 	mov	a,r1
      0002B7 A3               [24] 1165 	inc	dptr
      0002B8 F0               [24] 1166 	movx	@dptr,a
      0002B9 90 00 0B         [24] 1167 	mov	dptr,#0x000b
      0002BC C0 05            [24] 1168 	push	ar5
      0002BE C0 04            [24] 1169 	push	ar4
      0002C0 C0 03            [24] 1170 	push	ar3
      0002C2 C0 02            [24] 1171 	push	ar2
      0002C4 C0 01            [24] 1172 	push	ar1
      0002C6 C0 00            [24] 1173 	push	ar0
      0002C8 12r00r00         [24] 1174 	lcall	__mulint
      0002CB 85 82*00         [24] 1175 	mov	_initialize_buffers_sloc0_1_0,dpl
      0002CE 85 83*01         [24] 1176 	mov	(_initialize_buffers_sloc0_1_0 + 1),dph
      0002D1 D0 00            [24] 1177 	pop	ar0
      0002D3 D0 01            [24] 1178 	pop	ar1
      0002D5 D0 02            [24] 1179 	pop	ar2
      0002D7 D0 03            [24] 1180 	pop	ar3
      0002D9 D0 04            [24] 1181 	pop	ar4
      0002DB D0 05            [24] 1182 	pop	ar5
      0002DD E5*00            [12] 1183 	mov	a,_initialize_buffers_sloc0_1_0
      0002DF 24r00            [12] 1184 	add	a,#_static_buffers
      0002E1 F5*02            [12] 1185 	mov	_initialize_buffers_sloc1_1_0,a
      0002E3 E5*01            [12] 1186 	mov	a,(_initialize_buffers_sloc0_1_0 + 1)
      0002E5 34s00            [12] 1187 	addc	a,#(_static_buffers >> 8)
      0002E7 F5*03            [12] 1188 	mov	(_initialize_buffers_sloc1_1_0 + 1),a
      0002E9 8A 82            [24] 1189 	mov	dpl,r2
      0002EB 8B 83            [24] 1190 	mov	dph,r3
      0002ED C0 03            [24] 1191 	push	ar3
      0002EF C0 02            [24] 1192 	push	ar2
      0002F1 C0 01            [24] 1193 	push	ar1
      0002F3 C0 00            [24] 1194 	push	ar0
      0002F5 12r00r00         [24] 1195 	lcall	_malloc
      0002F8 AC 82            [24] 1196 	mov	r4,dpl
      0002FA AD 83            [24] 1197 	mov	r5,dph
      0002FC D0 00            [24] 1198 	pop	ar0
      0002FE D0 01            [24] 1199 	pop	ar1
      000300 D0 02            [24] 1200 	pop	ar2
      000302 D0 03            [24] 1201 	pop	ar3
      000304 85*02 82         [24] 1202 	mov	dpl,_initialize_buffers_sloc1_1_0
      000307 85*03 83         [24] 1203 	mov	dph,(_initialize_buffers_sloc1_1_0 + 1)
      00030A EC               [12] 1204 	mov	a,r4
      00030B F0               [24] 1205 	movx	@dptr,a
      00030C ED               [12] 1206 	mov	a,r5
      00030D A3               [24] 1207 	inc	dptr
      00030E F0               [24] 1208 	movx	@dptr,a
                                   1209 ;	src/main.c:165: if(static_buffers[i].buffer == NULL)
      00030F EC               [12] 1210 	mov	a,r4
      000310 4D               [12] 1211 	orl	a,r5
      000311 D0 05            [24] 1212 	pop	ar5
      000313 D0 04            [24] 1213 	pop	ar4
      000315 70 43            [24] 1214 	jnz	00113$
                                   1215 ;	src/main.c:167: free_all_buffers();
      000317 C0 04            [24] 1216 	push	ar4
      000319 C0 05            [24] 1217 	push	ar5
      00031B C0 05            [24] 1218 	push	ar5
      00031D C0 04            [24] 1219 	push	ar4
      00031F C0 03            [24] 1220 	push	ar3
      000321 C0 02            [24] 1221 	push	ar2
      000323 12r0Cr27         [24] 1222 	lcall	_free_all_buffers
                                   1223 ;	src/main.c:168: printf(BUFFER_SZ_TOO_BIG);
      000326 74rA8            [12] 1224 	mov	a,#___str_3
      000328 C0 E0            [24] 1225 	push	acc
      00032A 74s00            [12] 1226 	mov	a,#(___str_3 >> 8)
      00032C C0 E0            [24] 1227 	push	acc
      00032E 74 80            [12] 1228 	mov	a,#0x80
      000330 C0 E0            [24] 1229 	push	acc
      000332 12r00r00         [24] 1230 	lcall	_printf
      000335 15 81            [12] 1231 	dec	sp
      000337 15 81            [12] 1232 	dec	sp
      000339 15 81            [12] 1233 	dec	sp
      00033B D0 02            [24] 1234 	pop	ar2
      00033D D0 03            [24] 1235 	pop	ar3
      00033F D0 04            [24] 1236 	pop	ar4
      000341 D0 05            [24] 1237 	pop	ar5
                                   1238 ;	src/main.c:169: max_user_input = user_buffer_size-1;
      000343 EA               [12] 1239 	mov	a,r2
      000344 24 FF            [12] 1240 	add	a,#0xff
      000346 FC               [12] 1241 	mov	r4,a
      000347 EB               [12] 1242 	mov	a,r3
      000348 34 FF            [12] 1243 	addc	a,#0xff
      00034A FD               [12] 1244 	mov	r5,a
      00034B 90r00r1D         [24] 1245 	mov	dptr,#_initialize_buffers_max_user_input_65538_98
      00034E EC               [12] 1246 	mov	a,r4
      00034F F0               [24] 1247 	movx	@dptr,a
      000350 ED               [12] 1248 	mov	a,r5
      000351 A3               [24] 1249 	inc	dptr
      000352 F0               [24] 1250 	movx	@dptr,a
                                   1251 ;	src/main.c:170: goto get_the_buffer_sz; //TODO: find way that involves not using a goto to do this
      000353 D0 05            [24] 1252 	pop	ar5
      000355 D0 04            [24] 1253 	pop	ar4
      000357 02r02r80         [24] 1254 	ljmp	00128$
      00035A                       1255 00113$:
                                   1256 ;	src/main.c:172: static_buffers[i].size = (size_t) user_buffer_size;
      00035A C0 04            [24] 1257 	push	ar4
      00035C C0 05            [24] 1258 	push	ar5
      00035E E5*00            [12] 1259 	mov	a,_initialize_buffers_sloc0_1_0
      000360 24r00            [12] 1260 	add	a,#_static_buffers
      000362 FC               [12] 1261 	mov	r4,a
      000363 E5*01            [12] 1262 	mov	a,(_initialize_buffers_sloc0_1_0 + 1)
      000365 34s00            [12] 1263 	addc	a,#(_static_buffers >> 8)
      000367 FD               [12] 1264 	mov	r5,a
      000368 8C 82            [24] 1265 	mov	dpl,r4
      00036A 8D 83            [24] 1266 	mov	dph,r5
      00036C A3               [24] 1267 	inc	dptr
      00036D A3               [24] 1268 	inc	dptr
      00036E A3               [24] 1269 	inc	dptr
      00036F A3               [24] 1270 	inc	dptr
      000370 EA               [12] 1271 	mov	a,r2
      000371 F0               [24] 1272 	movx	@dptr,a
      000372 EB               [12] 1273 	mov	a,r3
      000373 A3               [24] 1274 	inc	dptr
      000374 F0               [24] 1275 	movx	@dptr,a
                                   1276 ;	src/main.c:173: initialize_default_elements(&static_buffers[i]);
      000375 7F 00            [12] 1277 	mov	r7,#0x00
      000377 8C 82            [24] 1278 	mov	dpl,r4
      000379 8D 83            [24] 1279 	mov	dph,r5
      00037B 8F F0            [24] 1280 	mov	b,r7
      00037D C0 05            [24] 1281 	push	ar5
      00037F C0 04            [24] 1282 	push	ar4
      000381 C0 03            [24] 1283 	push	ar3
      000383 C0 02            [24] 1284 	push	ar2
      000385 C0 01            [24] 1285 	push	ar1
      000387 C0 00            [24] 1286 	push	ar0
      000389 12r00r38         [24] 1287 	lcall	_initialize_default_elements
      00038C D0 00            [24] 1288 	pop	ar0
      00038E D0 01            [24] 1289 	pop	ar1
      000390 D0 02            [24] 1290 	pop	ar2
      000392 D0 03            [24] 1291 	pop	ar3
      000394 D0 04            [24] 1292 	pop	ar4
      000396 D0 05            [24] 1293 	pop	ar5
                                   1294 ;	src/main.c:161: for(int i = 0; i < BUFFER_ALWAYS_HELD_COUNT; i++)
      000398 08               [12] 1295 	inc	r0
      000399 B8 00 01         [24] 1296 	cjne	r0,#0x00,00235$
      00039C 09               [12] 1297 	inc	r1
      00039D                       1298 00235$:
      00039D D0 05            [24] 1299 	pop	ar5
      00039F D0 04            [24] 1300 	pop	ar4
      0003A1 02r02r9F         [24] 1301 	ljmp	00139$
                                   1302 ;	src/main.c:178: for(int i = 0; i < INTIAL_DYNAMIC_BUFFER_COUNT; i++) 
      0003A4                       1303 00158$:
      0003A4 7E 00            [12] 1304 	mov	r6,#0x00
      0003A6 7F 00            [12] 1305 	mov	r7,#0x00
      0003A8                       1306 00142$:
      0003A8 C3               [12] 1307 	clr	c
      0003A9 EE               [12] 1308 	mov	a,r6
      0003AA 94 02            [12] 1309 	subb	a,#0x02
      0003AC EF               [12] 1310 	mov	a,r7
      0003AD 64 80            [12] 1311 	xrl	a,#0x80
      0003AF 94 80            [12] 1312 	subb	a,#0x80
      0003B1 40 03            [24] 1313 	jc	00236$
      0003B3 02r04r56         [24] 1314 	ljmp	00119$
      0003B6                       1315 00236$:
                                   1316 ;	src/main.c:180: buffer_t *new_buffer = alloc_new_buffer(user_buffer_size);
      0003B6 8A 82            [24] 1317 	mov	dpl,r2
      0003B8 8B 83            [24] 1318 	mov	dph,r3
      0003BA C0 07            [24] 1319 	push	ar7
      0003BC C0 06            [24] 1320 	push	ar6
      0003BE C0 05            [24] 1321 	push	ar5
      0003C0 C0 04            [24] 1322 	push	ar4
      0003C2 C0 03            [24] 1323 	push	ar3
      0003C4 C0 02            [24] 1324 	push	ar2
      0003C6 12r00rD9         [24] 1325 	lcall	_alloc_new_buffer
      0003C9 85 82*06         [24] 1326 	mov	_initialize_buffers_sloc3_1_0,dpl
      0003CC 85 83*07         [24] 1327 	mov	(_initialize_buffers_sloc3_1_0 + 1),dph
      0003CF 85 F0*08         [24] 1328 	mov	(_initialize_buffers_sloc3_1_0 + 2),b
      0003D2 D0 02            [24] 1329 	pop	ar2
      0003D4 D0 03            [24] 1330 	pop	ar3
      0003D6 D0 04            [24] 1331 	pop	ar4
      0003D8 D0 05            [24] 1332 	pop	ar5
      0003DA D0 06            [24] 1333 	pop	ar6
      0003DC D0 07            [24] 1334 	pop	ar7
                                   1335 ;	src/main.c:181: if (new_buffer == NULL)
      0003DE E5*06            [12] 1336 	mov	a,_initialize_buffers_sloc3_1_0
      0003E0 45*07            [12] 1337 	orl	a,(_initialize_buffers_sloc3_1_0 + 1)
      0003E2 70 3B            [24] 1338 	jnz	00117$
                                   1339 ;	src/main.c:183: free_all_buffers();
      0003E4 C0 05            [24] 1340 	push	ar5
      0003E6 C0 04            [24] 1341 	push	ar4
      0003E8 C0 03            [24] 1342 	push	ar3
      0003EA C0 02            [24] 1343 	push	ar2
      0003EC 12r0Cr27         [24] 1344 	lcall	_free_all_buffers
                                   1345 ;	src/main.c:184: printf(BUFFER_SZ_TOO_BIG);
      0003EF 74rA8            [12] 1346 	mov	a,#___str_3
      0003F1 C0 E0            [24] 1347 	push	acc
      0003F3 74s00            [12] 1348 	mov	a,#(___str_3 >> 8)
      0003F5 C0 E0            [24] 1349 	push	acc
      0003F7 74 80            [12] 1350 	mov	a,#0x80
      0003F9 C0 E0            [24] 1351 	push	acc
      0003FB 12r00r00         [24] 1352 	lcall	_printf
      0003FE 15 81            [12] 1353 	dec	sp
      000400 15 81            [12] 1354 	dec	sp
      000402 15 81            [12] 1355 	dec	sp
      000404 D0 02            [24] 1356 	pop	ar2
      000406 D0 03            [24] 1357 	pop	ar3
      000408 D0 04            [24] 1358 	pop	ar4
      00040A D0 05            [24] 1359 	pop	ar5
                                   1360 ;	src/main.c:185: max_user_input = user_buffer_size-1;
      00040C EA               [12] 1361 	mov	a,r2
      00040D 24 FF            [12] 1362 	add	a,#0xff
      00040F F8               [12] 1363 	mov	r0,a
      000410 EB               [12] 1364 	mov	a,r3
      000411 34 FF            [12] 1365 	addc	a,#0xff
      000413 F9               [12] 1366 	mov	r1,a
      000414 90r00r1D         [24] 1367 	mov	dptr,#_initialize_buffers_max_user_input_65538_98
      000417 E8               [12] 1368 	mov	a,r0
      000418 F0               [24] 1369 	movx	@dptr,a
      000419 E9               [12] 1370 	mov	a,r1
      00041A A3               [24] 1371 	inc	dptr
      00041B F0               [24] 1372 	movx	@dptr,a
                                   1373 ;	src/main.c:186: goto get_the_buffer_sz; //TODO: find way that involves not using a goto to do this
      00041C 02r02r80         [24] 1374 	ljmp	00128$
      00041F                       1375 00117$:
                                   1376 ;	src/main.c:190: append_to_buffer_list(&dynamic_buffers_list, new_buffer);
      00041F 90r00r00         [24] 1377 	mov	dptr,#_append_to_buffer_list_PARM_2
      000422 E5*06            [12] 1378 	mov	a,_initialize_buffers_sloc3_1_0
      000424 F0               [24] 1379 	movx	@dptr,a
      000425 E5*07            [12] 1380 	mov	a,(_initialize_buffers_sloc3_1_0 + 1)
      000427 A3               [24] 1381 	inc	dptr
      000428 F0               [24] 1382 	movx	@dptr,a
      000429 E5*08            [12] 1383 	mov	a,(_initialize_buffers_sloc3_1_0 + 2)
      00042B A3               [24] 1384 	inc	dptr
      00042C F0               [24] 1385 	movx	@dptr,a
      00042D 90r00r00         [24] 1386 	mov	dptr,#_dynamic_buffers_list
      000430 75 F0 00         [24] 1387 	mov	b,#0x00
      000433 C0 07            [24] 1388 	push	ar7
      000435 C0 06            [24] 1389 	push	ar6
      000437 C0 05            [24] 1390 	push	ar5
      000439 C0 04            [24] 1391 	push	ar4
      00043B C0 03            [24] 1392 	push	ar3
      00043D C0 02            [24] 1393 	push	ar2
      00043F 12r00r00         [24] 1394 	lcall	_append_to_buffer_list
      000442 D0 02            [24] 1395 	pop	ar2
      000444 D0 03            [24] 1396 	pop	ar3
      000446 D0 04            [24] 1397 	pop	ar4
      000448 D0 05            [24] 1398 	pop	ar5
      00044A D0 06            [24] 1399 	pop	ar6
      00044C D0 07            [24] 1400 	pop	ar7
                                   1401 ;	src/main.c:178: for(int i = 0; i < INTIAL_DYNAMIC_BUFFER_COUNT; i++) 
      00044E 0E               [12] 1402 	inc	r6
      00044F BE 00 01         [24] 1403 	cjne	r6,#0x00,00238$
      000452 0F               [12] 1404 	inc	r7
      000453                       1405 00238$:
      000453 02r03rA8         [24] 1406 	ljmp	00142$
      000456                       1407 00119$:
                                   1408 ;	src/main.c:194: remove_from_buffer_list(&dynamic_buffers_list, 2); 
      000456 90r00r00         [24] 1409 	mov	dptr,#_remove_from_buffer_list_PARM_2
      000459 74 02            [12] 1410 	mov	a,#0x02
      00045B F0               [24] 1411 	movx	@dptr,a
      00045C E4               [12] 1412 	clr	a
      00045D A3               [24] 1413 	inc	dptr
      00045E F0               [24] 1414 	movx	@dptr,a
      00045F 90r00r00         [24] 1415 	mov	dptr,#_dynamic_buffers_list
      000462 75 F0 00         [24] 1416 	mov	b,#0x00
      000465 C0 05            [24] 1417 	push	ar5
      000467 C0 04            [24] 1418 	push	ar4
      000469 C0 03            [24] 1419 	push	ar3
      00046B C0 02            [24] 1420 	push	ar2
      00046D 12r00r00         [24] 1421 	lcall	_remove_from_buffer_list
      000470 D0 02            [24] 1422 	pop	ar2
      000472 D0 03            [24] 1423 	pop	ar3
      000474 D0 04            [24] 1424 	pop	ar4
      000476 D0 05            [24] 1425 	pop	ar5
                                   1426 ;	src/main.c:196: buffer_t *buffer_4 = alloc_new_buffer((size_t) (10 * (student_number + 2)));
      000478 8C 06            [24] 1427 	mov	ar6,r4
      00047A 8D 07            [24] 1428 	mov	ar7,r5
      00047C 8E 82            [24] 1429 	mov	dpl,r6
      00047E 8F 83            [24] 1430 	mov	dph,r7
      000480 C0 05            [24] 1431 	push	ar5
      000482 C0 04            [24] 1432 	push	ar4
      000484 C0 03            [24] 1433 	push	ar3
      000486 C0 02            [24] 1434 	push	ar2
      000488 12r00rD9         [24] 1435 	lcall	_alloc_new_buffer
      00048B A9 82            [24] 1436 	mov	r1,dpl
      00048D AE 83            [24] 1437 	mov	r6,dph
      00048F AF F0            [24] 1438 	mov	r7,b
      000491 D0 02            [24] 1439 	pop	ar2
      000493 D0 03            [24] 1440 	pop	ar3
      000495 D0 04            [24] 1441 	pop	ar4
      000497 D0 05            [24] 1442 	pop	ar5
                                   1443 ;	src/main.c:198: if (buffer_4 == NULL)
      000499 E9               [12] 1444 	mov	a,r1
      00049A 4E               [12] 1445 	orl	a,r6
      00049B 70 43            [24] 1446 	jnz	00121$
                                   1447 ;	src/main.c:200: free_all_buffers();
      00049D C0 04            [24] 1448 	push	ar4
      00049F C0 05            [24] 1449 	push	ar5
      0004A1 C0 05            [24] 1450 	push	ar5
      0004A3 C0 04            [24] 1451 	push	ar4
      0004A5 C0 03            [24] 1452 	push	ar3
      0004A7 C0 02            [24] 1453 	push	ar2
      0004A9 12r0Cr27         [24] 1454 	lcall	_free_all_buffers
                                   1455 ;	src/main.c:201: printf(BUFFER_SZ_TOO_BIG);
      0004AC 74rA8            [12] 1456 	mov	a,#___str_3
      0004AE C0 E0            [24] 1457 	push	acc
      0004B0 74s00            [12] 1458 	mov	a,#(___str_3 >> 8)
      0004B2 C0 E0            [24] 1459 	push	acc
      0004B4 74 80            [12] 1460 	mov	a,#0x80
      0004B6 C0 E0            [24] 1461 	push	acc
      0004B8 12r00r00         [24] 1462 	lcall	_printf
      0004BB 15 81            [12] 1463 	dec	sp
      0004BD 15 81            [12] 1464 	dec	sp
      0004BF 15 81            [12] 1465 	dec	sp
      0004C1 D0 02            [24] 1466 	pop	ar2
      0004C3 D0 03            [24] 1467 	pop	ar3
      0004C5 D0 04            [24] 1468 	pop	ar4
      0004C7 D0 05            [24] 1469 	pop	ar5
                                   1470 ;	src/main.c:202: max_user_input = user_buffer_size-1;
      0004C9 EA               [12] 1471 	mov	a,r2
      0004CA 24 FF            [12] 1472 	add	a,#0xff
      0004CC F8               [12] 1473 	mov	r0,a
      0004CD EB               [12] 1474 	mov	a,r3
      0004CE 34 FF            [12] 1475 	addc	a,#0xff
      0004D0 FD               [12] 1476 	mov	r5,a
      0004D1 90r00r1D         [24] 1477 	mov	dptr,#_initialize_buffers_max_user_input_65538_98
      0004D4 E8               [12] 1478 	mov	a,r0
      0004D5 F0               [24] 1479 	movx	@dptr,a
      0004D6 ED               [12] 1480 	mov	a,r5
      0004D7 A3               [24] 1481 	inc	dptr
      0004D8 F0               [24] 1482 	movx	@dptr,a
                                   1483 ;	src/main.c:203: continue;
      0004D9 D0 05            [24] 1484 	pop	ar5
      0004DB D0 04            [24] 1485 	pop	ar4
      0004DD 02r02r80         [24] 1486 	ljmp	00128$
      0004E0                       1487 00121$:
                                   1488 ;	src/main.c:207: append_to_buffer_list(&dynamic_buffers_list, buffer_4);
      0004E0 90r00r00         [24] 1489 	mov	dptr,#_append_to_buffer_list_PARM_2
      0004E3 E9               [12] 1490 	mov	a,r1
      0004E4 F0               [24] 1491 	movx	@dptr,a
      0004E5 EE               [12] 1492 	mov	a,r6
      0004E6 A3               [24] 1493 	inc	dptr
      0004E7 F0               [24] 1494 	movx	@dptr,a
      0004E8 EF               [12] 1495 	mov	a,r7
      0004E9 A3               [24] 1496 	inc	dptr
      0004EA F0               [24] 1497 	movx	@dptr,a
      0004EB 90r00r00         [24] 1498 	mov	dptr,#_dynamic_buffers_list
      0004EE 75 F0 00         [24] 1499 	mov	b,#0x00
      0004F1 C0 05            [24] 1500 	push	ar5
      0004F3 C0 04            [24] 1501 	push	ar4
      0004F5 C0 03            [24] 1502 	push	ar3
      0004F7 C0 02            [24] 1503 	push	ar2
      0004F9 12r00r00         [24] 1504 	lcall	_append_to_buffer_list
      0004FC D0 02            [24] 1505 	pop	ar2
      0004FE D0 03            [24] 1506 	pop	ar3
                                   1507 ;	src/main.c:210: buffer_t *buffer_5 = alloc_new_buffer((size_t) 2 * user_buffer_size);
      000500 EA               [12] 1508 	mov	a,r2
      000501 2A               [12] 1509 	add	a,r2
      000502 FE               [12] 1510 	mov	r6,a
      000503 EB               [12] 1511 	mov	a,r3
      000504 33               [12] 1512 	rlc	a
      000505 FF               [12] 1513 	mov	r7,a
      000506 8E 82            [24] 1514 	mov	dpl,r6
      000508 8F 83            [24] 1515 	mov	dph,r7
      00050A C0 03            [24] 1516 	push	ar3
      00050C C0 02            [24] 1517 	push	ar2
      00050E 12r00rD9         [24] 1518 	lcall	_alloc_new_buffer
      000511 A9 82            [24] 1519 	mov	r1,dpl
      000513 AE 83            [24] 1520 	mov	r6,dph
      000515 AF F0            [24] 1521 	mov	r7,b
      000517 D0 02            [24] 1522 	pop	ar2
      000519 D0 03            [24] 1523 	pop	ar3
      00051B D0 04            [24] 1524 	pop	ar4
      00051D D0 05            [24] 1525 	pop	ar5
                                   1526 ;	src/main.c:211: if (buffer_5 == NULL)
      00051F E9               [12] 1527 	mov	a,r1
      000520 4E               [12] 1528 	orl	a,r6
      000521 70 43            [24] 1529 	jnz	00124$
                                   1530 ;	src/main.c:213: free_all_buffers();
      000523 C0 04            [24] 1531 	push	ar4
      000525 C0 05            [24] 1532 	push	ar5
      000527 C0 05            [24] 1533 	push	ar5
      000529 C0 04            [24] 1534 	push	ar4
      00052B C0 03            [24] 1535 	push	ar3
      00052D C0 02            [24] 1536 	push	ar2
      00052F 12r0Cr27         [24] 1537 	lcall	_free_all_buffers
                                   1538 ;	src/main.c:214: printf(BUFFER_SZ_TOO_BIG);
      000532 74rA8            [12] 1539 	mov	a,#___str_3
      000534 C0 E0            [24] 1540 	push	acc
      000536 74s00            [12] 1541 	mov	a,#(___str_3 >> 8)
      000538 C0 E0            [24] 1542 	push	acc
      00053A 74 80            [12] 1543 	mov	a,#0x80
      00053C C0 E0            [24] 1544 	push	acc
      00053E 12r00r00         [24] 1545 	lcall	_printf
      000541 15 81            [12] 1546 	dec	sp
      000543 15 81            [12] 1547 	dec	sp
      000545 15 81            [12] 1548 	dec	sp
      000547 D0 02            [24] 1549 	pop	ar2
      000549 D0 03            [24] 1550 	pop	ar3
      00054B D0 04            [24] 1551 	pop	ar4
      00054D D0 05            [24] 1552 	pop	ar5
                                   1553 ;	src/main.c:215: max_user_input = user_buffer_size-1;
      00054F EA               [12] 1554 	mov	a,r2
      000550 24 FF            [12] 1555 	add	a,#0xff
      000552 F8               [12] 1556 	mov	r0,a
      000553 EB               [12] 1557 	mov	a,r3
      000554 34 FF            [12] 1558 	addc	a,#0xff
      000556 FD               [12] 1559 	mov	r5,a
      000557 90r00r1D         [24] 1560 	mov	dptr,#_initialize_buffers_max_user_input_65538_98
      00055A E8               [12] 1561 	mov	a,r0
      00055B F0               [24] 1562 	movx	@dptr,a
      00055C ED               [12] 1563 	mov	a,r5
      00055D A3               [24] 1564 	inc	dptr
      00055E F0               [24] 1565 	movx	@dptr,a
                                   1566 ;	src/main.c:216: continue;
      00055F D0 05            [24] 1567 	pop	ar5
      000561 D0 04            [24] 1568 	pop	ar4
      000563 02r02r80         [24] 1569 	ljmp	00128$
      000566                       1570 00124$:
                                   1571 ;	src/main.c:220: append_to_buffer_list(&dynamic_buffers_list, buffer_5); 
      000566 90r00r00         [24] 1572 	mov	dptr,#_append_to_buffer_list_PARM_2
      000569 E9               [12] 1573 	mov	a,r1
      00056A F0               [24] 1574 	movx	@dptr,a
      00056B EE               [12] 1575 	mov	a,r6
      00056C A3               [24] 1576 	inc	dptr
      00056D F0               [24] 1577 	movx	@dptr,a
      00056E EF               [12] 1578 	mov	a,r7
      00056F A3               [24] 1579 	inc	dptr
      000570 F0               [24] 1580 	movx	@dptr,a
      000571 90r00r00         [24] 1581 	mov	dptr,#_dynamic_buffers_list
      000574 75 F0 00         [24] 1582 	mov	b,#0x00
      000577 C0 03            [24] 1583 	push	ar3
      000579 C0 02            [24] 1584 	push	ar2
      00057B 12r00r00         [24] 1585 	lcall	_append_to_buffer_list
                                   1586 ;	src/main.c:226: printf("\r\nstudent_number: %d", student_number);
      00057E C0*04            [24] 1587 	push	_initialize_buffers_sloc2_1_0
      000580 C0*05            [24] 1588 	push	(_initialize_buffers_sloc2_1_0 + 1)
      000582 74rE1            [12] 1589 	mov	a,#___str_4
      000584 C0 E0            [24] 1590 	push	acc
      000586 74s00            [12] 1591 	mov	a,#(___str_4 >> 8)
      000588 C0 E0            [24] 1592 	push	acc
      00058A 74 80            [12] 1593 	mov	a,#0x80
      00058C C0 E0            [24] 1594 	push	acc
      00058E 12r00r00         [24] 1595 	lcall	_printf
      000591 E5 81            [12] 1596 	mov	a,sp
      000593 24 FB            [12] 1597 	add	a,#0xfb
      000595 F5 81            [12] 1598 	mov	sp,a
      000597 D0 02            [24] 1599 	pop	ar2
      000599 D0 03            [24] 1600 	pop	ar3
                                   1601 ;	src/main.c:227: printf("\r\nuser_buffer_size: %zu", user_buffer_size);
      00059B C0 02            [24] 1602 	push	ar2
      00059D C0 03            [24] 1603 	push	ar3
      00059F 74rF6            [12] 1604 	mov	a,#___str_5
      0005A1 C0 E0            [24] 1605 	push	acc
      0005A3 74s00            [12] 1606 	mov	a,#(___str_5 >> 8)
      0005A5 C0 E0            [24] 1607 	push	acc
      0005A7 74 80            [12] 1608 	mov	a,#0x80
      0005A9 C0 E0            [24] 1609 	push	acc
      0005AB 12r00r00         [24] 1610 	lcall	_printf
      0005AE E5 81            [12] 1611 	mov	a,sp
      0005B0 24 FB            [12] 1612 	add	a,#0xfb
      0005B2 F5 81            [12] 1613 	mov	sp,a
                                   1614 ;	src/main.c:229: size_t total_heap_sz = 0;
      0005B4 90r00r1F         [24] 1615 	mov	dptr,#_initialize_buffers_total_heap_sz_65539_114
      0005B7 E4               [12] 1616 	clr	a
      0005B8 F0               [24] 1617 	movx	@dptr,a
      0005B9 A3               [24] 1618 	inc	dptr
      0005BA F0               [24] 1619 	movx	@dptr,a
                                   1620 ;	src/main.c:231: for(i = 0; i < BUFFER_ALWAYS_HELD_COUNT; i++)
      0005BB 7E 00            [12] 1621 	mov	r6,#0x00
      0005BD 7F 00            [12] 1622 	mov	r7,#0x00
      0005BF                       1623 00144$:
                                   1624 ;	src/main.c:233: if(static_buffers[i].buffer != NULL) {
      0005BF 90r00r00         [24] 1625 	mov	dptr,#__mulint_PARM_2
      0005C2 EE               [12] 1626 	mov	a,r6
      0005C3 F0               [24] 1627 	movx	@dptr,a
      0005C4 EF               [12] 1628 	mov	a,r7
      0005C5 A3               [24] 1629 	inc	dptr
      0005C6 F0               [24] 1630 	movx	@dptr,a
      0005C7 90 00 0B         [24] 1631 	mov	dptr,#0x000b
      0005CA C0 07            [24] 1632 	push	ar7
      0005CC C0 06            [24] 1633 	push	ar6
      0005CE 12r00r00         [24] 1634 	lcall	__mulint
      0005D1 AC 82            [24] 1635 	mov	r4,dpl
      0005D3 AD 83            [24] 1636 	mov	r5,dph
      0005D5 D0 06            [24] 1637 	pop	ar6
      0005D7 D0 07            [24] 1638 	pop	ar7
      0005D9 EC               [12] 1639 	mov	a,r4
      0005DA 24r00            [12] 1640 	add	a,#_static_buffers
      0005DC F5 82            [12] 1641 	mov	dpl,a
      0005DE ED               [12] 1642 	mov	a,r5
      0005DF 34s00            [12] 1643 	addc	a,#(_static_buffers >> 8)
      0005E1 F5 83            [12] 1644 	mov	dph,a
      0005E3 E0               [24] 1645 	movx	a,@dptr
      0005E4 FA               [12] 1646 	mov	r2,a
      0005E5 A3               [24] 1647 	inc	dptr
      0005E6 E0               [24] 1648 	movx	a,@dptr
      0005E7 FB               [12] 1649 	mov	r3,a
      0005E8 4A               [12] 1650 	orl	a,r2
      0005E9 70 03            [24] 1651 	jnz	00241$
      0005EB 02r06r7E         [24] 1652 	ljmp	00145$
      0005EE                       1653 00241$:
                                   1654 ;	src/main.c:234: printf("\r\nbuffer_%d starts @ %p, ends @%p, size %zu", i, static_buffers[i].buffer, static_buffers[i].buffer + static_buffers[i].size, static_buffers[i].size);
      0005EE EC               [12] 1655 	mov	a,r4
      0005EF 24r00            [12] 1656 	add	a,#_static_buffers
      0005F1 FC               [12] 1657 	mov	r4,a
      0005F2 ED               [12] 1658 	mov	a,r5
      0005F3 34s00            [12] 1659 	addc	a,#(_static_buffers >> 8)
      0005F5 FD               [12] 1660 	mov	r5,a
      0005F6 74 04            [12] 1661 	mov	a,#0x04
      0005F8 2C               [12] 1662 	add	a,r4
      0005F9 FA               [12] 1663 	mov	r2,a
      0005FA E4               [12] 1664 	clr	a
      0005FB 3D               [12] 1665 	addc	a,r5
      0005FC FB               [12] 1666 	mov	r3,a
      0005FD 8A 82            [24] 1667 	mov	dpl,r2
      0005FF 8B 83            [24] 1668 	mov	dph,r3
      000601 E0               [24] 1669 	movx	a,@dptr
      000602 F5*04            [12] 1670 	mov	_initialize_buffers_sloc2_1_0,a
      000604 A3               [24] 1671 	inc	dptr
      000605 E0               [24] 1672 	movx	a,@dptr
      000606 F5*05            [12] 1673 	mov	(_initialize_buffers_sloc2_1_0 + 1),a
      000608 8C 82            [24] 1674 	mov	dpl,r4
      00060A 8D 83            [24] 1675 	mov	dph,r5
      00060C E0               [24] 1676 	movx	a,@dptr
      00060D F5*06            [12] 1677 	mov	_initialize_buffers_sloc3_1_0,a
      00060F A3               [24] 1678 	inc	dptr
      000610 E0               [24] 1679 	movx	a,@dptr
      000611 F5*07            [12] 1680 	mov	(_initialize_buffers_sloc3_1_0 + 1),a
      000613 E5*04            [12] 1681 	mov	a,_initialize_buffers_sloc2_1_0
      000615 25*06            [12] 1682 	add	a,_initialize_buffers_sloc3_1_0
      000617 FC               [12] 1683 	mov	r4,a
      000618 E5*05            [12] 1684 	mov	a,(_initialize_buffers_sloc2_1_0 + 1)
      00061A 35*07            [12] 1685 	addc	a,(_initialize_buffers_sloc3_1_0 + 1)
      00061C FD               [12] 1686 	mov	r5,a
      00061D 8C*09            [24] 1687 	mov	_initialize_buffers_sloc4_1_0,r4
      00061F 8D*0A            [24] 1688 	mov	(_initialize_buffers_sloc4_1_0 + 1),r5
      000621 75*0B 00         [24] 1689 	mov	(_initialize_buffers_sloc4_1_0 + 2),#0x00
      000624 A8*06            [24] 1690 	mov	r0,_initialize_buffers_sloc3_1_0
      000626 AD*07            [24] 1691 	mov	r5,(_initialize_buffers_sloc3_1_0 + 1)
      000628 7C 00            [12] 1692 	mov	r4,#0x00
      00062A C0 07            [24] 1693 	push	ar7
      00062C C0 06            [24] 1694 	push	ar6
      00062E C0 03            [24] 1695 	push	ar3
      000630 C0 02            [24] 1696 	push	ar2
      000632 C0*04            [24] 1697 	push	_initialize_buffers_sloc2_1_0
      000634 C0*05            [24] 1698 	push	(_initialize_buffers_sloc2_1_0 + 1)
      000636 C0*09            [24] 1699 	push	_initialize_buffers_sloc4_1_0
      000638 C0*0A            [24] 1700 	push	(_initialize_buffers_sloc4_1_0 + 1)
      00063A C0*0B            [24] 1701 	push	(_initialize_buffers_sloc4_1_0 + 2)
      00063C C0 00            [24] 1702 	push	ar0
      00063E C0 05            [24] 1703 	push	ar5
      000640 C0 04            [24] 1704 	push	ar4
      000642 C0 06            [24] 1705 	push	ar6
      000644 C0 07            [24] 1706 	push	ar7
      000646 74r0E            [12] 1707 	mov	a,#___str_6
      000648 C0 E0            [24] 1708 	push	acc
      00064A 74s01            [12] 1709 	mov	a,#(___str_6 >> 8)
      00064C C0 E0            [24] 1710 	push	acc
      00064E 74 80            [12] 1711 	mov	a,#0x80
      000650 C0 E0            [24] 1712 	push	acc
      000652 12r00r00         [24] 1713 	lcall	_printf
      000655 E5 81            [12] 1714 	mov	a,sp
      000657 24 F3            [12] 1715 	add	a,#0xf3
      000659 F5 81            [12] 1716 	mov	sp,a
      00065B D0 02            [24] 1717 	pop	ar2
      00065D D0 03            [24] 1718 	pop	ar3
      00065F D0 06            [24] 1719 	pop	ar6
      000661 D0 07            [24] 1720 	pop	ar7
                                   1721 ;	src/main.c:235: total_heap_sz += static_buffers[i].size; 
      000663 8A 82            [24] 1722 	mov	dpl,r2
      000665 8B 83            [24] 1723 	mov	dph,r3
      000667 E0               [24] 1724 	movx	a,@dptr
      000668 FA               [12] 1725 	mov	r2,a
      000669 A3               [24] 1726 	inc	dptr
      00066A E0               [24] 1727 	movx	a,@dptr
      00066B FB               [12] 1728 	mov	r3,a
      00066C 90r00r1F         [24] 1729 	mov	dptr,#_initialize_buffers_total_heap_sz_65539_114
      00066F E0               [24] 1730 	movx	a,@dptr
      000670 FC               [12] 1731 	mov	r4,a
      000671 A3               [24] 1732 	inc	dptr
      000672 E0               [24] 1733 	movx	a,@dptr
      000673 FD               [12] 1734 	mov	r5,a
      000674 90r00r1F         [24] 1735 	mov	dptr,#_initialize_buffers_total_heap_sz_65539_114
      000677 EA               [12] 1736 	mov	a,r2
      000678 2C               [12] 1737 	add	a,r4
      000679 F0               [24] 1738 	movx	@dptr,a
      00067A EB               [12] 1739 	mov	a,r3
      00067B 3D               [12] 1740 	addc	a,r5
      00067C A3               [24] 1741 	inc	dptr
      00067D F0               [24] 1742 	movx	@dptr,a
      00067E                       1743 00145$:
                                   1744 ;	src/main.c:231: for(i = 0; i < BUFFER_ALWAYS_HELD_COUNT; i++)
      00067E 0E               [12] 1745 	inc	r6
      00067F BE 00 01         [24] 1746 	cjne	r6,#0x00,00242$
      000682 0F               [12] 1747 	inc	r7
      000683                       1748 00242$:
      000683 C3               [12] 1749 	clr	c
      000684 EE               [12] 1750 	mov	a,r6
      000685 94 02            [12] 1751 	subb	a,#0x02
      000687 EF               [12] 1752 	mov	a,r7
      000688 64 80            [12] 1753 	xrl	a,#0x80
      00068A 94 80            [12] 1754 	subb	a,#0x80
      00068C 50 03            [24] 1755 	jnc	00243$
      00068E 02r05rBF         [24] 1756 	ljmp	00144$
      000691                       1757 00243$:
                                   1758 ;	src/main.c:239: buffer_t *curr = dynamic_buffers_list.head;
      000691 90r00r00         [24] 1759 	mov	dptr,#_dynamic_buffers_list
      000694 E0               [24] 1760 	movx	a,@dptr
      000695 FB               [12] 1761 	mov	r3,a
      000696 A3               [24] 1762 	inc	dptr
      000697 E0               [24] 1763 	movx	a,@dptr
      000698 FC               [12] 1764 	mov	r4,a
      000699 A3               [24] 1765 	inc	dptr
      00069A E0               [24] 1766 	movx	a,@dptr
      00069B FD               [12] 1767 	mov	r5,a
      00069C 90r00r21         [24] 1768 	mov	dptr,#_initialize_buffers_curr_65540_118
      00069F EB               [12] 1769 	mov	a,r3
      0006A0 F0               [24] 1770 	movx	@dptr,a
      0006A1 EC               [12] 1771 	mov	a,r4
      0006A2 A3               [24] 1772 	inc	dptr
      0006A3 F0               [24] 1773 	movx	@dptr,a
      0006A4 ED               [12] 1774 	mov	a,r5
      0006A5 A3               [24] 1775 	inc	dptr
      0006A6 F0               [24] 1776 	movx	@dptr,a
                                   1777 ;	src/main.c:241: while(curr != NULL) {
      0006A7 8E*09            [24] 1778 	mov	_initialize_buffers_sloc4_1_0,r6
      0006A9 8F*0A            [24] 1779 	mov	(_initialize_buffers_sloc4_1_0 + 1),r7
      0006AB                       1780 00135$:
      0006AB 90r00r21         [24] 1781 	mov	dptr,#_initialize_buffers_curr_65540_118
      0006AE E0               [24] 1782 	movx	a,@dptr
      0006AF FB               [12] 1783 	mov	r3,a
      0006B0 A3               [24] 1784 	inc	dptr
      0006B1 E0               [24] 1785 	movx	a,@dptr
      0006B2 FC               [12] 1786 	mov	r4,a
      0006B3 A3               [24] 1787 	inc	dptr
      0006B4 E0               [24] 1788 	movx	a,@dptr
      0006B5 FD               [12] 1789 	mov	r5,a
      0006B6 EB               [12] 1790 	mov	a,r3
      0006B7 4C               [12] 1791 	orl	a,r4
      0006B8 70 03            [24] 1792 	jnz	00244$
      0006BA 02r07r8D         [24] 1793 	ljmp	00137$
      0006BD                       1794 00244$:
                                   1795 ;	src/main.c:242: if(curr->buffer != NULL) {
      0006BD 8B 82            [24] 1796 	mov	dpl,r3
      0006BF 8C 83            [24] 1797 	mov	dph,r4
      0006C1 8D F0            [24] 1798 	mov	b,r5
      0006C3 12r00r00         [24] 1799 	lcall	__gptrget
      0006C6 F9               [12] 1800 	mov	r1,a
      0006C7 A3               [24] 1801 	inc	dptr
      0006C8 12r00r00         [24] 1802 	lcall	__gptrget
      0006CB FA               [12] 1803 	mov	r2,a
      0006CC 49               [12] 1804 	orl	a,r1
      0006CD 70 03            [24] 1805 	jnz	00245$
      0006CF 02r07r51         [24] 1806 	ljmp	00134$
      0006D2                       1807 00245$:
                                   1808 ;	src/main.c:243: printf("\r\nbuffer_%d starts @ %p, ends @%p, size %zu", i, curr->buffer, curr->buffer + curr->size, curr->size);
      0006D2 74 04            [12] 1809 	mov	a,#0x04
      0006D4 2B               [12] 1810 	add	a,r3
      0006D5 FB               [12] 1811 	mov	r3,a
      0006D6 E4               [12] 1812 	clr	a
      0006D7 3C               [12] 1813 	addc	a,r4
      0006D8 FC               [12] 1814 	mov	r4,a
      0006D9 8B 82            [24] 1815 	mov	dpl,r3
      0006DB 8C 83            [24] 1816 	mov	dph,r4
      0006DD 8D F0            [24] 1817 	mov	b,r5
      0006DF 12r00r00         [24] 1818 	lcall	__gptrget
      0006E2 F5*06            [12] 1819 	mov	_initialize_buffers_sloc3_1_0,a
      0006E4 A3               [24] 1820 	inc	dptr
      0006E5 12r00r00         [24] 1821 	lcall	__gptrget
      0006E8 F5*07            [12] 1822 	mov	(_initialize_buffers_sloc3_1_0 + 1),a
      0006EA E5*06            [12] 1823 	mov	a,_initialize_buffers_sloc3_1_0
      0006EC 29               [12] 1824 	add	a,r1
      0006ED FE               [12] 1825 	mov	r6,a
      0006EE E5*07            [12] 1826 	mov	a,(_initialize_buffers_sloc3_1_0 + 1)
      0006F0 3A               [12] 1827 	addc	a,r2
      0006F1 FF               [12] 1828 	mov	r7,a
      0006F2 8E*0C            [24] 1829 	mov	_initialize_buffers_sloc5_1_0,r6
      0006F4 8F*0D            [24] 1830 	mov	(_initialize_buffers_sloc5_1_0 + 1),r7
      0006F6 75*0E 00         [24] 1831 	mov	(_initialize_buffers_sloc5_1_0 + 2),#0x00
      0006F9 7F 00            [12] 1832 	mov	r7,#0x00
      0006FB C0 05            [24] 1833 	push	ar5
      0006FD C0 04            [24] 1834 	push	ar4
      0006FF C0 03            [24] 1835 	push	ar3
      000701 C0*06            [24] 1836 	push	_initialize_buffers_sloc3_1_0
      000703 C0*07            [24] 1837 	push	(_initialize_buffers_sloc3_1_0 + 1)
      000705 C0*0C            [24] 1838 	push	_initialize_buffers_sloc5_1_0
      000707 C0*0D            [24] 1839 	push	(_initialize_buffers_sloc5_1_0 + 1)
      000709 C0*0E            [24] 1840 	push	(_initialize_buffers_sloc5_1_0 + 2)
      00070B C0 01            [24] 1841 	push	ar1
      00070D C0 02            [24] 1842 	push	ar2
      00070F C0 07            [24] 1843 	push	ar7
      000711 C0*09            [24] 1844 	push	_initialize_buffers_sloc4_1_0
      000713 C0*0A            [24] 1845 	push	(_initialize_buffers_sloc4_1_0 + 1)
      000715 74r0E            [12] 1846 	mov	a,#___str_6
      000717 C0 E0            [24] 1847 	push	acc
      000719 74s01            [12] 1848 	mov	a,#(___str_6 >> 8)
      00071B C0 E0            [24] 1849 	push	acc
      00071D 74 80            [12] 1850 	mov	a,#0x80
      00071F C0 E0            [24] 1851 	push	acc
      000721 12r00r00         [24] 1852 	lcall	_printf
      000724 E5 81            [12] 1853 	mov	a,sp
      000726 24 F3            [12] 1854 	add	a,#0xf3
      000728 F5 81            [12] 1855 	mov	sp,a
      00072A D0 03            [24] 1856 	pop	ar3
      00072C D0 04            [24] 1857 	pop	ar4
      00072E D0 05            [24] 1858 	pop	ar5
                                   1859 ;	src/main.c:244: total_heap_sz += curr->size; 
      000730 8B 82            [24] 1860 	mov	dpl,r3
      000732 8C 83            [24] 1861 	mov	dph,r4
      000734 8D F0            [24] 1862 	mov	b,r5
      000736 12r00r00         [24] 1863 	lcall	__gptrget
      000739 FB               [12] 1864 	mov	r3,a
      00073A A3               [24] 1865 	inc	dptr
      00073B 12r00r00         [24] 1866 	lcall	__gptrget
      00073E FC               [12] 1867 	mov	r4,a
      00073F 90r00r1F         [24] 1868 	mov	dptr,#_initialize_buffers_total_heap_sz_65539_114
      000742 E0               [24] 1869 	movx	a,@dptr
      000743 FE               [12] 1870 	mov	r6,a
      000744 A3               [24] 1871 	inc	dptr
      000745 E0               [24] 1872 	movx	a,@dptr
      000746 FF               [12] 1873 	mov	r7,a
      000747 90r00r1F         [24] 1874 	mov	dptr,#_initialize_buffers_total_heap_sz_65539_114
      00074A EB               [12] 1875 	mov	a,r3
      00074B 2E               [12] 1876 	add	a,r6
      00074C F0               [24] 1877 	movx	@dptr,a
      00074D EC               [12] 1878 	mov	a,r4
      00074E 3F               [12] 1879 	addc	a,r7
      00074F A3               [24] 1880 	inc	dptr
      000750 F0               [24] 1881 	movx	@dptr,a
      000751                       1882 00134$:
                                   1883 ;	src/main.c:246: i++; 
      000751 05*09            [12] 1884 	inc	_initialize_buffers_sloc4_1_0
      000753 E4               [12] 1885 	clr	a
      000754 B5*09 02         [24] 1886 	cjne	a,_initialize_buffers_sloc4_1_0,00246$
      000757 05*0A            [12] 1887 	inc	(_initialize_buffers_sloc4_1_0 + 1)
      000759                       1888 00246$:
                                   1889 ;	src/main.c:247: curr = curr->next;
      000759 90r00r21         [24] 1890 	mov	dptr,#_initialize_buffers_curr_65540_118
      00075C E0               [24] 1891 	movx	a,@dptr
      00075D FD               [12] 1892 	mov	r5,a
      00075E A3               [24] 1893 	inc	dptr
      00075F E0               [24] 1894 	movx	a,@dptr
      000760 FE               [12] 1895 	mov	r6,a
      000761 A3               [24] 1896 	inc	dptr
      000762 E0               [24] 1897 	movx	a,@dptr
      000763 FF               [12] 1898 	mov	r7,a
      000764 74 08            [12] 1899 	mov	a,#0x08
      000766 2D               [12] 1900 	add	a,r5
      000767 FD               [12] 1901 	mov	r5,a
      000768 E4               [12] 1902 	clr	a
      000769 3E               [12] 1903 	addc	a,r6
      00076A FE               [12] 1904 	mov	r6,a
      00076B 8D 82            [24] 1905 	mov	dpl,r5
      00076D 8E 83            [24] 1906 	mov	dph,r6
      00076F 8F F0            [24] 1907 	mov	b,r7
      000771 12r00r00         [24] 1908 	lcall	__gptrget
      000774 FD               [12] 1909 	mov	r5,a
      000775 A3               [24] 1910 	inc	dptr
      000776 12r00r00         [24] 1911 	lcall	__gptrget
      000779 FE               [12] 1912 	mov	r6,a
      00077A A3               [24] 1913 	inc	dptr
      00077B 12r00r00         [24] 1914 	lcall	__gptrget
      00077E FF               [12] 1915 	mov	r7,a
      00077F 90r00r21         [24] 1916 	mov	dptr,#_initialize_buffers_curr_65540_118
      000782 ED               [12] 1917 	mov	a,r5
      000783 F0               [24] 1918 	movx	@dptr,a
      000784 EE               [12] 1919 	mov	a,r6
      000785 A3               [24] 1920 	inc	dptr
      000786 F0               [24] 1921 	movx	@dptr,a
      000787 EF               [12] 1922 	mov	a,r7
      000788 A3               [24] 1923 	inc	dptr
      000789 F0               [24] 1924 	movx	@dptr,a
      00078A 02r06rAB         [24] 1925 	ljmp	00135$
      00078D                       1926 00137$:
                                   1927 ;	src/main.c:249: printf("\r\nHeap starts @ %p, ends @ %p, size: %zu", __sdcc_heap, __sdcc_heap + HEAP_SIZE, total_heap_sz);
      00078D 90r00r1F         [24] 1928 	mov	dptr,#_initialize_buffers_total_heap_sz_65539_114
      000790 E0               [24] 1929 	movx	a,@dptr
      000791 C0 E0            [24] 1930 	push	acc
      000793 A3               [24] 1931 	inc	dptr
      000794 E0               [24] 1932 	movx	a,@dptr
      000795 C0 E0            [24] 1933 	push	acc
      000797 74r00            [12] 1934 	mov	a,#(___sdcc_heap + 0x2000)
      000799 C0 E0            [24] 1935 	push	acc
      00079B 74s20            [12] 1936 	mov	a,#((___sdcc_heap + 0x2000) >> 8)
      00079D C0 E0            [24] 1937 	push	acc
      00079F E4               [12] 1938 	clr	a
      0007A0 C0 E0            [24] 1939 	push	acc
      0007A2 74r00            [12] 1940 	mov	a,#___sdcc_heap
      0007A4 C0 E0            [24] 1941 	push	acc
      0007A6 74s00            [12] 1942 	mov	a,#(___sdcc_heap >> 8)
      0007A8 C0 E0            [24] 1943 	push	acc
      0007AA E4               [12] 1944 	clr	a
      0007AB C0 E0            [24] 1945 	push	acc
      0007AD 74r3A            [12] 1946 	mov	a,#___str_7
      0007AF C0 E0            [24] 1947 	push	acc
      0007B1 74s01            [12] 1948 	mov	a,#(___str_7 >> 8)
      0007B3 C0 E0            [24] 1949 	push	acc
      0007B5 74 80            [12] 1950 	mov	a,#0x80
      0007B7 C0 E0            [24] 1951 	push	acc
      0007B9 12r00r00         [24] 1952 	lcall	_printf
      0007BC E5 81            [12] 1953 	mov	a,sp
      0007BE 24 F5            [12] 1954 	add	a,#0xf5
      0007C0 F5 81            [12] 1955 	mov	sp,a
                                   1956 ;	src/main.c:250: reset_char_count();
                                   1957 ;	src/main.c:251: }
      0007C2 02r00r00         [24] 1958 	ljmp	_reset_char_count
                                   1959 ;------------------------------------------------------------
                                   1960 ;Allocation info for local variables in function 'store_in_buffer'
                                   1961 ;------------------------------------------------------------
                                   1962 ;sloc0                     Allocated with name '_store_in_buffer_sloc0_1_0'
                                   1963 ;sloc1                     Allocated with name '_store_in_buffer_sloc1_1_0'
                                   1964 ;c                         Allocated with name '_store_in_buffer_PARM_2'
                                   1965 ;buffer                    Allocated with name '_store_in_buffer_buffer_65536_121'
                                   1966 ;------------------------------------------------------------
                                   1967 ;	src/main.c:253: void store_in_buffer(buffer_t *buffer, char c)
                                   1968 ;	-----------------------------------------
                                   1969 ;	 function store_in_buffer
                                   1970 ;	-----------------------------------------
      0007C5                       1971 _store_in_buffer:
      0007C5 AF F0            [24] 1972 	mov	r7,b
      0007C7 AE 83            [24] 1973 	mov	r6,dph
      0007C9 E5 82            [12] 1974 	mov	a,dpl
      0007CB 90r00r25         [24] 1975 	mov	dptr,#_store_in_buffer_buffer_65536_121
      0007CE F0               [24] 1976 	movx	@dptr,a
      0007CF EE               [12] 1977 	mov	a,r6
      0007D0 A3               [24] 1978 	inc	dptr
      0007D1 F0               [24] 1979 	movx	@dptr,a
      0007D2 EF               [12] 1980 	mov	a,r7
      0007D3 A3               [24] 1981 	inc	dptr
      0007D4 F0               [24] 1982 	movx	@dptr,a
                                   1983 ;	src/main.c:255: if (buffer->curr_available_char < buffer->size)
      0007D5 90r00r25         [24] 1984 	mov	dptr,#_store_in_buffer_buffer_65536_121
      0007D8 E0               [24] 1985 	movx	a,@dptr
      0007D9 FD               [12] 1986 	mov	r5,a
      0007DA A3               [24] 1987 	inc	dptr
      0007DB E0               [24] 1988 	movx	a,@dptr
      0007DC FE               [12] 1989 	mov	r6,a
      0007DD A3               [24] 1990 	inc	dptr
      0007DE E0               [24] 1991 	movx	a,@dptr
      0007DF FF               [12] 1992 	mov	r7,a
      0007E0 74 06            [12] 1993 	mov	a,#0x06
      0007E2 2D               [12] 1994 	add	a,r5
      0007E3 F5*11            [12] 1995 	mov	_store_in_buffer_sloc1_1_0,a
      0007E5 E4               [12] 1996 	clr	a
      0007E6 3E               [12] 1997 	addc	a,r6
      0007E7 F5*12            [12] 1998 	mov	(_store_in_buffer_sloc1_1_0 + 1),a
      0007E9 8F*13            [24] 1999 	mov	(_store_in_buffer_sloc1_1_0 + 2),r7
      0007EB 85*11 82         [24] 2000 	mov	dpl,_store_in_buffer_sloc1_1_0
      0007EE 85*12 83         [24] 2001 	mov	dph,(_store_in_buffer_sloc1_1_0 + 1)
      0007F1 85*13 F0         [24] 2002 	mov	b,(_store_in_buffer_sloc1_1_0 + 2)
      0007F4 12r00r00         [24] 2003 	lcall	__gptrget
      0007F7 F5*0F            [12] 2004 	mov	_store_in_buffer_sloc0_1_0,a
      0007F9 A3               [24] 2005 	inc	dptr
      0007FA 12r00r00         [24] 2006 	lcall	__gptrget
      0007FD F5*10            [12] 2007 	mov	(_store_in_buffer_sloc0_1_0 + 1),a
      0007FF 74 04            [12] 2008 	mov	a,#0x04
      000801 2D               [12] 2009 	add	a,r5
      000802 F8               [12] 2010 	mov	r0,a
      000803 E4               [12] 2011 	clr	a
      000804 3E               [12] 2012 	addc	a,r6
      000805 F9               [12] 2013 	mov	r1,a
      000806 8F 04            [24] 2014 	mov	ar4,r7
      000808 88 82            [24] 2015 	mov	dpl,r0
      00080A 89 83            [24] 2016 	mov	dph,r1
      00080C 8C F0            [24] 2017 	mov	b,r4
      00080E 12r00r00         [24] 2018 	lcall	__gptrget
      000811 F8               [12] 2019 	mov	r0,a
      000812 A3               [24] 2020 	inc	dptr
      000813 12r00r00         [24] 2021 	lcall	__gptrget
      000816 F9               [12] 2022 	mov	r1,a
      000817 C3               [12] 2023 	clr	c
      000818 E5*0F            [12] 2024 	mov	a,_store_in_buffer_sloc0_1_0
      00081A 98               [12] 2025 	subb	a,r0
      00081B E5*10            [12] 2026 	mov	a,(_store_in_buffer_sloc0_1_0 + 1)
      00081D 99               [12] 2027 	subb	a,r1
      00081E 40 01            [24] 2028 	jc	00115$
      000820 22               [24] 2029 	ret
      000821                       2030 00115$:
                                   2031 ;	src/main.c:257: buffer->buffer[buffer->curr_available_char] = c;
      000821 8D 82            [24] 2032 	mov	dpl,r5
      000823 8E 83            [24] 2033 	mov	dph,r6
      000825 8F F0            [24] 2034 	mov	b,r7
      000827 12r00r00         [24] 2035 	lcall	__gptrget
      00082A FB               [12] 2036 	mov	r3,a
      00082B A3               [24] 2037 	inc	dptr
      00082C 12r00r00         [24] 2038 	lcall	__gptrget
      00082F FC               [12] 2039 	mov	r4,a
      000830 E5*0F            [12] 2040 	mov	a,_store_in_buffer_sloc0_1_0
      000832 2B               [12] 2041 	add	a,r3
      000833 FB               [12] 2042 	mov	r3,a
      000834 E5*10            [12] 2043 	mov	a,(_store_in_buffer_sloc0_1_0 + 1)
      000836 3C               [12] 2044 	addc	a,r4
      000837 FC               [12] 2045 	mov	r4,a
      000838 90r00r24         [24] 2046 	mov	dptr,#_store_in_buffer_PARM_2
      00083B E0               [24] 2047 	movx	a,@dptr
      00083C FA               [12] 2048 	mov	r2,a
      00083D 8B 82            [24] 2049 	mov	dpl,r3
      00083F 8C 83            [24] 2050 	mov	dph,r4
      000841 F0               [24] 2051 	movx	@dptr,a
                                   2052 ;	src/main.c:258: buffer->curr_available_char++;
      000842 85*11 82         [24] 2053 	mov	dpl,_store_in_buffer_sloc1_1_0
      000845 85*12 83         [24] 2054 	mov	dph,(_store_in_buffer_sloc1_1_0 + 1)
      000848 85*13 F0         [24] 2055 	mov	b,(_store_in_buffer_sloc1_1_0 + 2)
      00084B 12r00r00         [24] 2056 	lcall	__gptrget
      00084E FC               [12] 2057 	mov	r4,a
      00084F A3               [24] 2058 	inc	dptr
      000850 12r00r00         [24] 2059 	lcall	__gptrget
      000853 FB               [12] 2060 	mov	r3,a
      000854 0C               [12] 2061 	inc	r4
      000855 BC 00 01         [24] 2062 	cjne	r4,#0x00,00116$
      000858 0B               [12] 2063 	inc	r3
      000859                       2064 00116$:
      000859 85*11 82         [24] 2065 	mov	dpl,_store_in_buffer_sloc1_1_0
      00085C 85*12 83         [24] 2066 	mov	dph,(_store_in_buffer_sloc1_1_0 + 1)
      00085F 85*13 F0         [24] 2067 	mov	b,(_store_in_buffer_sloc1_1_0 + 2)
      000862 EC               [12] 2068 	mov	a,r4
      000863 12r00r00         [24] 2069 	lcall	__gptrput
      000866 A3               [24] 2070 	inc	dptr
      000867 EB               [12] 2071 	mov	a,r3
      000868 12r00r00         [24] 2072 	lcall	__gptrput
                                   2073 ;	src/main.c:259: if (is_alphabet_char(c))
      00086B 8A 82            [24] 2074 	mov	dpl,r2
      00086D C0 07            [24] 2075 	push	ar7
      00086F C0 06            [24] 2076 	push	ar6
      000871 C0 05            [24] 2077 	push	ar5
      000873 12r00r04         [24] 2078 	lcall	_is_alphabet_char
      000876 E5 82            [12] 2079 	mov	a,dpl
      000878 D0 05            [24] 2080 	pop	ar5
      00087A D0 06            [24] 2081 	pop	ar6
      00087C D0 07            [24] 2082 	pop	ar7
      00087E 60 2A            [24] 2083 	jz	00105$
                                   2084 ;	src/main.c:261: buffer->alphabet_chars++;
      000880 74 02            [12] 2085 	mov	a,#0x02
      000882 2D               [12] 2086 	add	a,r5
      000883 FD               [12] 2087 	mov	r5,a
      000884 E4               [12] 2088 	clr	a
      000885 3E               [12] 2089 	addc	a,r6
      000886 FE               [12] 2090 	mov	r6,a
      000887 8D 82            [24] 2091 	mov	dpl,r5
      000889 8E 83            [24] 2092 	mov	dph,r6
      00088B 8F F0            [24] 2093 	mov	b,r7
      00088D 12r00r00         [24] 2094 	lcall	__gptrget
      000890 FB               [12] 2095 	mov	r3,a
      000891 A3               [24] 2096 	inc	dptr
      000892 12r00r00         [24] 2097 	lcall	__gptrget
      000895 FC               [12] 2098 	mov	r4,a
      000896 0B               [12] 2099 	inc	r3
      000897 BB 00 01         [24] 2100 	cjne	r3,#0x00,00118$
      00089A 0C               [12] 2101 	inc	r4
      00089B                       2102 00118$:
      00089B 8D 82            [24] 2103 	mov	dpl,r5
      00089D 8E 83            [24] 2104 	mov	dph,r6
      00089F 8F F0            [24] 2105 	mov	b,r7
      0008A1 EB               [12] 2106 	mov	a,r3
      0008A2 12r00r00         [24] 2107 	lcall	__gptrput
      0008A5 A3               [24] 2108 	inc	dptr
      0008A6 EC               [12] 2109 	mov	a,r4
                                   2110 ;	src/main.c:264: }
      0008A7 02r00r00         [24] 2111 	ljmp	__gptrput
      0008AA                       2112 00105$:
      0008AA 22               [24] 2113 	ret
                                   2114 ;------------------------------------------------------------
                                   2115 ;Allocation info for local variables in function 'print_dashed_line'
                                   2116 ;------------------------------------------------------------
                                   2117 ;	src/main.c:266: void print_dashed_line()
                                   2118 ;	-----------------------------------------
                                   2119 ;	 function print_dashed_line
                                   2120 ;	-----------------------------------------
      0008AB                       2121 _print_dashed_line:
                                   2122 ;	src/main.c:268: printf("\r\n------------------------------------------------");
      0008AB 74r63            [12] 2123 	mov	a,#___str_8
      0008AD C0 E0            [24] 2124 	push	acc
      0008AF 74s01            [12] 2125 	mov	a,#(___str_8 >> 8)
      0008B1 C0 E0            [24] 2126 	push	acc
      0008B3 74 80            [12] 2127 	mov	a,#0x80
      0008B5 C0 E0            [24] 2128 	push	acc
      0008B7 12r00r00         [24] 2129 	lcall	_printf
      0008BA 15 81            [12] 2130 	dec	sp
      0008BC 15 81            [12] 2131 	dec	sp
      0008BE 15 81            [12] 2132 	dec	sp
                                   2133 ;	src/main.c:269: }
      0008C0 22               [24] 2134 	ret
                                   2135 ;------------------------------------------------------------
                                   2136 ;Allocation info for local variables in function 'command_header'
                                   2137 ;------------------------------------------------------------
                                   2138 ;command_string            Allocated with name '_command_header_command_string_65536_126'
                                   2139 ;------------------------------------------------------------
                                   2140 ;	src/main.c:271: void command_header(char *command_string)
                                   2141 ;	-----------------------------------------
                                   2142 ;	 function command_header
                                   2143 ;	-----------------------------------------
      0008C1                       2144 _command_header:
      0008C1 AF F0            [24] 2145 	mov	r7,b
      0008C3 AE 83            [24] 2146 	mov	r6,dph
      0008C5 E5 82            [12] 2147 	mov	a,dpl
      0008C7 90r00r28         [24] 2148 	mov	dptr,#_command_header_command_string_65536_126
      0008CA F0               [24] 2149 	movx	@dptr,a
      0008CB EE               [12] 2150 	mov	a,r6
      0008CC A3               [24] 2151 	inc	dptr
      0008CD F0               [24] 2152 	movx	@dptr,a
      0008CE EF               [12] 2153 	mov	a,r7
      0008CF A3               [24] 2154 	inc	dptr
      0008D0 F0               [24] 2155 	movx	@dptr,a
                                   2156 ;	src/main.c:273: print_dashed_line();
      0008D1 12r08rAB         [24] 2157 	lcall	_print_dashed_line
                                   2158 ;	src/main.c:274: printf("\r\n%s", command_string);
      0008D4 90r00r28         [24] 2159 	mov	dptr,#_command_header_command_string_65536_126
      0008D7 E0               [24] 2160 	movx	a,@dptr
      0008D8 C0 E0            [24] 2161 	push	acc
      0008DA A3               [24] 2162 	inc	dptr
      0008DB E0               [24] 2163 	movx	a,@dptr
      0008DC C0 E0            [24] 2164 	push	acc
      0008DE A3               [24] 2165 	inc	dptr
      0008DF E0               [24] 2166 	movx	a,@dptr
      0008E0 C0 E0            [24] 2167 	push	acc
      0008E2 74r96            [12] 2168 	mov	a,#___str_9
      0008E4 C0 E0            [24] 2169 	push	acc
      0008E6 74s01            [12] 2170 	mov	a,#(___str_9 >> 8)
      0008E8 C0 E0            [24] 2171 	push	acc
      0008EA 74 80            [12] 2172 	mov	a,#0x80
      0008EC C0 E0            [24] 2173 	push	acc
      0008EE 12r00r00         [24] 2174 	lcall	_printf
      0008F1 E5 81            [12] 2175 	mov	a,sp
      0008F3 24 FA            [12] 2176 	add	a,#0xfa
      0008F5 F5 81            [12] 2177 	mov	sp,a
                                   2178 ;	src/main.c:275: print_dashed_line();
                                   2179 ;	src/main.c:276: }
      0008F7 02r08rAB         [24] 2180 	ljmp	_print_dashed_line
                                   2181 ;------------------------------------------------------------
                                   2182 ;Allocation info for local variables in function 'heap_report'
                                   2183 ;------------------------------------------------------------
                                   2184 ;sloc0                     Allocated with name '_heap_report_sloc0_1_0'
                                   2185 ;sloc1                     Allocated with name '_heap_report_sloc1_1_0'
                                   2186 ;sloc2                     Allocated with name '_heap_report_sloc2_1_0'
                                   2187 ;sloc3                     Allocated with name '_heap_report_sloc3_1_0'
                                   2188 ;sloc4                     Allocated with name '_heap_report_sloc4_1_0'
                                   2189 ;sloc5                     Allocated with name '_heap_report_sloc5_1_0'
                                   2190 ;total_heap_sz             Allocated with name '_heap_report_total_heap_sz_65537_129'
                                   2191 ;i                         Allocated with name '_heap_report_i_65537_129'
                                   2192 ;curr                      Allocated with name '_heap_report_curr_65538_133'
                                   2193 ;------------------------------------------------------------
                                   2194 ;	src/main.c:280: void heap_report()
                                   2195 ;	-----------------------------------------
                                   2196 ;	 function heap_report
                                   2197 ;	-----------------------------------------
      0008FA                       2198 _heap_report:
                                   2199 ;	src/main.c:282: command_header("Heap Report");
      0008FA 90r01r9B         [24] 2200 	mov	dptr,#___str_10
      0008FD 75 F0 80         [24] 2201 	mov	b,#0x80
      000900 12r08rC1         [24] 2202 	lcall	_command_header
                                   2203 ;	src/main.c:283: size_t total_heap_sz = 0;
      000903 90r00r2B         [24] 2204 	mov	dptr,#_heap_report_total_heap_sz_65537_129
      000906 E4               [12] 2205 	clr	a
      000907 F0               [24] 2206 	movx	@dptr,a
      000908 A3               [24] 2207 	inc	dptr
      000909 F0               [24] 2208 	movx	@dptr,a
                                   2209 ;	src/main.c:285: for(i = 0; i < BUFFER_ALWAYS_HELD_COUNT; i++)
      00090A 7E 00            [12] 2210 	mov	r6,#0x00
      00090C 7F 00            [12] 2211 	mov	r7,#0x00
      00090E                       2212 00109$:
                                   2213 ;	src/main.c:287: if(static_buffers[i].buffer != NULL) {
      00090E 90r00r00         [24] 2214 	mov	dptr,#__mulint_PARM_2
      000911 EE               [12] 2215 	mov	a,r6
      000912 F0               [24] 2216 	movx	@dptr,a
      000913 EF               [12] 2217 	mov	a,r7
      000914 A3               [24] 2218 	inc	dptr
      000915 F0               [24] 2219 	movx	@dptr,a
      000916 90 00 0B         [24] 2220 	mov	dptr,#0x000b
      000919 C0 07            [24] 2221 	push	ar7
      00091B C0 06            [24] 2222 	push	ar6
      00091D 12r00r00         [24] 2223 	lcall	__mulint
      000920 AC 82            [24] 2224 	mov	r4,dpl
      000922 AD 83            [24] 2225 	mov	r5,dph
      000924 D0 06            [24] 2226 	pop	ar6
      000926 D0 07            [24] 2227 	pop	ar7
      000928 EC               [12] 2228 	mov	a,r4
      000929 24r00            [12] 2229 	add	a,#_static_buffers
      00092B F5 82            [12] 2230 	mov	dpl,a
      00092D ED               [12] 2231 	mov	a,r5
      00092E 34s00            [12] 2232 	addc	a,#(_static_buffers >> 8)
      000930 F5 83            [12] 2233 	mov	dph,a
      000932 E0               [24] 2234 	movx	a,@dptr
      000933 FA               [12] 2235 	mov	r2,a
      000934 A3               [24] 2236 	inc	dptr
      000935 E0               [24] 2237 	movx	a,@dptr
      000936 FB               [12] 2238 	mov	r3,a
      000937 4A               [12] 2239 	orl	a,r2
      000938 70 03            [24] 2240 	jnz	00139$
      00093A 02r09rF3         [24] 2241 	ljmp	00110$
      00093D                       2242 00139$:
                                   2243 ;	src/main.c:294: static_buffers[i].size - static_buffers[i].curr_available_char);
      00093D EC               [12] 2244 	mov	a,r4
      00093E 24r00            [12] 2245 	add	a,#_static_buffers
      000940 FC               [12] 2246 	mov	r4,a
      000941 ED               [12] 2247 	mov	a,r5
      000942 34s00            [12] 2248 	addc	a,#(_static_buffers >> 8)
      000944 FD               [12] 2249 	mov	r5,a
      000945 74 04            [12] 2250 	mov	a,#0x04
      000947 2C               [12] 2251 	add	a,r4
      000948 F5*14            [12] 2252 	mov	_heap_report_sloc0_1_0,a
      00094A E4               [12] 2253 	clr	a
      00094B 3D               [12] 2254 	addc	a,r5
      00094C F5*15            [12] 2255 	mov	(_heap_report_sloc0_1_0 + 1),a
      00094E 85*14 82         [24] 2256 	mov	dpl,_heap_report_sloc0_1_0
      000951 85*15 83         [24] 2257 	mov	dph,(_heap_report_sloc0_1_0 + 1)
      000954 E0               [24] 2258 	movx	a,@dptr
      000955 F8               [12] 2259 	mov	r0,a
      000956 A3               [24] 2260 	inc	dptr
      000957 E0               [24] 2261 	movx	a,@dptr
      000958 F9               [12] 2262 	mov	r1,a
      000959 74 06            [12] 2263 	mov	a,#0x06
      00095B 2C               [12] 2264 	add	a,r4
      00095C F5 82            [12] 2265 	mov	dpl,a
      00095E E4               [12] 2266 	clr	a
      00095F 3D               [12] 2267 	addc	a,r5
      000960 F5 83            [12] 2268 	mov	dph,a
      000962 E0               [24] 2269 	movx	a,@dptr
      000963 FA               [12] 2270 	mov	r2,a
      000964 A3               [24] 2271 	inc	dptr
      000965 E0               [24] 2272 	movx	a,@dptr
      000966 FB               [12] 2273 	mov	r3,a
      000967 E8               [12] 2274 	mov	a,r0
      000968 C3               [12] 2275 	clr	c
      000969 9A               [12] 2276 	subb	a,r2
      00096A F5*16            [12] 2277 	mov	_heap_report_sloc1_1_0,a
      00096C E9               [12] 2278 	mov	a,r1
      00096D 9B               [12] 2279 	subb	a,r3
      00096E F5*17            [12] 2280 	mov	(_heap_report_sloc1_1_0 + 1),a
                                   2281 ;	src/main.c:293: static_buffers[i].alphabet_chars,
      000970 8C 82            [24] 2282 	mov	dpl,r4
      000972 8D 83            [24] 2283 	mov	dph,r5
      000974 A3               [24] 2284 	inc	dptr
      000975 A3               [24] 2285 	inc	dptr
      000976 E0               [24] 2286 	movx	a,@dptr
      000977 F5*18            [12] 2287 	mov	_heap_report_sloc2_1_0,a
      000979 A3               [24] 2288 	inc	dptr
      00097A E0               [24] 2289 	movx	a,@dptr
      00097B F5*19            [12] 2290 	mov	(_heap_report_sloc2_1_0 + 1),a
                                   2291 ;	src/main.c:291: static_buffers[i].buffer + static_buffers[i].size, 
      00097D 8C 82            [24] 2292 	mov	dpl,r4
      00097F 8D 83            [24] 2293 	mov	dph,r5
      000981 E0               [24] 2294 	movx	a,@dptr
      000982 F5*1A            [12] 2295 	mov	_heap_report_sloc3_1_0,a
      000984 A3               [24] 2296 	inc	dptr
      000985 E0               [24] 2297 	movx	a,@dptr
      000986 F5*1B            [12] 2298 	mov	(_heap_report_sloc3_1_0 + 1),a
      000988 E8               [12] 2299 	mov	a,r0
      000989 25*1A            [12] 2300 	add	a,_heap_report_sloc3_1_0
      00098B FA               [12] 2301 	mov	r2,a
      00098C E9               [12] 2302 	mov	a,r1
      00098D 35*1B            [12] 2303 	addc	a,(_heap_report_sloc3_1_0 + 1)
      00098F FB               [12] 2304 	mov	r3,a
      000990 8A*1C            [24] 2305 	mov	_heap_report_sloc4_1_0,r2
      000992 8B*1D            [24] 2306 	mov	(_heap_report_sloc4_1_0 + 1),r3
      000994 75*1E 00         [24] 2307 	mov	(_heap_report_sloc4_1_0 + 2),#0x00
                                   2308 ;	src/main.c:290: static_buffers[i].buffer, 
      000997 AC*1A            [24] 2309 	mov	r4,_heap_report_sloc3_1_0
      000999 AD*1B            [24] 2310 	mov	r5,(_heap_report_sloc3_1_0 + 1)
      00099B 7B 00            [12] 2311 	mov	r3,#0x00
                                   2312 ;	src/main.c:288: printf("\r\nbuffer_%d starts @ %p, ends @%p, size %zu, contains %zu alphabet chars, has %zu chars remaining", 
      00099D C0 07            [24] 2313 	push	ar7
      00099F C0 06            [24] 2314 	push	ar6
      0009A1 C0*16            [24] 2315 	push	_heap_report_sloc1_1_0
      0009A3 C0*17            [24] 2316 	push	(_heap_report_sloc1_1_0 + 1)
      0009A5 C0*18            [24] 2317 	push	_heap_report_sloc2_1_0
      0009A7 C0*19            [24] 2318 	push	(_heap_report_sloc2_1_0 + 1)
      0009A9 C0 00            [24] 2319 	push	ar0
      0009AB C0 01            [24] 2320 	push	ar1
      0009AD C0*1C            [24] 2321 	push	_heap_report_sloc4_1_0
      0009AF C0*1D            [24] 2322 	push	(_heap_report_sloc4_1_0 + 1)
      0009B1 C0*1E            [24] 2323 	push	(_heap_report_sloc4_1_0 + 2)
      0009B3 C0 04            [24] 2324 	push	ar4
      0009B5 C0 05            [24] 2325 	push	ar5
      0009B7 C0 03            [24] 2326 	push	ar3
      0009B9 C0 06            [24] 2327 	push	ar6
      0009BB C0 07            [24] 2328 	push	ar7
      0009BD 74rA7            [12] 2329 	mov	a,#___str_11
      0009BF C0 E0            [24] 2330 	push	acc
      0009C1 74s01            [12] 2331 	mov	a,#(___str_11 >> 8)
      0009C3 C0 E0            [24] 2332 	push	acc
      0009C5 74 80            [12] 2333 	mov	a,#0x80
      0009C7 C0 E0            [24] 2334 	push	acc
      0009C9 12r00r00         [24] 2335 	lcall	_printf
      0009CC E5 81            [12] 2336 	mov	a,sp
      0009CE 24 EF            [12] 2337 	add	a,#0xef
      0009D0 F5 81            [12] 2338 	mov	sp,a
      0009D2 D0 06            [24] 2339 	pop	ar6
      0009D4 D0 07            [24] 2340 	pop	ar7
                                   2341 ;	src/main.c:295: total_heap_sz += static_buffers[i].size; 
      0009D6 85*14 82         [24] 2342 	mov	dpl,_heap_report_sloc0_1_0
      0009D9 85*15 83         [24] 2343 	mov	dph,(_heap_report_sloc0_1_0 + 1)
      0009DC E0               [24] 2344 	movx	a,@dptr
      0009DD FC               [12] 2345 	mov	r4,a
      0009DE A3               [24] 2346 	inc	dptr
      0009DF E0               [24] 2347 	movx	a,@dptr
      0009E0 FD               [12] 2348 	mov	r5,a
      0009E1 90r00r2B         [24] 2349 	mov	dptr,#_heap_report_total_heap_sz_65537_129
      0009E4 E0               [24] 2350 	movx	a,@dptr
      0009E5 FA               [12] 2351 	mov	r2,a
      0009E6 A3               [24] 2352 	inc	dptr
      0009E7 E0               [24] 2353 	movx	a,@dptr
      0009E8 FB               [12] 2354 	mov	r3,a
      0009E9 90r00r2B         [24] 2355 	mov	dptr,#_heap_report_total_heap_sz_65537_129
      0009EC EC               [12] 2356 	mov	a,r4
      0009ED 2A               [12] 2357 	add	a,r2
      0009EE F0               [24] 2358 	movx	@dptr,a
      0009EF ED               [12] 2359 	mov	a,r5
      0009F0 3B               [12] 2360 	addc	a,r3
      0009F1 A3               [24] 2361 	inc	dptr
      0009F2 F0               [24] 2362 	movx	@dptr,a
      0009F3                       2363 00110$:
                                   2364 ;	src/main.c:285: for(i = 0; i < BUFFER_ALWAYS_HELD_COUNT; i++)
      0009F3 0E               [12] 2365 	inc	r6
      0009F4 BE 00 01         [24] 2366 	cjne	r6,#0x00,00140$
      0009F7 0F               [12] 2367 	inc	r7
      0009F8                       2368 00140$:
      0009F8 C3               [12] 2369 	clr	c
      0009F9 EE               [12] 2370 	mov	a,r6
      0009FA 94 02            [12] 2371 	subb	a,#0x02
      0009FC EF               [12] 2372 	mov	a,r7
      0009FD 64 80            [12] 2373 	xrl	a,#0x80
      0009FF 94 80            [12] 2374 	subb	a,#0x80
      000A01 50 03            [24] 2375 	jnc	00141$
      000A03 02r09r0E         [24] 2376 	ljmp	00109$
      000A06                       2377 00141$:
                                   2378 ;	src/main.c:299: buffer_t *curr = dynamic_buffers_list.head;
      000A06 90r00r00         [24] 2379 	mov	dptr,#_dynamic_buffers_list
      000A09 E0               [24] 2380 	movx	a,@dptr
      000A0A FB               [12] 2381 	mov	r3,a
      000A0B A3               [24] 2382 	inc	dptr
      000A0C E0               [24] 2383 	movx	a,@dptr
      000A0D FC               [12] 2384 	mov	r4,a
      000A0E A3               [24] 2385 	inc	dptr
      000A0F E0               [24] 2386 	movx	a,@dptr
      000A10 FD               [12] 2387 	mov	r5,a
      000A11 90r00r2D         [24] 2388 	mov	dptr,#_heap_report_curr_65538_133
      000A14 EB               [12] 2389 	mov	a,r3
      000A15 F0               [24] 2390 	movx	@dptr,a
      000A16 EC               [12] 2391 	mov	a,r4
      000A17 A3               [24] 2392 	inc	dptr
      000A18 F0               [24] 2393 	movx	@dptr,a
      000A19 ED               [12] 2394 	mov	a,r5
      000A1A A3               [24] 2395 	inc	dptr
      000A1B F0               [24] 2396 	movx	@dptr,a
                                   2397 ;	src/main.c:300: while(curr != NULL) {
      000A1C 8E*1C            [24] 2398 	mov	_heap_report_sloc4_1_0,r6
      000A1E 8F*1D            [24] 2399 	mov	(_heap_report_sloc4_1_0 + 1),r7
      000A20                       2400 00106$:
      000A20 90r00r2D         [24] 2401 	mov	dptr,#_heap_report_curr_65538_133
      000A23 E0               [24] 2402 	movx	a,@dptr
      000A24 FB               [12] 2403 	mov	r3,a
      000A25 A3               [24] 2404 	inc	dptr
      000A26 E0               [24] 2405 	movx	a,@dptr
      000A27 FC               [12] 2406 	mov	r4,a
      000A28 A3               [24] 2407 	inc	dptr
      000A29 E0               [24] 2408 	movx	a,@dptr
      000A2A FD               [12] 2409 	mov	r5,a
      000A2B EB               [12] 2410 	mov	a,r3
      000A2C 4C               [12] 2411 	orl	a,r4
      000A2D 70 03            [24] 2412 	jnz	00142$
      000A2F 02r0Br22         [24] 2413 	ljmp	00108$
      000A32                       2414 00142$:
                                   2415 ;	src/main.c:301: if(curr->buffer != NULL) {
      000A32 8B 82            [24] 2416 	mov	dpl,r3
      000A34 8C 83            [24] 2417 	mov	dph,r4
      000A36 8D F0            [24] 2418 	mov	b,r5
      000A38 12r00r00         [24] 2419 	lcall	__gptrget
      000A3B F9               [12] 2420 	mov	r1,a
      000A3C A3               [24] 2421 	inc	dptr
      000A3D 12r00r00         [24] 2422 	lcall	__gptrget
      000A40 FA               [12] 2423 	mov	r2,a
      000A41 49               [12] 2424 	orl	a,r1
      000A42 70 03            [24] 2425 	jnz	00143$
      000A44 02r0ArE6         [24] 2426 	ljmp	00105$
      000A47                       2427 00143$:
                                   2428 ;	src/main.c:308: curr->size - curr->alphabet_chars);
      000A47 74 04            [12] 2429 	mov	a,#0x04
      000A49 2B               [12] 2430 	add	a,r3
      000A4A F5*1F            [12] 2431 	mov	_heap_report_sloc5_1_0,a
      000A4C E4               [12] 2432 	clr	a
      000A4D 3C               [12] 2433 	addc	a,r4
      000A4E F5*20            [12] 2434 	mov	(_heap_report_sloc5_1_0 + 1),a
      000A50 8D*21            [24] 2435 	mov	(_heap_report_sloc5_1_0 + 2),r5
      000A52 85*1F 82         [24] 2436 	mov	dpl,_heap_report_sloc5_1_0
      000A55 85*20 83         [24] 2437 	mov	dph,(_heap_report_sloc5_1_0 + 1)
      000A58 85*21 F0         [24] 2438 	mov	b,(_heap_report_sloc5_1_0 + 2)
      000A5B 12r00r00         [24] 2439 	lcall	__gptrget
      000A5E FE               [12] 2440 	mov	r6,a
      000A5F A3               [24] 2441 	inc	dptr
      000A60 12r00r00         [24] 2442 	lcall	__gptrget
      000A63 FF               [12] 2443 	mov	r7,a
      000A64 74 02            [12] 2444 	mov	a,#0x02
      000A66 2B               [12] 2445 	add	a,r3
      000A67 FB               [12] 2446 	mov	r3,a
      000A68 E4               [12] 2447 	clr	a
      000A69 3C               [12] 2448 	addc	a,r4
      000A6A FC               [12] 2449 	mov	r4,a
      000A6B 8B 82            [24] 2450 	mov	dpl,r3
      000A6D 8C 83            [24] 2451 	mov	dph,r4
      000A6F 8D F0            [24] 2452 	mov	b,r5
      000A71 12r00r00         [24] 2453 	lcall	__gptrget
      000A74 F5*18            [12] 2454 	mov	_heap_report_sloc2_1_0,a
      000A76 A3               [24] 2455 	inc	dptr
      000A77 12r00r00         [24] 2456 	lcall	__gptrget
      000A7A F5*19            [12] 2457 	mov	(_heap_report_sloc2_1_0 + 1),a
      000A7C EE               [12] 2458 	mov	a,r6
      000A7D C3               [12] 2459 	clr	c
      000A7E 95*18            [12] 2460 	subb	a,_heap_report_sloc2_1_0
      000A80 F5*1A            [12] 2461 	mov	_heap_report_sloc3_1_0,a
      000A82 EF               [12] 2462 	mov	a,r7
      000A83 95*19            [12] 2463 	subb	a,(_heap_report_sloc2_1_0 + 1)
      000A85 F5*1B            [12] 2464 	mov	(_heap_report_sloc3_1_0 + 1),a
                                   2465 ;	src/main.c:305: curr->buffer + curr->size, 
      000A87 EE               [12] 2466 	mov	a,r6
      000A88 29               [12] 2467 	add	a,r1
      000A89 F8               [12] 2468 	mov	r0,a
      000A8A EF               [12] 2469 	mov	a,r7
      000A8B 3A               [12] 2470 	addc	a,r2
      000A8C FC               [12] 2471 	mov	r4,a
      000A8D 7D 00            [12] 2472 	mov	r5,#0x00
                                   2473 ;	src/main.c:304: curr->buffer, 
      000A8F 7B 00            [12] 2474 	mov	r3,#0x00
                                   2475 ;	src/main.c:302: printf("\r\nbuffer_%d starts @ %p, ends @%p, size %zu, contains %zu alphabet chars, has %zu chars remaining", 
      000A91 C0*1A            [24] 2476 	push	_heap_report_sloc3_1_0
      000A93 C0*1B            [24] 2477 	push	(_heap_report_sloc3_1_0 + 1)
      000A95 C0*18            [24] 2478 	push	_heap_report_sloc2_1_0
      000A97 C0*19            [24] 2479 	push	(_heap_report_sloc2_1_0 + 1)
      000A99 C0 06            [24] 2480 	push	ar6
      000A9B C0 07            [24] 2481 	push	ar7
      000A9D C0 00            [24] 2482 	push	ar0
      000A9F C0 04            [24] 2483 	push	ar4
      000AA1 C0 05            [24] 2484 	push	ar5
      000AA3 C0 01            [24] 2485 	push	ar1
      000AA5 C0 02            [24] 2486 	push	ar2
      000AA7 C0 03            [24] 2487 	push	ar3
      000AA9 C0*1C            [24] 2488 	push	_heap_report_sloc4_1_0
      000AAB C0*1D            [24] 2489 	push	(_heap_report_sloc4_1_0 + 1)
      000AAD 74rA7            [12] 2490 	mov	a,#___str_11
      000AAF C0 E0            [24] 2491 	push	acc
      000AB1 74s01            [12] 2492 	mov	a,#(___str_11 >> 8)
      000AB3 C0 E0            [24] 2493 	push	acc
      000AB5 74 80            [12] 2494 	mov	a,#0x80
      000AB7 C0 E0            [24] 2495 	push	acc
      000AB9 12r00r00         [24] 2496 	lcall	_printf
      000ABC E5 81            [12] 2497 	mov	a,sp
      000ABE 24 EF            [12] 2498 	add	a,#0xef
      000AC0 F5 81            [12] 2499 	mov	sp,a
                                   2500 ;	src/main.c:309: total_heap_sz += curr->size; 
      000AC2 85*1F 82         [24] 2501 	mov	dpl,_heap_report_sloc5_1_0
      000AC5 85*20 83         [24] 2502 	mov	dph,(_heap_report_sloc5_1_0 + 1)
      000AC8 85*21 F0         [24] 2503 	mov	b,(_heap_report_sloc5_1_0 + 2)
      000ACB 12r00r00         [24] 2504 	lcall	__gptrget
      000ACE FE               [12] 2505 	mov	r6,a
      000ACF A3               [24] 2506 	inc	dptr
      000AD0 12r00r00         [24] 2507 	lcall	__gptrget
      000AD3 FF               [12] 2508 	mov	r7,a
      000AD4 90r00r2B         [24] 2509 	mov	dptr,#_heap_report_total_heap_sz_65537_129
      000AD7 E0               [24] 2510 	movx	a,@dptr
      000AD8 FC               [12] 2511 	mov	r4,a
      000AD9 A3               [24] 2512 	inc	dptr
      000ADA E0               [24] 2513 	movx	a,@dptr
      000ADB FD               [12] 2514 	mov	r5,a
      000ADC 90r00r2B         [24] 2515 	mov	dptr,#_heap_report_total_heap_sz_65537_129
      000ADF EE               [12] 2516 	mov	a,r6
      000AE0 2C               [12] 2517 	add	a,r4
      000AE1 F0               [24] 2518 	movx	@dptr,a
      000AE2 EF               [12] 2519 	mov	a,r7
      000AE3 3D               [12] 2520 	addc	a,r5
      000AE4 A3               [24] 2521 	inc	dptr
      000AE5 F0               [24] 2522 	movx	@dptr,a
      000AE6                       2523 00105$:
                                   2524 ;	src/main.c:311: i++;
      000AE6 05*1C            [12] 2525 	inc	_heap_report_sloc4_1_0
      000AE8 E4               [12] 2526 	clr	a
      000AE9 B5*1C 02         [24] 2527 	cjne	a,_heap_report_sloc4_1_0,00144$
      000AEC 05*1D            [12] 2528 	inc	(_heap_report_sloc4_1_0 + 1)
      000AEE                       2529 00144$:
                                   2530 ;	src/main.c:312: curr = curr->next;
      000AEE 90r00r2D         [24] 2531 	mov	dptr,#_heap_report_curr_65538_133
      000AF1 E0               [24] 2532 	movx	a,@dptr
      000AF2 FD               [12] 2533 	mov	r5,a
      000AF3 A3               [24] 2534 	inc	dptr
      000AF4 E0               [24] 2535 	movx	a,@dptr
      000AF5 FE               [12] 2536 	mov	r6,a
      000AF6 A3               [24] 2537 	inc	dptr
      000AF7 E0               [24] 2538 	movx	a,@dptr
      000AF8 FF               [12] 2539 	mov	r7,a
      000AF9 74 08            [12] 2540 	mov	a,#0x08
      000AFB 2D               [12] 2541 	add	a,r5
      000AFC FD               [12] 2542 	mov	r5,a
      000AFD E4               [12] 2543 	clr	a
      000AFE 3E               [12] 2544 	addc	a,r6
      000AFF FE               [12] 2545 	mov	r6,a
      000B00 8D 82            [24] 2546 	mov	dpl,r5
      000B02 8E 83            [24] 2547 	mov	dph,r6
      000B04 8F F0            [24] 2548 	mov	b,r7
      000B06 12r00r00         [24] 2549 	lcall	__gptrget
      000B09 FD               [12] 2550 	mov	r5,a
      000B0A A3               [24] 2551 	inc	dptr
      000B0B 12r00r00         [24] 2552 	lcall	__gptrget
      000B0E FE               [12] 2553 	mov	r6,a
      000B0F A3               [24] 2554 	inc	dptr
      000B10 12r00r00         [24] 2555 	lcall	__gptrget
      000B13 FF               [12] 2556 	mov	r7,a
      000B14 90r00r2D         [24] 2557 	mov	dptr,#_heap_report_curr_65538_133
      000B17 ED               [12] 2558 	mov	a,r5
      000B18 F0               [24] 2559 	movx	@dptr,a
      000B19 EE               [12] 2560 	mov	a,r6
      000B1A A3               [24] 2561 	inc	dptr
      000B1B F0               [24] 2562 	movx	@dptr,a
      000B1C EF               [12] 2563 	mov	a,r7
      000B1D A3               [24] 2564 	inc	dptr
      000B1E F0               [24] 2565 	movx	@dptr,a
      000B1F 02r0Ar20         [24] 2566 	ljmp	00106$
      000B22                       2567 00108$:
                                   2568 ;	src/main.c:314: printf("\r\nHeap starts @ %p, ends @ %p, size: %zu", __sdcc_heap, __sdcc_heap + HEAP_SIZE, total_heap_sz);
      000B22 90r00r2B         [24] 2569 	mov	dptr,#_heap_report_total_heap_sz_65537_129
      000B25 E0               [24] 2570 	movx	a,@dptr
      000B26 C0 E0            [24] 2571 	push	acc
      000B28 A3               [24] 2572 	inc	dptr
      000B29 E0               [24] 2573 	movx	a,@dptr
      000B2A C0 E0            [24] 2574 	push	acc
      000B2C 74r00            [12] 2575 	mov	a,#(___sdcc_heap + 0x2000)
      000B2E C0 E0            [24] 2576 	push	acc
      000B30 74s20            [12] 2577 	mov	a,#((___sdcc_heap + 0x2000) >> 8)
      000B32 C0 E0            [24] 2578 	push	acc
      000B34 E4               [12] 2579 	clr	a
      000B35 C0 E0            [24] 2580 	push	acc
      000B37 74r00            [12] 2581 	mov	a,#___sdcc_heap
      000B39 C0 E0            [24] 2582 	push	acc
      000B3B 74s00            [12] 2583 	mov	a,#(___sdcc_heap >> 8)
      000B3D C0 E0            [24] 2584 	push	acc
      000B3F E4               [12] 2585 	clr	a
      000B40 C0 E0            [24] 2586 	push	acc
      000B42 74r3A            [12] 2587 	mov	a,#___str_7
      000B44 C0 E0            [24] 2588 	push	acc
      000B46 74s01            [12] 2589 	mov	a,#(___str_7 >> 8)
      000B48 C0 E0            [24] 2590 	push	acc
      000B4A 74 80            [12] 2591 	mov	a,#0x80
      000B4C C0 E0            [24] 2592 	push	acc
      000B4E 12r00r00         [24] 2593 	lcall	_printf
      000B51 E5 81            [12] 2594 	mov	a,sp
      000B53 24 F5            [12] 2595 	add	a,#0xf5
      000B55 F5 81            [12] 2596 	mov	sp,a
                                   2597 ;	src/main.c:315: printf("\r\n");
      000B57 74r09            [12] 2598 	mov	a,#___str_12
      000B59 C0 E0            [24] 2599 	push	acc
      000B5B 74s02            [12] 2600 	mov	a,#(___str_12 >> 8)
      000B5D C0 E0            [24] 2601 	push	acc
      000B5F 74 80            [12] 2602 	mov	a,#0x80
      000B61 C0 E0            [24] 2603 	push	acc
      000B63 12r00r00         [24] 2604 	lcall	_printf
      000B66 15 81            [12] 2605 	dec	sp
      000B68 15 81            [12] 2606 	dec	sp
      000B6A 15 81            [12] 2607 	dec	sp
                                   2608 ;	src/main.c:316: }
      000B6C 22               [24] 2609 	ret
                                   2610 ;------------------------------------------------------------
                                   2611 ;Allocation info for local variables in function 'get_user_buffer_sz'
                                   2612 ;------------------------------------------------------------
                                   2613 ;maximum_sz                Allocated with name '_get_user_buffer_sz_maximum_sz_65536_136'
                                   2614 ;user_buffer_size          Allocated with name '_get_user_buffer_sz_user_buffer_size_65536_137'
                                   2615 ;------------------------------------------------------------
                                   2616 ;	src/main.c:320: size_t get_user_buffer_sz(size_t maximum_sz)
                                   2617 ;	-----------------------------------------
                                   2618 ;	 function get_user_buffer_sz
                                   2619 ;	-----------------------------------------
      000B6D                       2620 _get_user_buffer_sz:
      000B6D AF 83            [24] 2621 	mov	r7,dph
      000B6F E5 82            [12] 2622 	mov	a,dpl
      000B71 90r00r30         [24] 2623 	mov	dptr,#_get_user_buffer_sz_maximum_sz_65536_136
      000B74 F0               [24] 2624 	movx	@dptr,a
      000B75 EF               [12] 2625 	mov	a,r7
      000B76 A3               [24] 2626 	inc	dptr
      000B77 F0               [24] 2627 	movx	@dptr,a
                                   2628 ;	src/main.c:323: while(true) {
      000B78 90r00r30         [24] 2629 	mov	dptr,#_get_user_buffer_sz_maximum_sz_65536_136
      000B7B E0               [24] 2630 	movx	a,@dptr
      000B7C FE               [12] 2631 	mov	r6,a
      000B7D A3               [24] 2632 	inc	dptr
      000B7E E0               [24] 2633 	movx	a,@dptr
      000B7F FF               [12] 2634 	mov	r7,a
      000B80                       2635 00111$:
                                   2636 ;	src/main.c:324: printf("\r\nPlease enter a valid buffer size that is divisible by 32 [64,%zu]: ", maximum_sz);
      000B80 C0 07            [24] 2637 	push	ar7
      000B82 C0 06            [24] 2638 	push	ar6
      000B84 C0 06            [24] 2639 	push	ar6
      000B86 C0 07            [24] 2640 	push	ar7
      000B88 74r0C            [12] 2641 	mov	a,#___str_13
      000B8A C0 E0            [24] 2642 	push	acc
      000B8C 74s02            [12] 2643 	mov	a,#(___str_13 >> 8)
      000B8E C0 E0            [24] 2644 	push	acc
      000B90 74 80            [12] 2645 	mov	a,#0x80
      000B92 C0 E0            [24] 2646 	push	acc
      000B94 12r00r00         [24] 2647 	lcall	_printf
      000B97 E5 81            [12] 2648 	mov	a,sp
      000B99 24 FB            [12] 2649 	add	a,#0xfb
      000B9B F5 81            [12] 2650 	mov	sp,a
                                   2651 ;	src/main.c:325: get_string();
      000B9D 12r00r00         [24] 2652 	lcall	_get_string
                                   2653 ;	src/main.c:326: user_buffer_size = (size_t) atoi(get_input_buffer()); //TODO: replace with own implementation of atoi that respects the size_t
      000BA0 12r00r00         [24] 2654 	lcall	_get_input_buffer
      000BA3 12r00r00         [24] 2655 	lcall	_atoi
      000BA6 AC 82            [24] 2656 	mov	r4,dpl
      000BA8 AD 83            [24] 2657 	mov	r5,dph
      000BAA D0 06            [24] 2658 	pop	ar6
      000BAC D0 07            [24] 2659 	pop	ar7
                                   2660 ;	src/main.c:327: if (user_buffer_size > maximum_sz)
      000BAE C3               [12] 2661 	clr	c
      000BAF EE               [12] 2662 	mov	a,r6
      000BB0 9C               [12] 2663 	subb	a,r4
      000BB1 EF               [12] 2664 	mov	a,r7
      000BB2 9D               [12] 2665 	subb	a,r5
      000BB3 50 1F            [24] 2666 	jnc	00108$
                                   2667 ;	src/main.c:329: printf("\r\n User buffer size larger than maximum");
      000BB5 C0 07            [24] 2668 	push	ar7
      000BB7 C0 06            [24] 2669 	push	ar6
      000BB9 74r52            [12] 2670 	mov	a,#___str_14
      000BBB C0 E0            [24] 2671 	push	acc
      000BBD 74s02            [12] 2672 	mov	a,#(___str_14 >> 8)
      000BBF C0 E0            [24] 2673 	push	acc
      000BC1 74 80            [12] 2674 	mov	a,#0x80
      000BC3 C0 E0            [24] 2675 	push	acc
      000BC5 12r00r00         [24] 2676 	lcall	_printf
      000BC8 15 81            [12] 2677 	dec	sp
      000BCA 15 81            [12] 2678 	dec	sp
      000BCC 15 81            [12] 2679 	dec	sp
      000BCE D0 06            [24] 2680 	pop	ar6
      000BD0 D0 07            [24] 2681 	pop	ar7
      000BD2 80 AC            [24] 2682 	sjmp	00111$
      000BD4                       2683 00108$:
                                   2684 ;	src/main.c:331: else if (user_buffer_size < USER_BUFFER_MIN)
      000BD4 C3               [12] 2685 	clr	c
      000BD5 EC               [12] 2686 	mov	a,r4
      000BD6 94 40            [12] 2687 	subb	a,#0x40
      000BD8 ED               [12] 2688 	mov	a,r5
      000BD9 94 00            [12] 2689 	subb	a,#0x00
      000BDB 50 20            [24] 2690 	jnc	00105$
                                   2691 ;	src/main.c:333: printf("\r\n User buffer size too small or error in conversion");
      000BDD C0 07            [24] 2692 	push	ar7
      000BDF C0 06            [24] 2693 	push	ar6
      000BE1 74r7A            [12] 2694 	mov	a,#___str_15
      000BE3 C0 E0            [24] 2695 	push	acc
      000BE5 74s02            [12] 2696 	mov	a,#(___str_15 >> 8)
      000BE7 C0 E0            [24] 2697 	push	acc
      000BE9 74 80            [12] 2698 	mov	a,#0x80
      000BEB C0 E0            [24] 2699 	push	acc
      000BED 12r00r00         [24] 2700 	lcall	_printf
      000BF0 15 81            [12] 2701 	dec	sp
      000BF2 15 81            [12] 2702 	dec	sp
      000BF4 15 81            [12] 2703 	dec	sp
      000BF6 D0 06            [24] 2704 	pop	ar6
      000BF8 D0 07            [24] 2705 	pop	ar7
      000BFA 02r0Br80         [24] 2706 	ljmp	00111$
      000BFD                       2707 00105$:
                                   2708 ;	src/main.c:335: else if (MODULE_32(user_buffer_size) != 0)
      000BFD EC               [12] 2709 	mov	a,r4
      000BFE 54 1F            [12] 2710 	anl	a,#0x1f
      000C00 60 20            [24] 2711 	jz	00102$
                                   2712 ;	src/main.c:337: printf("\r\n User buffer size is not divisible by 32");
      000C02 C0 07            [24] 2713 	push	ar7
      000C04 C0 06            [24] 2714 	push	ar6
      000C06 74rAF            [12] 2715 	mov	a,#___str_16
      000C08 C0 E0            [24] 2716 	push	acc
      000C0A 74s02            [12] 2717 	mov	a,#(___str_16 >> 8)
      000C0C C0 E0            [24] 2718 	push	acc
      000C0E 74 80            [12] 2719 	mov	a,#0x80
      000C10 C0 E0            [24] 2720 	push	acc
      000C12 12r00r00         [24] 2721 	lcall	_printf
      000C15 15 81            [12] 2722 	dec	sp
      000C17 15 81            [12] 2723 	dec	sp
      000C19 15 81            [12] 2724 	dec	sp
      000C1B D0 06            [24] 2725 	pop	ar6
      000C1D D0 07            [24] 2726 	pop	ar7
      000C1F 02r0Br80         [24] 2727 	ljmp	00111$
      000C22                       2728 00102$:
                                   2729 ;	src/main.c:341: return user_buffer_size;
      000C22 8C 82            [24] 2730 	mov	dpl,r4
      000C24 8D 83            [24] 2731 	mov	dph,r5
                                   2732 ;	src/main.c:344: }
      000C26 22               [24] 2733 	ret
                                   2734 ;------------------------------------------------------------
                                   2735 ;Allocation info for local variables in function 'free_all_buffers'
                                   2736 ;------------------------------------------------------------
                                   2737 ;i                         Allocated with name '_free_all_buffers_i_131072_144'
                                   2738 ;------------------------------------------------------------
                                   2739 ;	src/main.c:347: void free_all_buffers()
                                   2740 ;	-----------------------------------------
                                   2741 ;	 function free_all_buffers
                                   2742 ;	-----------------------------------------
      000C27                       2743 _free_all_buffers:
                                   2744 ;	src/main.c:349: printf("\r\n Freeing ALL BUFFERS");
      000C27 74rDA            [12] 2745 	mov	a,#___str_17
      000C29 C0 E0            [24] 2746 	push	acc
      000C2B 74s02            [12] 2747 	mov	a,#(___str_17 >> 8)
      000C2D C0 E0            [24] 2748 	push	acc
      000C2F 74 80            [12] 2749 	mov	a,#0x80
      000C31 C0 E0            [24] 2750 	push	acc
      000C33 12r00r00         [24] 2751 	lcall	_printf
      000C36 15 81            [12] 2752 	dec	sp
      000C38 15 81            [12] 2753 	dec	sp
      000C3A 15 81            [12] 2754 	dec	sp
                                   2755 ;	src/main.c:350: for(int i = 0; i < BUFFER_ALWAYS_HELD_COUNT; i++)
      000C3C 7E 00            [12] 2756 	mov	r6,#0x00
      000C3E 7F 00            [12] 2757 	mov	r7,#0x00
      000C40                       2758 00105$:
      000C40 C3               [12] 2759 	clr	c
      000C41 EE               [12] 2760 	mov	a,r6
      000C42 94 02            [12] 2761 	subb	a,#0x02
      000C44 EF               [12] 2762 	mov	a,r7
      000C45 64 80            [12] 2763 	xrl	a,#0x80
      000C47 94 80            [12] 2764 	subb	a,#0x80
      000C49 40 03            [24] 2765 	jc	00122$
      000C4B 02r0CrD1         [24] 2766 	ljmp	00103$
      000C4E                       2767 00122$:
                                   2768 ;	src/main.c:352: if(static_buffers[i].buffer != NULL)
      000C4E 90r00r00         [24] 2769 	mov	dptr,#__mulint_PARM_2
      000C51 EE               [12] 2770 	mov	a,r6
      000C52 F0               [24] 2771 	movx	@dptr,a
      000C53 EF               [12] 2772 	mov	a,r7
      000C54 A3               [24] 2773 	inc	dptr
      000C55 F0               [24] 2774 	movx	@dptr,a
      000C56 90 00 0B         [24] 2775 	mov	dptr,#0x000b
      000C59 C0 07            [24] 2776 	push	ar7
      000C5B C0 06            [24] 2777 	push	ar6
      000C5D 12r00r00         [24] 2778 	lcall	__mulint
      000C60 AC 82            [24] 2779 	mov	r4,dpl
      000C62 AD 83            [24] 2780 	mov	r5,dph
      000C64 D0 06            [24] 2781 	pop	ar6
      000C66 D0 07            [24] 2782 	pop	ar7
      000C68 EC               [12] 2783 	mov	a,r4
      000C69 24r00            [12] 2784 	add	a,#_static_buffers
      000C6B F5 82            [12] 2785 	mov	dpl,a
      000C6D ED               [12] 2786 	mov	a,r5
      000C6E 34s00            [12] 2787 	addc	a,#(_static_buffers >> 8)
      000C70 F5 83            [12] 2788 	mov	dph,a
      000C72 E0               [24] 2789 	movx	a,@dptr
      000C73 FC               [12] 2790 	mov	r4,a
      000C74 A3               [24] 2791 	inc	dptr
      000C75 E0               [24] 2792 	movx	a,@dptr
      000C76 FD               [12] 2793 	mov	r5,a
      000C77 4C               [12] 2794 	orl	a,r4
      000C78 60 13            [24] 2795 	jz	00102$
                                   2796 ;	src/main.c:354: free(static_buffers[i].buffer);
      000C7A 7B 00            [12] 2797 	mov	r3,#0x00
      000C7C 8C 82            [24] 2798 	mov	dpl,r4
      000C7E 8D 83            [24] 2799 	mov	dph,r5
      000C80 8B F0            [24] 2800 	mov	b,r3
      000C82 C0 07            [24] 2801 	push	ar7
      000C84 C0 06            [24] 2802 	push	ar6
      000C86 12r00r00         [24] 2803 	lcall	_free
      000C89 D0 06            [24] 2804 	pop	ar6
      000C8B D0 07            [24] 2805 	pop	ar7
      000C8D                       2806 00102$:
                                   2807 ;	src/main.c:356: static_buffers[i].buffer = NULL;
      000C8D 90r00r00         [24] 2808 	mov	dptr,#__mulint_PARM_2
      000C90 EE               [12] 2809 	mov	a,r6
      000C91 F0               [24] 2810 	movx	@dptr,a
      000C92 EF               [12] 2811 	mov	a,r7
      000C93 A3               [24] 2812 	inc	dptr
      000C94 F0               [24] 2813 	movx	@dptr,a
      000C95 90 00 0B         [24] 2814 	mov	dptr,#0x000b
      000C98 C0 07            [24] 2815 	push	ar7
      000C9A C0 06            [24] 2816 	push	ar6
      000C9C 12r00r00         [24] 2817 	lcall	__mulint
      000C9F AC 82            [24] 2818 	mov	r4,dpl
      000CA1 AD 83            [24] 2819 	mov	r5,dph
      000CA3 D0 06            [24] 2820 	pop	ar6
      000CA5 D0 07            [24] 2821 	pop	ar7
      000CA7 EC               [12] 2822 	mov	a,r4
      000CA8 24r00            [12] 2823 	add	a,#_static_buffers
      000CAA F5 82            [12] 2824 	mov	dpl,a
      000CAC ED               [12] 2825 	mov	a,r5
      000CAD 34s00            [12] 2826 	addc	a,#(_static_buffers >> 8)
      000CAF F5 83            [12] 2827 	mov	dph,a
      000CB1 E4               [12] 2828 	clr	a
      000CB2 F0               [24] 2829 	movx	@dptr,a
      000CB3 A3               [24] 2830 	inc	dptr
      000CB4 F0               [24] 2831 	movx	@dptr,a
                                   2832 ;	src/main.c:357: static_buffers[i].size = 0; 
      000CB5 EC               [12] 2833 	mov	a,r4
      000CB6 24r00            [12] 2834 	add	a,#_static_buffers
      000CB8 FC               [12] 2835 	mov	r4,a
      000CB9 ED               [12] 2836 	mov	a,r5
      000CBA 34s00            [12] 2837 	addc	a,#(_static_buffers >> 8)
      000CBC FD               [12] 2838 	mov	r5,a
      000CBD 8C 82            [24] 2839 	mov	dpl,r4
      000CBF 8D 83            [24] 2840 	mov	dph,r5
      000CC1 A3               [24] 2841 	inc	dptr
      000CC2 A3               [24] 2842 	inc	dptr
      000CC3 A3               [24] 2843 	inc	dptr
      000CC4 A3               [24] 2844 	inc	dptr
      000CC5 E4               [12] 2845 	clr	a
      000CC6 F0               [24] 2846 	movx	@dptr,a
      000CC7 A3               [24] 2847 	inc	dptr
      000CC8 F0               [24] 2848 	movx	@dptr,a
                                   2849 ;	src/main.c:350: for(int i = 0; i < BUFFER_ALWAYS_HELD_COUNT; i++)
      000CC9 0E               [12] 2850 	inc	r6
      000CCA BE 00 01         [24] 2851 	cjne	r6,#0x00,00124$
      000CCD 0F               [12] 2852 	inc	r7
      000CCE                       2853 00124$:
      000CCE 02r0Cr40         [24] 2854 	ljmp	00105$
      000CD1                       2855 00103$:
                                   2856 ;	src/main.c:359: free_all_elems_from_list(&dynamic_buffers_list); 
      000CD1 90r00r00         [24] 2857 	mov	dptr,#_dynamic_buffers_list
      000CD4 75 F0 00         [24] 2858 	mov	b,#0x00
                                   2859 ;	src/main.c:360: }
      000CD7 02r00r00         [24] 2860 	ljmp	_free_all_elems_from_list
                                   2861 ;------------------------------------------------------------
                                   2862 ;Allocation info for local variables in function 'qmark_command_handler'
                                   2863 ;------------------------------------------------------------
                                   2864 ;sloc0                     Allocated with name '_qmark_command_handler_sloc0_1_0'
                                   2865 ;sloc1                     Allocated with name '_qmark_command_handler_sloc1_1_0'
                                   2866 ;chars_received_since_last_qmark Allocated with name '_qmark_command_handler_chars_received_since_last_qmark_65537_148'
                                   2867 ;curr_output_char          Allocated with name '_qmark_command_handler_curr_output_char_65538_149'
                                   2868 ;i                         Allocated with name '_qmark_command_handler_i_131074_150'
                                   2869 ;curr_buffer_char          Allocated with name '_qmark_command_handler_curr_buffer_char_196610_151'
                                   2870 ;curr_char                 Allocated with name '_qmark_command_handler_curr_char_196610_151'
                                   2871 ;------------------------------------------------------------
                                   2872 ;	src/main.c:364: void qmark_command_handler()
                                   2873 ;	-----------------------------------------
                                   2874 ;	 function qmark_command_handler
                                   2875 ;	-----------------------------------------
      000CDA                       2876 _qmark_command_handler:
                                   2877 ;	src/main.c:366: heap_report();
      000CDA 12r08rFA         [24] 2878 	lcall	_heap_report
                                   2879 ;	src/main.c:367: size_t chars_received_since_last_qmark = get_char_count();
      000CDD 12r00r00         [24] 2880 	lcall	_get_char_count
      000CE0 AE 82            [24] 2881 	mov	r6,dpl
      000CE2 AF 83            [24] 2882 	mov	r7,dph
                                   2883 ;	src/main.c:368: reset_char_count();
      000CE4 C0 07            [24] 2884 	push	ar7
      000CE6 C0 06            [24] 2885 	push	ar6
      000CE8 12r00r00         [24] 2886 	lcall	_reset_char_count
      000CEB D0 06            [24] 2887 	pop	ar6
      000CED D0 07            [24] 2888 	pop	ar7
                                   2889 ;	src/main.c:369: printf("\r\n Received %zu chars since last invocation of ?", chars_received_since_last_qmark);
      000CEF C0 06            [24] 2890 	push	ar6
      000CF1 C0 07            [24] 2891 	push	ar7
      000CF3 74rF1            [12] 2892 	mov	a,#___str_18
      000CF5 C0 E0            [24] 2893 	push	acc
      000CF7 74s02            [12] 2894 	mov	a,#(___str_18 >> 8)
      000CF9 C0 E0            [24] 2895 	push	acc
      000CFB 74 80            [12] 2896 	mov	a,#0x80
      000CFD C0 E0            [24] 2897 	push	acc
      000CFF 12r00r00         [24] 2898 	lcall	_printf
      000D02 E5 81            [12] 2899 	mov	a,sp
      000D04 24 FB            [12] 2900 	add	a,#0xfb
      000D06 F5 81            [12] 2901 	mov	sp,a
                                   2902 ;	src/main.c:370: size_t curr_output_char = 0;
      000D08 90r00r32         [24] 2903 	mov	dptr,#_qmark_command_handler_curr_output_char_65538_149
      000D0B E4               [12] 2904 	clr	a
      000D0C F0               [24] 2905 	movx	@dptr,a
      000D0D A3               [24] 2906 	inc	dptr
      000D0E F0               [24] 2907 	movx	@dptr,a
                                   2908 ;	src/main.c:372: for(int i = 0; i < 2; i++)
      000D0F 7E 00            [12] 2909 	mov	r6,#0x00
      000D11 7F 00            [12] 2910 	mov	r7,#0x00
      000D13                       2911 00109$:
      000D13 C3               [12] 2912 	clr	c
      000D14 EE               [12] 2913 	mov	a,r6
      000D15 94 02            [12] 2914 	subb	a,#0x02
      000D17 EF               [12] 2915 	mov	a,r7
      000D18 64 80            [12] 2916 	xrl	a,#0x80
      000D1A 94 80            [12] 2917 	subb	a,#0x80
      000D1C 40 03            [24] 2918 	jc	00139$
      000D1E 02r0ErD4         [24] 2919 	ljmp	00107$
      000D21                       2920 00139$:
                                   2921 ;	src/main.c:375: char curr_char = static_buffers[i].buffer[0];
      000D21 90r00r00         [24] 2922 	mov	dptr,#__mulint_PARM_2
      000D24 EE               [12] 2923 	mov	a,r6
      000D25 F0               [24] 2924 	movx	@dptr,a
      000D26 EF               [12] 2925 	mov	a,r7
      000D27 A3               [24] 2926 	inc	dptr
      000D28 F0               [24] 2927 	movx	@dptr,a
      000D29 90 00 0B         [24] 2928 	mov	dptr,#0x000b
      000D2C C0 07            [24] 2929 	push	ar7
      000D2E C0 06            [24] 2930 	push	ar6
      000D30 12r00r00         [24] 2931 	lcall	__mulint
      000D33 AC 82            [24] 2932 	mov	r4,dpl
      000D35 AD 83            [24] 2933 	mov	r5,dph
      000D37 D0 06            [24] 2934 	pop	ar6
      000D39 D0 07            [24] 2935 	pop	ar7
      000D3B EC               [12] 2936 	mov	a,r4
      000D3C 24r00            [12] 2937 	add	a,#_static_buffers
      000D3E F5 82            [12] 2938 	mov	dpl,a
      000D40 ED               [12] 2939 	mov	a,r5
      000D41 34s00            [12] 2940 	addc	a,#(_static_buffers >> 8)
      000D43 F5 83            [12] 2941 	mov	dph,a
      000D45 E0               [24] 2942 	movx	a,@dptr
      000D46 FA               [12] 2943 	mov	r2,a
      000D47 A3               [24] 2944 	inc	dptr
      000D48 E0               [24] 2945 	movx	a,@dptr
      000D49 FB               [12] 2946 	mov	r3,a
      000D4A 8A 82            [24] 2947 	mov	dpl,r2
      000D4C 8B 83            [24] 2948 	mov	dph,r3
      000D4E E0               [24] 2949 	movx	a,@dptr
      000D4F 90r00r34         [24] 2950 	mov	dptr,#_qmark_command_handler_curr_char_196610_151
      000D52 F0               [24] 2951 	movx	@dptr,a
                                   2952 ;	src/main.c:376: while(curr_char != '\0' && curr_buffer_char < static_buffers[i].size)
      000D53 EC               [12] 2953 	mov	a,r4
      000D54 24r00            [12] 2954 	add	a,#_static_buffers
      000D56 FA               [12] 2955 	mov	r2,a
      000D57 ED               [12] 2956 	mov	a,r5
      000D58 34s00            [12] 2957 	addc	a,#(_static_buffers >> 8)
      000D5A FB               [12] 2958 	mov	r3,a
      000D5B 74 04            [12] 2959 	mov	a,#0x04
      000D5D 2A               [12] 2960 	add	a,r2
      000D5E FA               [12] 2961 	mov	r2,a
      000D5F E4               [12] 2962 	clr	a
      000D60 3B               [12] 2963 	addc	a,r3
      000D61 FB               [12] 2964 	mov	r3,a
      000D62 EC               [12] 2965 	mov	a,r4
      000D63 24r00            [12] 2966 	add	a,#_static_buffers
      000D65 FC               [12] 2967 	mov	r4,a
      000D66 ED               [12] 2968 	mov	a,r5
      000D67 34s00            [12] 2969 	addc	a,#(_static_buffers >> 8)
      000D69 FD               [12] 2970 	mov	r5,a
      000D6A 90r00r32         [24] 2971 	mov	dptr,#_qmark_command_handler_curr_output_char_65538_149
      000D6D E0               [24] 2972 	movx	a,@dptr
      000D6E F8               [12] 2973 	mov	r0,a
      000D6F A3               [24] 2974 	inc	dptr
      000D70 E0               [24] 2975 	movx	a,@dptr
      000D71 F9               [12] 2976 	mov	r1,a
      000D72 E4               [12] 2977 	clr	a
      000D73 F5*22            [12] 2978 	mov	_qmark_command_handler_sloc0_1_0,a
      000D75 F5*23            [12] 2979 	mov	(_qmark_command_handler_sloc0_1_0 + 1),a
      000D77                       2980 00104$:
      000D77 90r00r34         [24] 2981 	mov	dptr,#_qmark_command_handler_curr_char_196610_151
      000D7A E0               [24] 2982 	movx	a,@dptr
      000D7B 70 03            [24] 2983 	jnz	00140$
      000D7D 02r0Er47         [24] 2984 	ljmp	00119$
      000D80                       2985 00140$:
      000D80 C0 04            [24] 2986 	push	ar4
      000D82 C0 05            [24] 2987 	push	ar5
      000D84 8A 82            [24] 2988 	mov	dpl,r2
      000D86 8B 83            [24] 2989 	mov	dph,r3
      000D88 E0               [24] 2990 	movx	a,@dptr
      000D89 FC               [12] 2991 	mov	r4,a
      000D8A A3               [24] 2992 	inc	dptr
      000D8B E0               [24] 2993 	movx	a,@dptr
      000D8C FD               [12] 2994 	mov	r5,a
      000D8D C3               [12] 2995 	clr	c
      000D8E E5*22            [12] 2996 	mov	a,_qmark_command_handler_sloc0_1_0
      000D90 9C               [12] 2997 	subb	a,r4
      000D91 E5*23            [12] 2998 	mov	a,(_qmark_command_handler_sloc0_1_0 + 1)
      000D93 9D               [12] 2999 	subb	a,r5
      000D94 D0 05            [24] 3000 	pop	ar5
      000D96 D0 04            [24] 3001 	pop	ar4
      000D98 40 03            [24] 3002 	jc	00141$
      000D9A 02r0Er47         [24] 3003 	ljmp	00119$
      000D9D                       3004 00141$:
                                   3005 ;	src/main.c:378: if (MODULE_32(curr_output_char) == 0)
      000D9D E8               [12] 3006 	mov	a,r0
      000D9E 54 1F            [12] 3007 	anl	a,#0x1f
      000DA0 70 35            [24] 3008 	jnz	00102$
                                   3009 ;	src/main.c:380: printf("\r\n");
      000DA2 C0 07            [24] 3010 	push	ar7
      000DA4 C0 06            [24] 3011 	push	ar6
      000DA6 C0 05            [24] 3012 	push	ar5
      000DA8 C0 04            [24] 3013 	push	ar4
      000DAA C0 03            [24] 3014 	push	ar3
      000DAC C0 02            [24] 3015 	push	ar2
      000DAE C0 01            [24] 3016 	push	ar1
      000DB0 C0 00            [24] 3017 	push	ar0
      000DB2 74r09            [12] 3018 	mov	a,#___str_12
      000DB4 C0 E0            [24] 3019 	push	acc
      000DB6 74s02            [12] 3020 	mov	a,#(___str_12 >> 8)
      000DB8 C0 E0            [24] 3021 	push	acc
      000DBA 74 80            [12] 3022 	mov	a,#0x80
      000DBC C0 E0            [24] 3023 	push	acc
      000DBE 12r00r00         [24] 3024 	lcall	_printf
      000DC1 15 81            [12] 3025 	dec	sp
      000DC3 15 81            [12] 3026 	dec	sp
      000DC5 15 81            [12] 3027 	dec	sp
      000DC7 D0 00            [24] 3028 	pop	ar0
      000DC9 D0 01            [24] 3029 	pop	ar1
      000DCB D0 02            [24] 3030 	pop	ar2
      000DCD D0 03            [24] 3031 	pop	ar3
      000DCF D0 04            [24] 3032 	pop	ar4
      000DD1 D0 05            [24] 3033 	pop	ar5
      000DD3 D0 06            [24] 3034 	pop	ar6
      000DD5 D0 07            [24] 3035 	pop	ar7
      000DD7                       3036 00102$:
                                   3037 ;	src/main.c:382: printf("%c", curr_char);
      000DD7 C0 02            [24] 3038 	push	ar2
      000DD9 C0 03            [24] 3039 	push	ar3
      000DDB 90r00r34         [24] 3040 	mov	dptr,#_qmark_command_handler_curr_char_196610_151
      000DDE E0               [24] 3041 	movx	a,@dptr
      000DDF FB               [12] 3042 	mov	r3,a
      000DE0 7A 00            [12] 3043 	mov	r2,#0x00
      000DE2 C0 07            [24] 3044 	push	ar7
      000DE4 C0 06            [24] 3045 	push	ar6
      000DE6 C0 05            [24] 3046 	push	ar5
      000DE8 C0 04            [24] 3047 	push	ar4
      000DEA C0 03            [24] 3048 	push	ar3
      000DEC C0 02            [24] 3049 	push	ar2
      000DEE C0 01            [24] 3050 	push	ar1
      000DF0 C0 00            [24] 3051 	push	ar0
      000DF2 C0 03            [24] 3052 	push	ar3
      000DF4 C0 02            [24] 3053 	push	ar2
      000DF6 74r22            [12] 3054 	mov	a,#___str_19
      000DF8 C0 E0            [24] 3055 	push	acc
      000DFA 74s03            [12] 3056 	mov	a,#(___str_19 >> 8)
      000DFC C0 E0            [24] 3057 	push	acc
      000DFE 74 80            [12] 3058 	mov	a,#0x80
      000E00 C0 E0            [24] 3059 	push	acc
      000E02 12r00r00         [24] 3060 	lcall	_printf
      000E05 E5 81            [12] 3061 	mov	a,sp
      000E07 24 FB            [12] 3062 	add	a,#0xfb
      000E09 F5 81            [12] 3063 	mov	sp,a
      000E0B D0 00            [24] 3064 	pop	ar0
      000E0D D0 01            [24] 3065 	pop	ar1
      000E0F D0 02            [24] 3066 	pop	ar2
      000E11 D0 03            [24] 3067 	pop	ar3
      000E13 D0 04            [24] 3068 	pop	ar4
      000E15 D0 05            [24] 3069 	pop	ar5
      000E17 D0 06            [24] 3070 	pop	ar6
      000E19 D0 07            [24] 3071 	pop	ar7
                                   3072 ;	src/main.c:383: curr_output_char++;
      000E1B 08               [12] 3073 	inc	r0
      000E1C B8 00 01         [24] 3074 	cjne	r0,#0x00,00144$
      000E1F 09               [12] 3075 	inc	r1
      000E20                       3076 00144$:
                                   3077 ;	src/main.c:384: curr_buffer_char++;
      000E20 05*22            [12] 3078 	inc	_qmark_command_handler_sloc0_1_0
      000E22 E4               [12] 3079 	clr	a
      000E23 B5*22 02         [24] 3080 	cjne	a,_qmark_command_handler_sloc0_1_0,00145$
      000E26 05*23            [12] 3081 	inc	(_qmark_command_handler_sloc0_1_0 + 1)
      000E28                       3082 00145$:
                                   3083 ;	src/main.c:385: curr_char = static_buffers[i].buffer[curr_buffer_char];
      000E28 8C 82            [24] 3084 	mov	dpl,r4
      000E2A 8D 83            [24] 3085 	mov	dph,r5
      000E2C E0               [24] 3086 	movx	a,@dptr
      000E2D FA               [12] 3087 	mov	r2,a
      000E2E A3               [24] 3088 	inc	dptr
      000E2F E0               [24] 3089 	movx	a,@dptr
      000E30 FB               [12] 3090 	mov	r3,a
      000E31 E5*22            [12] 3091 	mov	a,_qmark_command_handler_sloc0_1_0
      000E33 2A               [12] 3092 	add	a,r2
      000E34 F5 82            [12] 3093 	mov	dpl,a
      000E36 E5*23            [12] 3094 	mov	a,(_qmark_command_handler_sloc0_1_0 + 1)
      000E38 3B               [12] 3095 	addc	a,r3
      000E39 F5 83            [12] 3096 	mov	dph,a
      000E3B E0               [24] 3097 	movx	a,@dptr
      000E3C 90r00r34         [24] 3098 	mov	dptr,#_qmark_command_handler_curr_char_196610_151
      000E3F F0               [24] 3099 	movx	@dptr,a
      000E40 D0 03            [24] 3100 	pop	ar3
      000E42 D0 02            [24] 3101 	pop	ar2
      000E44 02r0Dr77         [24] 3102 	ljmp	00104$
      000E47                       3103 00119$:
      000E47 90r00r32         [24] 3104 	mov	dptr,#_qmark_command_handler_curr_output_char_65538_149
      000E4A E8               [12] 3105 	mov	a,r0
      000E4B F0               [24] 3106 	movx	@dptr,a
      000E4C E9               [12] 3107 	mov	a,r1
      000E4D A3               [24] 3108 	inc	dptr
      000E4E F0               [24] 3109 	movx	@dptr,a
                                   3110 ;	src/main.c:388: memset(static_buffers[i].buffer, '\0', static_buffers[i].size);
      000E4F 90r00r00         [24] 3111 	mov	dptr,#__mulint_PARM_2
      000E52 EE               [12] 3112 	mov	a,r6
      000E53 F0               [24] 3113 	movx	@dptr,a
      000E54 EF               [12] 3114 	mov	a,r7
      000E55 A3               [24] 3115 	inc	dptr
      000E56 F0               [24] 3116 	movx	@dptr,a
      000E57 90 00 0B         [24] 3117 	mov	dptr,#0x000b
      000E5A C0 07            [24] 3118 	push	ar7
      000E5C C0 06            [24] 3119 	push	ar6
      000E5E 12r00r00         [24] 3120 	lcall	__mulint
      000E61 AC 82            [24] 3121 	mov	r4,dpl
      000E63 AD 83            [24] 3122 	mov	r5,dph
      000E65 EC               [12] 3123 	mov	a,r4
      000E66 24r00            [12] 3124 	add	a,#_static_buffers
      000E68 F5 82            [12] 3125 	mov	dpl,a
      000E6A ED               [12] 3126 	mov	a,r5
      000E6B 34s00            [12] 3127 	addc	a,#(_static_buffers >> 8)
      000E6D F5 83            [12] 3128 	mov	dph,a
      000E6F E0               [24] 3129 	movx	a,@dptr
      000E70 FA               [12] 3130 	mov	r2,a
      000E71 A3               [24] 3131 	inc	dptr
      000E72 E0               [24] 3132 	movx	a,@dptr
      000E73 FB               [12] 3133 	mov	r3,a
      000E74 8A*24            [24] 3134 	mov	_qmark_command_handler_sloc1_1_0,r2
      000E76 8B*25            [24] 3135 	mov	(_qmark_command_handler_sloc1_1_0 + 1),r3
      000E78 75*26 00         [24] 3136 	mov	(_qmark_command_handler_sloc1_1_0 + 2),#0x00
      000E7B EC               [12] 3137 	mov	a,r4
      000E7C 24r00            [12] 3138 	add	a,#_static_buffers
      000E7E FC               [12] 3139 	mov	r4,a
      000E7F ED               [12] 3140 	mov	a,r5
      000E80 34s00            [12] 3141 	addc	a,#(_static_buffers >> 8)
      000E82 FD               [12] 3142 	mov	r5,a
      000E83 8C 82            [24] 3143 	mov	dpl,r4
      000E85 8D 83            [24] 3144 	mov	dph,r5
      000E87 A3               [24] 3145 	inc	dptr
      000E88 A3               [24] 3146 	inc	dptr
      000E89 A3               [24] 3147 	inc	dptr
      000E8A A3               [24] 3148 	inc	dptr
      000E8B E0               [24] 3149 	movx	a,@dptr
      000E8C F8               [12] 3150 	mov	r0,a
      000E8D A3               [24] 3151 	inc	dptr
      000E8E E0               [24] 3152 	movx	a,@dptr
      000E8F FB               [12] 3153 	mov	r3,a
      000E90 90r00r00         [24] 3154 	mov	dptr,#_memset_PARM_2
      000E93 E4               [12] 3155 	clr	a
      000E94 F0               [24] 3156 	movx	@dptr,a
      000E95 90r00r00         [24] 3157 	mov	dptr,#_memset_PARM_3
      000E98 E8               [12] 3158 	mov	a,r0
      000E99 F0               [24] 3159 	movx	@dptr,a
      000E9A EB               [12] 3160 	mov	a,r3
      000E9B A3               [24] 3161 	inc	dptr
      000E9C F0               [24] 3162 	movx	@dptr,a
      000E9D 85*24 82         [24] 3163 	mov	dpl,_qmark_command_handler_sloc1_1_0
      000EA0 85*25 83         [24] 3164 	mov	dph,(_qmark_command_handler_sloc1_1_0 + 1)
      000EA3 85*26 F0         [24] 3165 	mov	b,(_qmark_command_handler_sloc1_1_0 + 2)
      000EA6 C0 05            [24] 3166 	push	ar5
      000EA8 C0 04            [24] 3167 	push	ar4
      000EAA 12r00r00         [24] 3168 	lcall	_memset
      000EAD D0 04            [24] 3169 	pop	ar4
      000EAF D0 05            [24] 3170 	pop	ar5
      000EB1 D0 06            [24] 3171 	pop	ar6
      000EB3 D0 07            [24] 3172 	pop	ar7
                                   3173 ;	src/main.c:389: static_buffers[i].alphabet_chars = 0;
      000EB5 8C 82            [24] 3174 	mov	dpl,r4
      000EB7 8D 83            [24] 3175 	mov	dph,r5
      000EB9 A3               [24] 3176 	inc	dptr
      000EBA A3               [24] 3177 	inc	dptr
      000EBB E4               [12] 3178 	clr	a
      000EBC F0               [24] 3179 	movx	@dptr,a
      000EBD A3               [24] 3180 	inc	dptr
      000EBE F0               [24] 3181 	movx	@dptr,a
                                   3182 ;	src/main.c:390: static_buffers[i].curr_available_char = 0;
      000EBF 74 06            [12] 3183 	mov	a,#0x06
      000EC1 2C               [12] 3184 	add	a,r4
      000EC2 F5 82            [12] 3185 	mov	dpl,a
      000EC4 E4               [12] 3186 	clr	a
      000EC5 3D               [12] 3187 	addc	a,r5
      000EC6 F5 83            [12] 3188 	mov	dph,a
      000EC8 E4               [12] 3189 	clr	a
      000EC9 F0               [24] 3190 	movx	@dptr,a
      000ECA A3               [24] 3191 	inc	dptr
      000ECB F0               [24] 3192 	movx	@dptr,a
                                   3193 ;	src/main.c:372: for(int i = 0; i < 2; i++)
      000ECC 0E               [12] 3194 	inc	r6
      000ECD BE 00 01         [24] 3195 	cjne	r6,#0x00,00146$
      000ED0 0F               [12] 3196 	inc	r7
      000ED1                       3197 00146$:
      000ED1 02r0Dr13         [24] 3198 	ljmp	00109$
      000ED4                       3199 00107$:
                                   3200 ;	src/main.c:393: printf("\r\n");
      000ED4 74r09            [12] 3201 	mov	a,#___str_12
      000ED6 C0 E0            [24] 3202 	push	acc
      000ED8 74s02            [12] 3203 	mov	a,#(___str_12 >> 8)
      000EDA C0 E0            [24] 3204 	push	acc
      000EDC 74 80            [12] 3205 	mov	a,#0x80
      000EDE C0 E0            [24] 3206 	push	acc
      000EE0 12r00r00         [24] 3207 	lcall	_printf
      000EE3 15 81            [12] 3208 	dec	sp
      000EE5 15 81            [12] 3209 	dec	sp
      000EE7 15 81            [12] 3210 	dec	sp
                                   3211 ;	src/main.c:394: printf("\r\n");
      000EE9 74r09            [12] 3212 	mov	a,#___str_12
      000EEB C0 E0            [24] 3213 	push	acc
      000EED 74s02            [12] 3214 	mov	a,#(___str_12 >> 8)
      000EEF C0 E0            [24] 3215 	push	acc
      000EF1 74 80            [12] 3216 	mov	a,#0x80
      000EF3 C0 E0            [24] 3217 	push	acc
      000EF5 12r00r00         [24] 3218 	lcall	_printf
      000EF8 15 81            [12] 3219 	dec	sp
      000EFA 15 81            [12] 3220 	dec	sp
      000EFC 15 81            [12] 3221 	dec	sp
                                   3222 ;	src/main.c:395: }
      000EFE 22               [24] 3223 	ret
                                   3224 ;------------------------------------------------------------
                                   3225 ;Allocation info for local variables in function 'enter_command_handler'
                                   3226 ;------------------------------------------------------------
                                   3227 ;sloc0                     Allocated with name '_enter_command_handler_sloc0_1_0'
                                   3228 ;sloc1                     Allocated with name '_enter_command_handler_sloc1_1_0'
                                   3229 ;sloc2                     Allocated with name '_enter_command_handler_sloc2_1_0'
                                   3230 ;sloc3                     Allocated with name '_enter_command_handler_sloc3_1_0'
                                   3231 ;i                         Allocated with name '_enter_command_handler_i_131072_155'
                                   3232 ;address                   Allocated with name '_enter_command_handler_address_262144_157'
                                   3233 ;j                         Allocated with name '_enter_command_handler_j_393216_159'
                                   3234 ;------------------------------------------------------------
                                   3235 ;	src/main.c:397: void enter_command_handler()
                                   3236 ;	-----------------------------------------
                                   3237 ;	 function enter_command_handler
                                   3238 ;	-----------------------------------------
      000EFF                       3239 _enter_command_handler:
                                   3240 ;	src/main.c:399: command_header("Dump Admin Buffers");
      000EFF 90r03r25         [24] 3241 	mov	dptr,#___str_20
      000F02 75 F0 80         [24] 3242 	mov	b,#0x80
      000F05 12r08rC1         [24] 3243 	lcall	_command_header
                                   3244 ;	src/main.c:400: for(int i = 0; i < 2; i++)
      000F08 7E 00            [12] 3245 	mov	r6,#0x00
      000F0A 7F 00            [12] 3246 	mov	r7,#0x00
      000F0C                       3247 00111$:
      000F0C C3               [12] 3248 	clr	c
      000F0D EE               [12] 3249 	mov	a,r6
      000F0E 94 02            [12] 3250 	subb	a,#0x02
      000F10 EF               [12] 3251 	mov	a,r7
      000F11 64 80            [12] 3252 	xrl	a,#0x80
      000F13 94 80            [12] 3253 	subb	a,#0x80
      000F15 40 01            [24] 3254 	jc	00142$
      000F17 22               [24] 3255 	ret
      000F18                       3256 00142$:
                                   3257 ;	src/main.c:402: printf("\r\n Buffer %d ", i);
      000F18 C0 07            [24] 3258 	push	ar7
      000F1A C0 06            [24] 3259 	push	ar6
      000F1C C0 06            [24] 3260 	push	ar6
      000F1E C0 07            [24] 3261 	push	ar7
      000F20 74r38            [12] 3262 	mov	a,#___str_21
      000F22 C0 E0            [24] 3263 	push	acc
      000F24 74s03            [12] 3264 	mov	a,#(___str_21 >> 8)
      000F26 C0 E0            [24] 3265 	push	acc
      000F28 74 80            [12] 3266 	mov	a,#0x80
      000F2A C0 E0            [24] 3267 	push	acc
      000F2C 12r00r00         [24] 3268 	lcall	_printf
      000F2F E5 81            [12] 3269 	mov	a,sp
      000F31 24 FB            [12] 3270 	add	a,#0xfb
      000F33 F5 81            [12] 3271 	mov	sp,a
                                   3272 ;	src/main.c:403: printf("\r\n----------");
      000F35 74r46            [12] 3273 	mov	a,#___str_22
      000F37 C0 E0            [24] 3274 	push	acc
      000F39 74s03            [12] 3275 	mov	a,#(___str_22 >> 8)
      000F3B C0 E0            [24] 3276 	push	acc
      000F3D 74 80            [12] 3277 	mov	a,#0x80
      000F3F C0 E0            [24] 3278 	push	acc
      000F41 12r00r00         [24] 3279 	lcall	_printf
      000F44 15 81            [12] 3280 	dec	sp
      000F46 15 81            [12] 3281 	dec	sp
      000F48 15 81            [12] 3282 	dec	sp
      000F4A D0 06            [24] 3283 	pop	ar6
      000F4C D0 07            [24] 3284 	pop	ar7
                                   3285 ;	src/main.c:404: for(char *address = static_buffers[i].buffer; address < (static_buffers[i].buffer + static_buffers[i].size); address += 16)
      000F4E 90r00r00         [24] 3286 	mov	dptr,#__mulint_PARM_2
      000F51 EE               [12] 3287 	mov	a,r6
      000F52 F0               [24] 3288 	movx	@dptr,a
      000F53 EF               [12] 3289 	mov	a,r7
      000F54 A3               [24] 3290 	inc	dptr
      000F55 F0               [24] 3291 	movx	@dptr,a
      000F56 90 00 0B         [24] 3292 	mov	dptr,#0x000b
      000F59 C0 07            [24] 3293 	push	ar7
      000F5B C0 06            [24] 3294 	push	ar6
      000F5D 12r00r00         [24] 3295 	lcall	__mulint
      000F60 AC 82            [24] 3296 	mov	r4,dpl
      000F62 AD 83            [24] 3297 	mov	r5,dph
      000F64 D0 06            [24] 3298 	pop	ar6
      000F66 D0 07            [24] 3299 	pop	ar7
      000F68 EC               [12] 3300 	mov	a,r4
      000F69 24r00            [12] 3301 	add	a,#_static_buffers
      000F6B FA               [12] 3302 	mov	r2,a
      000F6C ED               [12] 3303 	mov	a,r5
      000F6D 34s00            [12] 3304 	addc	a,#(_static_buffers >> 8)
      000F6F FB               [12] 3305 	mov	r3,a
      000F70 8A 82            [24] 3306 	mov	dpl,r2
      000F72 8B 83            [24] 3307 	mov	dph,r3
      000F74 E0               [24] 3308 	movx	a,@dptr
      000F75 F8               [12] 3309 	mov	r0,a
      000F76 A3               [24] 3310 	inc	dptr
      000F77 E0               [24] 3311 	movx	a,@dptr
      000F78 F9               [12] 3312 	mov	r1,a
      000F79 88*27            [24] 3313 	mov	_enter_command_handler_sloc0_1_0,r0
      000F7B 89*28            [24] 3314 	mov	(_enter_command_handler_sloc0_1_0 + 1),r1
      000F7D 75*29 00         [24] 3315 	mov	(_enter_command_handler_sloc0_1_0 + 2),#0x00
      000F80 8E 00            [24] 3316 	mov	ar0,r6
      000F82 8F 01            [24] 3317 	mov	ar1,r7
      000F84 8A*2E            [24] 3318 	mov	_enter_command_handler_sloc3_1_0,r2
      000F86 8B*2F            [24] 3319 	mov	(_enter_command_handler_sloc3_1_0 + 1),r3
      000F88 EC               [12] 3320 	mov	a,r4
      000F89 24r00            [12] 3321 	add	a,#_static_buffers
      000F8B FC               [12] 3322 	mov	r4,a
      000F8C ED               [12] 3323 	mov	a,r5
      000F8D 34s00            [12] 3324 	addc	a,#(_static_buffers >> 8)
      000F8F FD               [12] 3325 	mov	r5,a
      000F90 74 04            [12] 3326 	mov	a,#0x04
      000F92 2C               [12] 3327 	add	a,r4
      000F93 F5*2A            [12] 3328 	mov	_enter_command_handler_sloc1_1_0,a
      000F95 E4               [12] 3329 	clr	a
      000F96 3D               [12] 3330 	addc	a,r5
      000F97 F5*2B            [12] 3331 	mov	(_enter_command_handler_sloc1_1_0 + 1),a
      000F99                       3332 00108$:
      000F99 C0 00            [24] 3333 	push	ar0
      000F9B C0 01            [24] 3334 	push	ar1
      000F9D 85*2E 82         [24] 3335 	mov	dpl,_enter_command_handler_sloc3_1_0
      000FA0 85*2F 83         [24] 3336 	mov	dph,(_enter_command_handler_sloc3_1_0 + 1)
      000FA3 E0               [24] 3337 	movx	a,@dptr
      000FA4 F8               [12] 3338 	mov	r0,a
      000FA5 A3               [24] 3339 	inc	dptr
      000FA6 E0               [24] 3340 	movx	a,@dptr
      000FA7 F9               [12] 3341 	mov	r1,a
      000FA8 85*2A 82         [24] 3342 	mov	dpl,_enter_command_handler_sloc1_1_0
      000FAB 85*2B 83         [24] 3343 	mov	dph,(_enter_command_handler_sloc1_1_0 + 1)
      000FAE E0               [24] 3344 	movx	a,@dptr
      000FAF FC               [12] 3345 	mov	r4,a
      000FB0 A3               [24] 3346 	inc	dptr
      000FB1 E0               [24] 3347 	movx	a,@dptr
      000FB2 FD               [12] 3348 	mov	r5,a
      000FB3 EC               [12] 3349 	mov	a,r4
      000FB4 28               [12] 3350 	add	a,r0
      000FB5 F5*2C            [12] 3351 	mov	_enter_command_handler_sloc2_1_0,a
      000FB7 ED               [12] 3352 	mov	a,r5
      000FB8 39               [12] 3353 	addc	a,r1
      000FB9 F5*2D            [12] 3354 	mov	(_enter_command_handler_sloc2_1_0 + 1),a
      000FBB A9*27            [24] 3355 	mov	r1,_enter_command_handler_sloc0_1_0
      000FBD AC*28            [24] 3356 	mov	r4,(_enter_command_handler_sloc0_1_0 + 1)
      000FBF AD*29            [24] 3357 	mov	r5,(_enter_command_handler_sloc0_1_0 + 2)
      000FC1 A8*2C            [24] 3358 	mov	r0,_enter_command_handler_sloc2_1_0
      000FC3 AA*2D            [24] 3359 	mov	r2,(_enter_command_handler_sloc2_1_0 + 1)
      000FC5 7B 00            [12] 3360 	mov	r3,#0x00
      000FC7 C0 00            [24] 3361 	push	ar0
      000FC9 C0 02            [24] 3362 	push	ar2
      000FCB C0 03            [24] 3363 	push	ar3
      000FCD 89 82            [24] 3364 	mov	dpl,r1
      000FCF 8C 83            [24] 3365 	mov	dph,r4
      000FD1 8D F0            [24] 3366 	mov	b,r5
      000FD3 12r00r00         [24] 3367 	lcall	___gptr_cmp
      000FD6 15 81            [12] 3368 	dec	sp
      000FD8 15 81            [12] 3369 	dec	sp
      000FDA 15 81            [12] 3370 	dec	sp
      000FDC D0 01            [24] 3371 	pop	ar1
      000FDE D0 00            [24] 3372 	pop	ar0
      000FE0 40 03            [24] 3373 	jc	00143$
      000FE2 02r10r85         [24] 3374 	ljmp	00102$
      000FE5                       3375 00143$:
                                   3376 ;	src/main.c:406: printf("\r\n%04X:", (unsigned int) address);
      000FE5 AB*27            [24] 3377 	mov	r3,_enter_command_handler_sloc0_1_0
      000FE7 AC*28            [24] 3378 	mov	r4,(_enter_command_handler_sloc0_1_0 + 1)
      000FE9 C0 01            [24] 3379 	push	ar1
      000FEB C0 00            [24] 3380 	push	ar0
      000FED C0 03            [24] 3381 	push	ar3
      000FEF C0 04            [24] 3382 	push	ar4
      000FF1 74r53            [12] 3383 	mov	a,#___str_23
      000FF3 C0 E0            [24] 3384 	push	acc
      000FF5 74s03            [12] 3385 	mov	a,#(___str_23 >> 8)
      000FF7 C0 E0            [24] 3386 	push	acc
      000FF9 74 80            [12] 3387 	mov	a,#0x80
      000FFB C0 E0            [24] 3388 	push	acc
      000FFD 12r00r00         [24] 3389 	lcall	_printf
      001000 E5 81            [12] 3390 	mov	a,sp
      001002 24 FB            [12] 3391 	add	a,#0xfb
      001004 F5 81            [12] 3392 	mov	sp,a
      001006 D0 00            [24] 3393 	pop	ar0
      001008 D0 01            [24] 3394 	pop	ar1
                                   3395 ;	src/main.c:407: for(int j = 0; j < 16; j++)
      00100A AB*27            [24] 3396 	mov	r3,_enter_command_handler_sloc0_1_0
      00100C AC*28            [24] 3397 	mov	r4,(_enter_command_handler_sloc0_1_0 + 1)
      00100E AD*29            [24] 3398 	mov	r5,(_enter_command_handler_sloc0_1_0 + 2)
      001010 E4               [12] 3399 	clr	a
      001011 F5*2C            [12] 3400 	mov	_enter_command_handler_sloc2_1_0,a
      001013 F5*2D            [12] 3401 	mov	(_enter_command_handler_sloc2_1_0 + 1),a
      001015                       3402 00105$:
      001015 C3               [12] 3403 	clr	c
      001016 E5*2C            [12] 3404 	mov	a,_enter_command_handler_sloc2_1_0
      001018 94 10            [12] 3405 	subb	a,#0x10
      00101A E5*2D            [12] 3406 	mov	a,(_enter_command_handler_sloc2_1_0 + 1)
      00101C 64 80            [12] 3407 	xrl	a,#0x80
      00101E 94 80            [12] 3408 	subb	a,#0x80
      001020 50 55            [24] 3409 	jnc	00109$
                                   3410 ;	src/main.c:409: printf(" %02hhX", (unsigned char) *(address+j));
      001022 C0 00            [24] 3411 	push	ar0
      001024 C0 01            [24] 3412 	push	ar1
      001026 E5*2C            [12] 3413 	mov	a,_enter_command_handler_sloc2_1_0
      001028 2B               [12] 3414 	add	a,r3
      001029 F8               [12] 3415 	mov	r0,a
      00102A E5*2D            [12] 3416 	mov	a,(_enter_command_handler_sloc2_1_0 + 1)
      00102C 3C               [12] 3417 	addc	a,r4
      00102D F9               [12] 3418 	mov	r1,a
      00102E 8D 02            [24] 3419 	mov	ar2,r5
      001030 88 82            [24] 3420 	mov	dpl,r0
      001032 89 83            [24] 3421 	mov	dph,r1
      001034 8A F0            [24] 3422 	mov	b,r2
      001036 12r00r00         [24] 3423 	lcall	__gptrget
      001039 F8               [12] 3424 	mov	r0,a
      00103A 7A 00            [12] 3425 	mov	r2,#0x00
      00103C C0 05            [24] 3426 	push	ar5
      00103E C0 04            [24] 3427 	push	ar4
      001040 C0 03            [24] 3428 	push	ar3
      001042 C0 01            [24] 3429 	push	ar1
      001044 C0 00            [24] 3430 	push	ar0
      001046 C0 00            [24] 3431 	push	ar0
      001048 C0 02            [24] 3432 	push	ar2
      00104A 74r5B            [12] 3433 	mov	a,#___str_24
      00104C C0 E0            [24] 3434 	push	acc
      00104E 74s03            [12] 3435 	mov	a,#(___str_24 >> 8)
      001050 C0 E0            [24] 3436 	push	acc
      001052 74 80            [12] 3437 	mov	a,#0x80
      001054 C0 E0            [24] 3438 	push	acc
      001056 12r00r00         [24] 3439 	lcall	_printf
      001059 E5 81            [12] 3440 	mov	a,sp
      00105B 24 FB            [12] 3441 	add	a,#0xfb
      00105D F5 81            [12] 3442 	mov	sp,a
      00105F D0 00            [24] 3443 	pop	ar0
      001061 D0 01            [24] 3444 	pop	ar1
      001063 D0 03            [24] 3445 	pop	ar3
      001065 D0 04            [24] 3446 	pop	ar4
      001067 D0 05            [24] 3447 	pop	ar5
                                   3448 ;	src/main.c:407: for(int j = 0; j < 16; j++)
      001069 05*2C            [12] 3449 	inc	_enter_command_handler_sloc2_1_0
      00106B E4               [12] 3450 	clr	a
      00106C B5*2C 02         [24] 3451 	cjne	a,_enter_command_handler_sloc2_1_0,00145$
      00106F 05*2D            [12] 3452 	inc	(_enter_command_handler_sloc2_1_0 + 1)
      001071                       3453 00145$:
      001071 D0 01            [24] 3454 	pop	ar1
      001073 D0 00            [24] 3455 	pop	ar0
      001075 80 9E            [24] 3456 	sjmp	00105$
      001077                       3457 00109$:
                                   3458 ;	src/main.c:404: for(char *address = static_buffers[i].buffer; address < (static_buffers[i].buffer + static_buffers[i].size); address += 16)
      001077 74 10            [12] 3459 	mov	a,#0x10
      001079 25*27            [12] 3460 	add	a,_enter_command_handler_sloc0_1_0
      00107B F5*27            [12] 3461 	mov	_enter_command_handler_sloc0_1_0,a
      00107D E4               [12] 3462 	clr	a
      00107E 35*28            [12] 3463 	addc	a,(_enter_command_handler_sloc0_1_0 + 1)
      001080 F5*28            [12] 3464 	mov	(_enter_command_handler_sloc0_1_0 + 1),a
      001082 02r0Fr99         [24] 3465 	ljmp	00108$
      001085                       3466 00102$:
                                   3467 ;	src/main.c:412: printf("\r\n");
      001085 C0 01            [24] 3468 	push	ar1
      001087 C0 00            [24] 3469 	push	ar0
      001089 74r09            [12] 3470 	mov	a,#___str_12
      00108B C0 E0            [24] 3471 	push	acc
      00108D 74s02            [12] 3472 	mov	a,#(___str_12 >> 8)
      00108F C0 E0            [24] 3473 	push	acc
      001091 74 80            [12] 3474 	mov	a,#0x80
      001093 C0 E0            [24] 3475 	push	acc
      001095 12r00r00         [24] 3476 	lcall	_printf
      001098 15 81            [12] 3477 	dec	sp
      00109A 15 81            [12] 3478 	dec	sp
      00109C 15 81            [12] 3479 	dec	sp
      00109E D0 00            [24] 3480 	pop	ar0
      0010A0 D0 01            [24] 3481 	pop	ar1
                                   3482 ;	src/main.c:400: for(int i = 0; i < 2; i++)
      0010A2 74 01            [12] 3483 	mov	a,#0x01
      0010A4 28               [12] 3484 	add	a,r0
      0010A5 FE               [12] 3485 	mov	r6,a
      0010A6 E4               [12] 3486 	clr	a
      0010A7 39               [12] 3487 	addc	a,r1
      0010A8 FF               [12] 3488 	mov	r7,a
                                   3489 ;	src/main.c:414: }
      0010A9 02r0Fr0C         [24] 3490 	ljmp	00111$
                                   3491 ;------------------------------------------------------------
                                   3492 ;Allocation info for local variables in function 'percent_command_handler'
                                   3493 ;------------------------------------------------------------
                                   3494 ;sloc0                     Allocated with name '_percent_command_handler_sloc0_1_0'
                                   3495 ;i                         Allocated with name '_percent_command_handler_i_131072_162'
                                   3496 ;curr                      Allocated with name '_percent_command_handler_curr_65537_165'
                                   3497 ;------------------------------------------------------------
                                   3498 ;	src/main.c:416: void percent_command_handler()
                                   3499 ;	-----------------------------------------
                                   3500 ;	 function percent_command_handler
                                   3501 ;	-----------------------------------------
      0010AC                       3502 _percent_command_handler:
                                   3503 ;	src/main.c:418: command_header("Clear Buffers");
      0010AC 90r03r63         [24] 3504 	mov	dptr,#___str_25
      0010AF 75 F0 80         [24] 3505 	mov	b,#0x80
      0010B2 12r08rC1         [24] 3506 	lcall	_command_header
                                   3507 ;	src/main.c:419: for(int i = 0; i < BUFFER_ALWAYS_HELD_COUNT; i++)
      0010B5 7E 00            [12] 3508 	mov	r6,#0x00
      0010B7 7F 00            [12] 3509 	mov	r7,#0x00
      0010B9                       3510 00108$:
      0010B9 C3               [12] 3511 	clr	c
      0010BA EE               [12] 3512 	mov	a,r6
      0010BB 94 02            [12] 3513 	subb	a,#0x02
      0010BD EF               [12] 3514 	mov	a,r7
      0010BE 64 80            [12] 3515 	xrl	a,#0x80
      0010C0 94 80            [12] 3516 	subb	a,#0x80
      0010C2 40 03            [24] 3517 	jc	00133$
      0010C4 02r11r58         [24] 3518 	ljmp	00103$
      0010C7                       3519 00133$:
                                   3520 ;	src/main.c:421: if (static_buffers[i].buffer != NULL) 
      0010C7 90r00r00         [24] 3521 	mov	dptr,#__mulint_PARM_2
      0010CA EE               [12] 3522 	mov	a,r6
      0010CB F0               [24] 3523 	movx	@dptr,a
      0010CC EF               [12] 3524 	mov	a,r7
      0010CD A3               [24] 3525 	inc	dptr
      0010CE F0               [24] 3526 	movx	@dptr,a
      0010CF 90 00 0B         [24] 3527 	mov	dptr,#0x000b
      0010D2 C0 07            [24] 3528 	push	ar7
      0010D4 C0 06            [24] 3529 	push	ar6
      0010D6 12r00r00         [24] 3530 	lcall	__mulint
      0010D9 AC 82            [24] 3531 	mov	r4,dpl
      0010DB AD 83            [24] 3532 	mov	r5,dph
      0010DD D0 06            [24] 3533 	pop	ar6
      0010DF D0 07            [24] 3534 	pop	ar7
      0010E1 EC               [12] 3535 	mov	a,r4
      0010E2 24r00            [12] 3536 	add	a,#_static_buffers
      0010E4 F5 82            [12] 3537 	mov	dpl,a
      0010E6 ED               [12] 3538 	mov	a,r5
      0010E7 34s00            [12] 3539 	addc	a,#(_static_buffers >> 8)
      0010E9 F5 83            [12] 3540 	mov	dph,a
      0010EB E0               [24] 3541 	movx	a,@dptr
      0010EC FA               [12] 3542 	mov	r2,a
      0010ED A3               [24] 3543 	inc	dptr
      0010EE E0               [24] 3544 	movx	a,@dptr
      0010EF FB               [12] 3545 	mov	r3,a
      0010F0 4A               [12] 3546 	orl	a,r2
      0010F1 60 5D            [24] 3547 	jz	00109$
                                   3548 ;	src/main.c:423: memset(static_buffers[i].buffer, 0x00, static_buffers[i].size);
      0010F3 C0 06            [24] 3549 	push	ar6
      0010F5 C0 07            [24] 3550 	push	ar7
      0010F7 8B 01            [24] 3551 	mov	ar1,r3
      0010F9 7B 00            [12] 3552 	mov	r3,#0x00
      0010FB EC               [12] 3553 	mov	a,r4
      0010FC 24r00            [12] 3554 	add	a,#_static_buffers
      0010FE FC               [12] 3555 	mov	r4,a
      0010FF ED               [12] 3556 	mov	a,r5
      001100 34s00            [12] 3557 	addc	a,#(_static_buffers >> 8)
      001102 FD               [12] 3558 	mov	r5,a
      001103 8C 82            [24] 3559 	mov	dpl,r4
      001105 8D 83            [24] 3560 	mov	dph,r5
      001107 A3               [24] 3561 	inc	dptr
      001108 A3               [24] 3562 	inc	dptr
      001109 A3               [24] 3563 	inc	dptr
      00110A A3               [24] 3564 	inc	dptr
      00110B E0               [24] 3565 	movx	a,@dptr
      00110C F8               [12] 3566 	mov	r0,a
      00110D A3               [24] 3567 	inc	dptr
      00110E E0               [24] 3568 	movx	a,@dptr
      00110F FF               [12] 3569 	mov	r7,a
      001110 90r00r00         [24] 3570 	mov	dptr,#_memset_PARM_2
      001113 E4               [12] 3571 	clr	a
      001114 F0               [24] 3572 	movx	@dptr,a
      001115 90r00r00         [24] 3573 	mov	dptr,#_memset_PARM_3
      001118 E8               [12] 3574 	mov	a,r0
      001119 F0               [24] 3575 	movx	@dptr,a
      00111A EF               [12] 3576 	mov	a,r7
      00111B A3               [24] 3577 	inc	dptr
      00111C F0               [24] 3578 	movx	@dptr,a
      00111D 8A 82            [24] 3579 	mov	dpl,r2
      00111F 89 83            [24] 3580 	mov	dph,r1
      001121 8B F0            [24] 3581 	mov	b,r3
      001123 C0 07            [24] 3582 	push	ar7
      001125 C0 06            [24] 3583 	push	ar6
      001127 C0 05            [24] 3584 	push	ar5
      001129 C0 04            [24] 3585 	push	ar4
      00112B 12r00r00         [24] 3586 	lcall	_memset
      00112E D0 04            [24] 3587 	pop	ar4
      001130 D0 05            [24] 3588 	pop	ar5
      001132 D0 06            [24] 3589 	pop	ar6
      001134 D0 07            [24] 3590 	pop	ar7
                                   3591 ;	src/main.c:424: static_buffers[i].curr_available_char = 0;
      001136 74 06            [12] 3592 	mov	a,#0x06
      001138 2C               [12] 3593 	add	a,r4
      001139 F5 82            [12] 3594 	mov	dpl,a
      00113B E4               [12] 3595 	clr	a
      00113C 3D               [12] 3596 	addc	a,r5
      00113D F5 83            [12] 3597 	mov	dph,a
      00113F E4               [12] 3598 	clr	a
      001140 F0               [24] 3599 	movx	@dptr,a
      001141 A3               [24] 3600 	inc	dptr
      001142 F0               [24] 3601 	movx	@dptr,a
                                   3602 ;	src/main.c:425: static_buffers[i].alphabet_chars = 0; 
      001143 8C 82            [24] 3603 	mov	dpl,r4
      001145 8D 83            [24] 3604 	mov	dph,r5
      001147 A3               [24] 3605 	inc	dptr
      001148 A3               [24] 3606 	inc	dptr
      001149 F0               [24] 3607 	movx	@dptr,a
      00114A A3               [24] 3608 	inc	dptr
      00114B F0               [24] 3609 	movx	@dptr,a
                                   3610 ;	src/main.c:435: curr = curr->next;
      00114C D0 07            [24] 3611 	pop	ar7
      00114E D0 06            [24] 3612 	pop	ar6
                                   3613 ;	src/main.c:425: static_buffers[i].alphabet_chars = 0; 
      001150                       3614 00109$:
                                   3615 ;	src/main.c:419: for(int i = 0; i < BUFFER_ALWAYS_HELD_COUNT; i++)
      001150 0E               [12] 3616 	inc	r6
      001151 BE 00 01         [24] 3617 	cjne	r6,#0x00,00135$
      001154 0F               [12] 3618 	inc	r7
      001155                       3619 00135$:
      001155 02r10rB9         [24] 3620 	ljmp	00108$
      001158                       3621 00103$:
                                   3622 ;	src/main.c:429: buffer_t *curr = dynamic_buffers_list.head;
      001158 90r00r00         [24] 3623 	mov	dptr,#_dynamic_buffers_list
      00115B E0               [24] 3624 	movx	a,@dptr
      00115C FD               [12] 3625 	mov	r5,a
      00115D A3               [24] 3626 	inc	dptr
      00115E E0               [24] 3627 	movx	a,@dptr
      00115F FE               [12] 3628 	mov	r6,a
      001160 A3               [24] 3629 	inc	dptr
      001161 E0               [24] 3630 	movx	a,@dptr
      001162 FF               [12] 3631 	mov	r7,a
      001163 90r00r35         [24] 3632 	mov	dptr,#_percent_command_handler_curr_65537_165
      001166 ED               [12] 3633 	mov	a,r5
      001167 F0               [24] 3634 	movx	@dptr,a
      001168 EE               [12] 3635 	mov	a,r6
      001169 A3               [24] 3636 	inc	dptr
      00116A F0               [24] 3637 	movx	@dptr,a
      00116B EF               [12] 3638 	mov	a,r7
      00116C A3               [24] 3639 	inc	dptr
      00116D F0               [24] 3640 	movx	@dptr,a
                                   3641 ;	src/main.c:430: while (curr != NULL)
      00116E                       3642 00104$:
      00116E 90r00r35         [24] 3643 	mov	dptr,#_percent_command_handler_curr_65537_165
      001171 E0               [24] 3644 	movx	a,@dptr
      001172 FD               [12] 3645 	mov	r5,a
      001173 A3               [24] 3646 	inc	dptr
      001174 E0               [24] 3647 	movx	a,@dptr
      001175 FE               [12] 3648 	mov	r6,a
      001176 A3               [24] 3649 	inc	dptr
      001177 E0               [24] 3650 	movx	a,@dptr
      001178 FF               [12] 3651 	mov	r7,a
      001179 ED               [12] 3652 	mov	a,r5
      00117A 4E               [12] 3653 	orl	a,r6
      00117B 70 01            [24] 3654 	jnz	00136$
      00117D 22               [24] 3655 	ret
      00117E                       3656 00136$:
                                   3657 ;	src/main.c:432: memset(curr->buffer, 0x00, curr->size);
      00117E 8D 82            [24] 3658 	mov	dpl,r5
      001180 8E 83            [24] 3659 	mov	dph,r6
      001182 8F F0            [24] 3660 	mov	b,r7
      001184 12r00r00         [24] 3661 	lcall	__gptrget
      001187 FB               [12] 3662 	mov	r3,a
      001188 A3               [24] 3663 	inc	dptr
      001189 12r00r00         [24] 3664 	lcall	__gptrget
      00118C FC               [12] 3665 	mov	r4,a
      00118D 8B*30            [24] 3666 	mov	_percent_command_handler_sloc0_1_0,r3
      00118F 8C*31            [24] 3667 	mov	(_percent_command_handler_sloc0_1_0 + 1),r4
      001191 75*32 00         [24] 3668 	mov	(_percent_command_handler_sloc0_1_0 + 2),#0x00
      001194 74 04            [12] 3669 	mov	a,#0x04
      001196 2D               [12] 3670 	add	a,r5
      001197 F8               [12] 3671 	mov	r0,a
      001198 E4               [12] 3672 	clr	a
      001199 3E               [12] 3673 	addc	a,r6
      00119A F9               [12] 3674 	mov	r1,a
      00119B 8F 04            [24] 3675 	mov	ar4,r7
      00119D 88 82            [24] 3676 	mov	dpl,r0
      00119F 89 83            [24] 3677 	mov	dph,r1
      0011A1 8C F0            [24] 3678 	mov	b,r4
      0011A3 12r00r00         [24] 3679 	lcall	__gptrget
      0011A6 F8               [12] 3680 	mov	r0,a
      0011A7 A3               [24] 3681 	inc	dptr
      0011A8 12r00r00         [24] 3682 	lcall	__gptrget
      0011AB F9               [12] 3683 	mov	r1,a
      0011AC 90r00r00         [24] 3684 	mov	dptr,#_memset_PARM_2
      0011AF E4               [12] 3685 	clr	a
      0011B0 F0               [24] 3686 	movx	@dptr,a
      0011B1 90r00r00         [24] 3687 	mov	dptr,#_memset_PARM_3
      0011B4 E8               [12] 3688 	mov	a,r0
      0011B5 F0               [24] 3689 	movx	@dptr,a
      0011B6 E9               [12] 3690 	mov	a,r1
      0011B7 A3               [24] 3691 	inc	dptr
      0011B8 F0               [24] 3692 	movx	@dptr,a
      0011B9 85*30 82         [24] 3693 	mov	dpl,_percent_command_handler_sloc0_1_0
      0011BC 85*31 83         [24] 3694 	mov	dph,(_percent_command_handler_sloc0_1_0 + 1)
      0011BF 85*32 F0         [24] 3695 	mov	b,(_percent_command_handler_sloc0_1_0 + 2)
      0011C2 C0 07            [24] 3696 	push	ar7
      0011C4 C0 06            [24] 3697 	push	ar6
      0011C6 C0 05            [24] 3698 	push	ar5
      0011C8 12r00r00         [24] 3699 	lcall	_memset
      0011CB D0 05            [24] 3700 	pop	ar5
      0011CD D0 06            [24] 3701 	pop	ar6
      0011CF D0 07            [24] 3702 	pop	ar7
                                   3703 ;	src/main.c:433: curr->curr_available_char = 0;
      0011D1 74 06            [12] 3704 	mov	a,#0x06
      0011D3 2D               [12] 3705 	add	a,r5
      0011D4 FA               [12] 3706 	mov	r2,a
      0011D5 E4               [12] 3707 	clr	a
      0011D6 3E               [12] 3708 	addc	a,r6
      0011D7 FB               [12] 3709 	mov	r3,a
      0011D8 8F 04            [24] 3710 	mov	ar4,r7
      0011DA 8A 82            [24] 3711 	mov	dpl,r2
      0011DC 8B 83            [24] 3712 	mov	dph,r3
      0011DE 8C F0            [24] 3713 	mov	b,r4
      0011E0 E4               [12] 3714 	clr	a
      0011E1 12r00r00         [24] 3715 	lcall	__gptrput
      0011E4 A3               [24] 3716 	inc	dptr
      0011E5 12r00r00         [24] 3717 	lcall	__gptrput
                                   3718 ;	src/main.c:434: curr->alphabet_chars = 0; 
      0011E8 74 02            [12] 3719 	mov	a,#0x02
      0011EA 2D               [12] 3720 	add	a,r5
      0011EB FA               [12] 3721 	mov	r2,a
      0011EC E4               [12] 3722 	clr	a
      0011ED 3E               [12] 3723 	addc	a,r6
      0011EE FB               [12] 3724 	mov	r3,a
      0011EF 8F 04            [24] 3725 	mov	ar4,r7
      0011F1 8A 82            [24] 3726 	mov	dpl,r2
      0011F3 8B 83            [24] 3727 	mov	dph,r3
      0011F5 8C F0            [24] 3728 	mov	b,r4
      0011F7 E4               [12] 3729 	clr	a
      0011F8 12r00r00         [24] 3730 	lcall	__gptrput
      0011FB A3               [24] 3731 	inc	dptr
      0011FC 12r00r00         [24] 3732 	lcall	__gptrput
                                   3733 ;	src/main.c:435: curr = curr->next;
      0011FF 74 08            [12] 3734 	mov	a,#0x08
      001201 2D               [12] 3735 	add	a,r5
      001202 FD               [12] 3736 	mov	r5,a
      001203 E4               [12] 3737 	clr	a
      001204 3E               [12] 3738 	addc	a,r6
      001205 FE               [12] 3739 	mov	r6,a
      001206 8D 82            [24] 3740 	mov	dpl,r5
      001208 8E 83            [24] 3741 	mov	dph,r6
      00120A 8F F0            [24] 3742 	mov	b,r7
      00120C 12r00r00         [24] 3743 	lcall	__gptrget
      00120F FD               [12] 3744 	mov	r5,a
      001210 A3               [24] 3745 	inc	dptr
      001211 12r00r00         [24] 3746 	lcall	__gptrget
      001214 FE               [12] 3747 	mov	r6,a
      001215 A3               [24] 3748 	inc	dptr
      001216 12r00r00         [24] 3749 	lcall	__gptrget
      001219 FF               [12] 3750 	mov	r7,a
      00121A 90r00r35         [24] 3751 	mov	dptr,#_percent_command_handler_curr_65537_165
      00121D ED               [12] 3752 	mov	a,r5
      00121E F0               [24] 3753 	movx	@dptr,a
      00121F EE               [12] 3754 	mov	a,r6
      001220 A3               [24] 3755 	inc	dptr
      001221 F0               [24] 3756 	movx	@dptr,a
      001222 EF               [12] 3757 	mov	a,r7
      001223 A3               [24] 3758 	inc	dptr
      001224 F0               [24] 3759 	movx	@dptr,a
                                   3760 ;	src/main.c:437: }
      001225 02r11r6E         [24] 3761 	ljmp	00104$
                                   3762 ;------------------------------------------------------------
                                   3763 ;Allocation info for local variables in function 'dollar_sign_command_handler'
                                   3764 ;------------------------------------------------------------
                                   3765 ;sloc0                     Allocated with name '_dollar_sign_command_handler_sloc0_1_0'
                                   3766 ;buffer_3                  Allocated with name '_dollar_sign_command_handler_buffer_3_65537_169'
                                   3767 ;size                      Allocated with name '_dollar_sign_command_handler_size_65537_169'
                                   3768 ;------------------------------------------------------------
                                   3769 ;	src/main.c:439: void dollar_sign_command_handler()
                                   3770 ;	-----------------------------------------
                                   3771 ;	 function dollar_sign_command_handler
                                   3772 ;	-----------------------------------------
      001228                       3773 _dollar_sign_command_handler:
                                   3774 ;	src/main.c:441: command_header("Copy buffer_0 into buffer_3");
      001228 90r03r71         [24] 3775 	mov	dptr,#___str_26
      00122B 75 F0 80         [24] 3776 	mov	b,#0x80
      00122E 12r08rC1         [24] 3777 	lcall	_command_header
                                   3778 ;	src/main.c:442: P1_0 = ON;
                                   3779 ;	assignBit
      001231 D2 90            [12] 3780 	setb	_P1_0
                                   3781 ;	src/main.c:443: if (dynamic_buffers_list.head == NULL
      001233 90r00r00         [24] 3782 	mov	dptr,#_dynamic_buffers_list
      001236 E0               [24] 3783 	movx	a,@dptr
      001237 FE               [12] 3784 	mov	r6,a
      001238 A3               [24] 3785 	inc	dptr
      001239 E0               [24] 3786 	movx	a,@dptr
      00123A FD               [12] 3787 	mov	r5,a
      00123B A3               [24] 3788 	inc	dptr
      00123C E0               [24] 3789 	movx	a,@dptr
      00123D FF               [12] 3790 	mov	r7,a
      00123E EE               [12] 3791 	mov	a,r6
      00123F 4D               [12] 3792 	orl	a,r5
      001240 60 1F            [24] 3793 	jz	00101$
                                   3794 ;	src/main.c:444: || dynamic_buffers_list.head->next == NULL) 
      001242 74 08            [12] 3795 	mov	a,#0x08
      001244 2E               [12] 3796 	add	a,r6
      001245 FE               [12] 3797 	mov	r6,a
      001246 E4               [12] 3798 	clr	a
      001247 3D               [12] 3799 	addc	a,r5
      001248 FD               [12] 3800 	mov	r5,a
      001249 8E 82            [24] 3801 	mov	dpl,r6
      00124B 8D 83            [24] 3802 	mov	dph,r5
      00124D 8F F0            [24] 3803 	mov	b,r7
      00124F 12r00r00         [24] 3804 	lcall	__gptrget
      001252 FE               [12] 3805 	mov	r6,a
      001253 A3               [24] 3806 	inc	dptr
      001254 12r00r00         [24] 3807 	lcall	__gptrget
      001257 FD               [12] 3808 	mov	r5,a
      001258 A3               [24] 3809 	inc	dptr
      001259 12r00r00         [24] 3810 	lcall	__gptrget
      00125C FF               [12] 3811 	mov	r7,a
      00125D EE               [12] 3812 	mov	a,r6
      00125E 4D               [12] 3813 	orl	a,r5
      00125F 70 18            [24] 3814 	jnz	00102$
      001261                       3815 00101$:
                                   3816 ;	src/main.c:446: P1_0 = OFF;
                                   3817 ;	assignBit
      001261 C2 90            [12] 3818 	clr	_P1_0
                                   3819 ;	src/main.c:447: printf("\r\n buffer_3 not allocated; exiting");
      001263 74r8D            [12] 3820 	mov	a,#___str_27
      001265 C0 E0            [24] 3821 	push	acc
      001267 74s03            [12] 3822 	mov	a,#(___str_27 >> 8)
      001269 C0 E0            [24] 3823 	push	acc
      00126B 74 80            [12] 3824 	mov	a,#0x80
      00126D C0 E0            [24] 3825 	push	acc
      00126F 12r00r00         [24] 3826 	lcall	_printf
      001272 15 81            [12] 3827 	dec	sp
      001274 15 81            [12] 3828 	dec	sp
      001276 15 81            [12] 3829 	dec	sp
                                   3830 ;	src/main.c:448: return; 
      001278 22               [24] 3831 	ret
      001279                       3832 00102$:
                                   3833 ;	src/main.c:450: buffer_t* buffer_3 = dynamic_buffers_list.head->next;
      001279 8E 02            [24] 3834 	mov	ar2,r6
      00127B 8D 03            [24] 3835 	mov	ar3,r5
      00127D 8F 04            [24] 3836 	mov	ar4,r7
                                   3837 ;	src/main.c:451: size_t size = (buffer_3->size > static_buffers[0].size) ? static_buffers[0].size : buffer_3->size; 
      00127F 74 04            [12] 3838 	mov	a,#0x04
      001281 2E               [12] 3839 	add	a,r6
      001282 FE               [12] 3840 	mov	r6,a
      001283 E4               [12] 3841 	clr	a
      001284 3D               [12] 3842 	addc	a,r5
      001285 FD               [12] 3843 	mov	r5,a
      001286 8E 82            [24] 3844 	mov	dpl,r6
      001288 8D 83            [24] 3845 	mov	dph,r5
      00128A 8F F0            [24] 3846 	mov	b,r7
      00128C 12r00r00         [24] 3847 	lcall	__gptrget
      00128F FE               [12] 3848 	mov	r6,a
      001290 A3               [24] 3849 	inc	dptr
      001291 12r00r00         [24] 3850 	lcall	__gptrget
      001294 FF               [12] 3851 	mov	r7,a
      001295 90r00r04         [24] 3852 	mov	dptr,#(_static_buffers + 0x0004)
      001298 E0               [24] 3853 	movx	a,@dptr
      001299 F9               [12] 3854 	mov	r1,a
      00129A A3               [24] 3855 	inc	dptr
      00129B E0               [24] 3856 	movx	a,@dptr
      00129C FD               [12] 3857 	mov	r5,a
      00129D C3               [12] 3858 	clr	c
      00129E E9               [12] 3859 	mov	a,r1
      00129F 9E               [12] 3860 	subb	a,r6
      0012A0 ED               [12] 3861 	mov	a,r5
      0012A1 9F               [12] 3862 	subb	a,r7
      0012A2 50 06            [24] 3863 	jnc	00106$
      0012A4 89*33            [24] 3864 	mov	_dollar_sign_command_handler_sloc0_1_0,r1
      0012A6 8D*34            [24] 3865 	mov	(_dollar_sign_command_handler_sloc0_1_0 + 1),r5
      0012A8 80 04            [24] 3866 	sjmp	00107$
      0012AA                       3867 00106$:
      0012AA 8E*33            [24] 3868 	mov	_dollar_sign_command_handler_sloc0_1_0,r6
      0012AC 8F*34            [24] 3869 	mov	(_dollar_sign_command_handler_sloc0_1_0 + 1),r7
      0012AE                       3870 00107$:
                                   3871 ;	src/main.c:452: memcpy(buffer_3->buffer, static_buffers[0].buffer, size);
      0012AE 8A 82            [24] 3872 	mov	dpl,r2
      0012B0 8B 83            [24] 3873 	mov	dph,r3
      0012B2 8C F0            [24] 3874 	mov	b,r4
      0012B4 12r00r00         [24] 3875 	lcall	__gptrget
      0012B7 FE               [12] 3876 	mov	r6,a
      0012B8 A3               [24] 3877 	inc	dptr
      0012B9 12r00r00         [24] 3878 	lcall	__gptrget
      0012BC F8               [12] 3879 	mov	r0,a
      0012BD 7F 00            [12] 3880 	mov	r7,#0x00
      0012BF 90r00r00         [24] 3881 	mov	dptr,#_static_buffers
      0012C2 E0               [24] 3882 	movx	a,@dptr
      0012C3 F9               [12] 3883 	mov	r1,a
      0012C4 A3               [24] 3884 	inc	dptr
      0012C5 E0               [24] 3885 	movx	a,@dptr
      0012C6 FD               [12] 3886 	mov	r5,a
      0012C7 90r00r00         [24] 3887 	mov	dptr,#___memcpy_PARM_2
      0012CA E9               [12] 3888 	mov	a,r1
      0012CB F0               [24] 3889 	movx	@dptr,a
      0012CC ED               [12] 3890 	mov	a,r5
      0012CD A3               [24] 3891 	inc	dptr
      0012CE F0               [24] 3892 	movx	@dptr,a
      0012CF E4               [12] 3893 	clr	a
      0012D0 A3               [24] 3894 	inc	dptr
      0012D1 F0               [24] 3895 	movx	@dptr,a
      0012D2 90r00r00         [24] 3896 	mov	dptr,#___memcpy_PARM_3
      0012D5 E5*33            [12] 3897 	mov	a,_dollar_sign_command_handler_sloc0_1_0
      0012D7 F0               [24] 3898 	movx	@dptr,a
      0012D8 E5*34            [12] 3899 	mov	a,(_dollar_sign_command_handler_sloc0_1_0 + 1)
      0012DA A3               [24] 3900 	inc	dptr
      0012DB F0               [24] 3901 	movx	@dptr,a
      0012DC 8E 82            [24] 3902 	mov	dpl,r6
      0012DE 88 83            [24] 3903 	mov	dph,r0
      0012E0 8F F0            [24] 3904 	mov	b,r7
      0012E2 C0 04            [24] 3905 	push	ar4
      0012E4 C0 03            [24] 3906 	push	ar3
      0012E6 C0 02            [24] 3907 	push	ar2
      0012E8 12r00r00         [24] 3908 	lcall	___memcpy
      0012EB D0 02            [24] 3909 	pop	ar2
      0012ED D0 03            [24] 3910 	pop	ar3
      0012EF D0 04            [24] 3911 	pop	ar4
                                   3912 ;	src/main.c:453: buffer_3->alphabet_chars = static_buffers[0].alphabet_chars;
      0012F1 74 02            [12] 3913 	mov	a,#0x02
      0012F3 2A               [12] 3914 	add	a,r2
      0012F4 FD               [12] 3915 	mov	r5,a
      0012F5 E4               [12] 3916 	clr	a
      0012F6 3B               [12] 3917 	addc	a,r3
      0012F7 FE               [12] 3918 	mov	r6,a
      0012F8 8C 07            [24] 3919 	mov	ar7,r4
      0012FA 90r00r02         [24] 3920 	mov	dptr,#(_static_buffers + 0x0002)
      0012FD E0               [24] 3921 	movx	a,@dptr
      0012FE F8               [12] 3922 	mov	r0,a
      0012FF A3               [24] 3923 	inc	dptr
      001300 E0               [24] 3924 	movx	a,@dptr
      001301 F9               [12] 3925 	mov	r1,a
      001302 8D 82            [24] 3926 	mov	dpl,r5
      001304 8E 83            [24] 3927 	mov	dph,r6
      001306 8F F0            [24] 3928 	mov	b,r7
      001308 E8               [12] 3929 	mov	a,r0
      001309 12r00r00         [24] 3930 	lcall	__gptrput
      00130C A3               [24] 3931 	inc	dptr
      00130D E9               [12] 3932 	mov	a,r1
      00130E 12r00r00         [24] 3933 	lcall	__gptrput
                                   3934 ;	src/main.c:454: buffer_3->curr_available_char = static_buffers[0].curr_available_char;
      001311 74 06            [12] 3935 	mov	a,#0x06
      001313 2A               [12] 3936 	add	a,r2
      001314 FA               [12] 3937 	mov	r2,a
      001315 E4               [12] 3938 	clr	a
      001316 3B               [12] 3939 	addc	a,r3
      001317 FB               [12] 3940 	mov	r3,a
      001318 90r00r06         [24] 3941 	mov	dptr,#(_static_buffers + 0x0006)
      00131B E0               [24] 3942 	movx	a,@dptr
      00131C FE               [12] 3943 	mov	r6,a
      00131D A3               [24] 3944 	inc	dptr
      00131E E0               [24] 3945 	movx	a,@dptr
      00131F FF               [12] 3946 	mov	r7,a
      001320 8A 82            [24] 3947 	mov	dpl,r2
      001322 8B 83            [24] 3948 	mov	dph,r3
      001324 8C F0            [24] 3949 	mov	b,r4
      001326 EE               [12] 3950 	mov	a,r6
      001327 12r00r00         [24] 3951 	lcall	__gptrput
      00132A A3               [24] 3952 	inc	dptr
      00132B EF               [12] 3953 	mov	a,r7
      00132C 12r00r00         [24] 3954 	lcall	__gptrput
                                   3955 ;	src/main.c:455: P1_0 = OFF; 
                                   3956 ;	assignBit
      00132F C2 90            [12] 3957 	clr	_P1_0
                                   3958 ;	src/main.c:456: printf("\r\n Done");
      001331 74rB0            [12] 3959 	mov	a,#___str_28
      001333 C0 E0            [24] 3960 	push	acc
      001335 74s03            [12] 3961 	mov	a,#(___str_28 >> 8)
      001337 C0 E0            [24] 3962 	push	acc
      001339 74 80            [12] 3963 	mov	a,#0x80
      00133B C0 E0            [24] 3964 	push	acc
      00133D 12r00r00         [24] 3965 	lcall	_printf
      001340 15 81            [12] 3966 	dec	sp
      001342 15 81            [12] 3967 	dec	sp
      001344 15 81            [12] 3968 	dec	sp
                                   3969 ;	src/main.c:457: }
      001346 22               [24] 3970 	ret
                                   3971 ;------------------------------------------------------------
                                   3972 ;Allocation info for local variables in function 'hashtag_command_handler'
                                   3973 ;------------------------------------------------------------
                                   3974 ;c                         Allocated with name '_hashtag_command_handler_c_196609_174'
                                   3975 ;buffer_3                  Allocated with name '_hashtag_command_handler_buffer_3_65537_172'
                                   3976 ;i                         Allocated with name '_hashtag_command_handler_i_131073_173'
                                   3977 ;------------------------------------------------------------
                                   3978 ;	src/main.c:459: void hashtag_command_handler()
                                   3979 ;	-----------------------------------------
                                   3980 ;	 function hashtag_command_handler
                                   3981 ;	-----------------------------------------
      001347                       3982 _hashtag_command_handler:
                                   3983 ;	src/main.c:461: command_header("Convert buffer_3 chars to lowercase");
      001347 90r03rB8         [24] 3984 	mov	dptr,#___str_29
      00134A 75 F0 80         [24] 3985 	mov	b,#0x80
      00134D 12r08rC1         [24] 3986 	lcall	_command_header
                                   3987 ;	src/main.c:462: P1_0 = ON;
                                   3988 ;	assignBit
      001350 D2 90            [12] 3989 	setb	_P1_0
                                   3990 ;	src/main.c:463: if (dynamic_buffers_list.head == NULL
      001352 90r00r00         [24] 3991 	mov	dptr,#_dynamic_buffers_list
      001355 E0               [24] 3992 	movx	a,@dptr
      001356 FD               [12] 3993 	mov	r5,a
      001357 A3               [24] 3994 	inc	dptr
      001358 E0               [24] 3995 	movx	a,@dptr
      001359 FE               [12] 3996 	mov	r6,a
      00135A A3               [24] 3997 	inc	dptr
      00135B E0               [24] 3998 	movx	a,@dptr
      00135C FF               [12] 3999 	mov	r7,a
      00135D ED               [12] 4000 	mov	a,r5
      00135E 4E               [12] 4001 	orl	a,r6
      00135F 60 1F            [24] 4002 	jz	00101$
                                   4003 ;	src/main.c:464: || dynamic_buffers_list.head->next == NULL) 
      001361 74 08            [12] 4004 	mov	a,#0x08
      001363 2D               [12] 4005 	add	a,r5
      001364 FD               [12] 4006 	mov	r5,a
      001365 E4               [12] 4007 	clr	a
      001366 3E               [12] 4008 	addc	a,r6
      001367 FE               [12] 4009 	mov	r6,a
      001368 8D 82            [24] 4010 	mov	dpl,r5
      00136A 8E 83            [24] 4011 	mov	dph,r6
      00136C 8F F0            [24] 4012 	mov	b,r7
      00136E 12r00r00         [24] 4013 	lcall	__gptrget
      001371 FD               [12] 4014 	mov	r5,a
      001372 A3               [24] 4015 	inc	dptr
      001373 12r00r00         [24] 4016 	lcall	__gptrget
      001376 FE               [12] 4017 	mov	r6,a
      001377 A3               [24] 4018 	inc	dptr
      001378 12r00r00         [24] 4019 	lcall	__gptrget
      00137B FF               [12] 4020 	mov	r7,a
      00137C ED               [12] 4021 	mov	a,r5
      00137D 4E               [12] 4022 	orl	a,r6
      00137E 70 03            [24] 4023 	jnz	00102$
      001380                       4024 00101$:
                                   4025 ;	src/main.c:466: P1_0 = OFF;
                                   4026 ;	assignBit
      001380 C2 90            [12] 4027 	clr	_P1_0
                                   4028 ;	src/main.c:467: return; 
      001382 22               [24] 4029 	ret
      001383                       4030 00102$:
                                   4031 ;	src/main.c:470: buffer_t *buffer_3 = dynamic_buffers_list.head->next;
      001383 8D 02            [24] 4032 	mov	ar2,r5
      001385 8E 03            [24] 4033 	mov	ar3,r6
      001387 8F 04            [24] 4034 	mov	ar4,r7
                                   4035 ;	src/main.c:471: for(size_t i = 0; i < buffer_3->curr_available_char; i++)
      001389 74 06            [12] 4036 	mov	a,#0x06
      00138B 2D               [12] 4037 	add	a,r5
      00138C FD               [12] 4038 	mov	r5,a
      00138D E4               [12] 4039 	clr	a
      00138E 3E               [12] 4040 	addc	a,r6
      00138F FE               [12] 4041 	mov	r6,a
      001390 78 00            [12] 4042 	mov	r0,#0x00
      001392 79 00            [12] 4043 	mov	r1,#0x00
      001394                       4044 00109$:
      001394 C0 02            [24] 4045 	push	ar2
      001396 C0 03            [24] 4046 	push	ar3
      001398 C0 04            [24] 4047 	push	ar4
      00139A 8D 82            [24] 4048 	mov	dpl,r5
      00139C 8E 83            [24] 4049 	mov	dph,r6
      00139E 8F F0            [24] 4050 	mov	b,r7
      0013A0 12r00r00         [24] 4051 	lcall	__gptrget
      0013A3 FB               [12] 4052 	mov	r3,a
      0013A4 A3               [24] 4053 	inc	dptr
      0013A5 12r00r00         [24] 4054 	lcall	__gptrget
      0013A8 FC               [12] 4055 	mov	r4,a
      0013A9 C3               [12] 4056 	clr	c
      0013AA E8               [12] 4057 	mov	a,r0
      0013AB 9B               [12] 4058 	subb	a,r3
      0013AC E9               [12] 4059 	mov	a,r1
      0013AD 9C               [12] 4060 	subb	a,r4
      0013AE D0 04            [24] 4061 	pop	ar4
      0013B0 D0 03            [24] 4062 	pop	ar3
      0013B2 D0 02            [24] 4063 	pop	ar2
      0013B4 50 6B            [24] 4064 	jnc	00107$
                                   4065 ;	src/main.c:473: register char c = buffer_3->buffer[i];
      0013B6 C0 05            [24] 4066 	push	ar5
      0013B8 C0 06            [24] 4067 	push	ar6
      0013BA C0 07            [24] 4068 	push	ar7
      0013BC 8A 82            [24] 4069 	mov	dpl,r2
      0013BE 8B 83            [24] 4070 	mov	dph,r3
      0013C0 8C F0            [24] 4071 	mov	b,r4
      0013C2 12r00r00         [24] 4072 	lcall	__gptrget
      0013C5 FE               [12] 4073 	mov	r6,a
      0013C6 A3               [24] 4074 	inc	dptr
      0013C7 12r00r00         [24] 4075 	lcall	__gptrget
      0013CA FF               [12] 4076 	mov	r7,a
      0013CB E8               [12] 4077 	mov	a,r0
      0013CC 2E               [12] 4078 	add	a,r6
      0013CD F5 82            [12] 4079 	mov	dpl,a
      0013CF E9               [12] 4080 	mov	a,r1
      0013D0 3F               [12] 4081 	addc	a,r7
      0013D1 F5 83            [12] 4082 	mov	dph,a
      0013D3 E0               [24] 4083 	movx	a,@dptr
      0013D4 F5*35            [12] 4084 	mov	_hashtag_command_handler_c_196609_174,a
                                   4085 ;	src/main.c:474: if (c <= 'Z' || c >= 'A')
      0013D6 C3               [12] 4086 	clr	c
      0013D7 74 5A            [12] 4087 	mov	a,#0x5a
      0013D9 95*35            [12] 4088 	subb	a,_hashtag_command_handler_c_196609_174
      0013DB D0 07            [24] 4089 	pop	ar7
      0013DD D0 06            [24] 4090 	pop	ar6
      0013DF D0 05            [24] 4091 	pop	ar5
      0013E1 50 06            [24] 4092 	jnc	00104$
      0013E3 74 BF            [12] 4093 	mov	a,#0x100 - 0x41
      0013E5 25*35            [12] 4094 	add	a,_hashtag_command_handler_c_196609_174
      0013E7 50 30            [24] 4095 	jnc	00110$
      0013E9                       4096 00104$:
                                   4097 ;	src/main.c:476: buffer_3->buffer[i] |= LOWER_CASE_MASK;
      0013E9 C0 05            [24] 4098 	push	ar5
      0013EB C0 06            [24] 4099 	push	ar6
      0013ED C0 07            [24] 4100 	push	ar7
      0013EF 8A 82            [24] 4101 	mov	dpl,r2
      0013F1 8B 83            [24] 4102 	mov	dph,r3
      0013F3 8C F0            [24] 4103 	mov	b,r4
      0013F5 12r00r00         [24] 4104 	lcall	__gptrget
      0013F8 FE               [12] 4105 	mov	r6,a
      0013F9 A3               [24] 4106 	inc	dptr
      0013FA 12r00r00         [24] 4107 	lcall	__gptrget
      0013FD FF               [12] 4108 	mov	r7,a
      0013FE E8               [12] 4109 	mov	a,r0
      0013FF 2E               [12] 4110 	add	a,r6
      001400 FE               [12] 4111 	mov	r6,a
      001401 E9               [12] 4112 	mov	a,r1
      001402 3F               [12] 4113 	addc	a,r7
      001403 FF               [12] 4114 	mov	r7,a
      001404 8E 82            [24] 4115 	mov	dpl,r6
      001406 8F 83            [24] 4116 	mov	dph,r7
      001408 E0               [24] 4117 	movx	a,@dptr
      001409 FD               [12] 4118 	mov	r5,a
      00140A 43 05 20         [24] 4119 	orl	ar5,#0x20
      00140D 8E 82            [24] 4120 	mov	dpl,r6
      00140F 8F 83            [24] 4121 	mov	dph,r7
      001411 ED               [12] 4122 	mov	a,r5
      001412 F0               [24] 4123 	movx	@dptr,a
                                   4124 ;	src/main.c:480: printf("\r\n Done");
      001413 D0 07            [24] 4125 	pop	ar7
      001415 D0 06            [24] 4126 	pop	ar6
      001417 D0 05            [24] 4127 	pop	ar5
                                   4128 ;	src/main.c:476: buffer_3->buffer[i] |= LOWER_CASE_MASK;
      001419                       4129 00110$:
                                   4130 ;	src/main.c:471: for(size_t i = 0; i < buffer_3->curr_available_char; i++)
      001419 08               [12] 4131 	inc	r0
      00141A B8 00 01         [24] 4132 	cjne	r0,#0x00,00135$
      00141D 09               [12] 4133 	inc	r1
      00141E                       4134 00135$:
      00141E 02r13r94         [24] 4135 	ljmp	00109$
      001421                       4136 00107$:
                                   4137 ;	src/main.c:479: P1_0 = OFF;
                                   4138 ;	assignBit
      001421 C2 90            [12] 4139 	clr	_P1_0
                                   4140 ;	src/main.c:480: printf("\r\n Done");
      001423 74rB0            [12] 4141 	mov	a,#___str_28
      001425 C0 E0            [24] 4142 	push	acc
      001427 74s03            [12] 4143 	mov	a,#(___str_28 >> 8)
      001429 C0 E0            [24] 4144 	push	acc
      00142B 74 80            [12] 4145 	mov	a,#0x80
      00142D C0 E0            [24] 4146 	push	acc
      00142F 12r00r00         [24] 4147 	lcall	_printf
      001432 15 81            [12] 4148 	dec	sp
      001434 15 81            [12] 4149 	dec	sp
      001436 15 81            [12] 4150 	dec	sp
                                   4151 ;	src/main.c:481: }
      001438 22               [24] 4152 	ret
                                   4153 ;------------------------------------------------------------
                                   4154 ;Allocation info for local variables in function 'plus_command_handler'
                                   4155 ;------------------------------------------------------------
                                   4156 ;size                      Allocated with name '_plus_command_handler_size_65537_177'
                                   4157 ;new_buffer                Allocated with name '_plus_command_handler_new_buffer_65538_179'
                                   4158 ;------------------------------------------------------------
                                   4159 ;	src/main.c:484: void plus_command_handler() 
                                   4160 ;	-----------------------------------------
                                   4161 ;	 function plus_command_handler
                                   4162 ;	-----------------------------------------
      001439                       4163 _plus_command_handler:
                                   4164 ;	src/main.c:486: command_header("\r\n Alloc Buffer");
      001439 90r03rDC         [24] 4165 	mov	dptr,#___str_30
      00143C 75 F0 80         [24] 4166 	mov	b,#0x80
      00143F 12r08rC1         [24] 4167 	lcall	_command_header
                                   4168 ;	src/main.c:488: while (true) {
      001442                       4169 00105$:
                                   4170 ;	src/main.c:489: printf("\r\nPlease enter a size for the new buffer, [200,600]: ");
      001442 74rEC            [12] 4171 	mov	a,#___str_31
      001444 C0 E0            [24] 4172 	push	acc
      001446 74s03            [12] 4173 	mov	a,#(___str_31 >> 8)
      001448 C0 E0            [24] 4174 	push	acc
      00144A 74 80            [12] 4175 	mov	a,#0x80
      00144C C0 E0            [24] 4176 	push	acc
      00144E 12r00r00         [24] 4177 	lcall	_printf
      001451 15 81            [12] 4178 	dec	sp
      001453 15 81            [12] 4179 	dec	sp
      001455 15 81            [12] 4180 	dec	sp
                                   4181 ;	src/main.c:490: get_string();
      001457 12r00r00         [24] 4182 	lcall	_get_string
                                   4183 ;	src/main.c:491: size = atoi(get_input_buffer());
      00145A 12r00r00         [24] 4184 	lcall	_get_input_buffer
      00145D 12r00r00         [24] 4185 	lcall	_atoi
      001460 AE 82            [24] 4186 	mov	r6,dpl
      001462 AF 83            [24] 4187 	mov	r7,dph
                                   4188 ;	src/main.c:492: if (size <= MAX_USER_DETERMINED_BUFFER_SZ && size >= MIN_USER_DETERMINED_BUFFER_SZ) break;
      001464 C3               [12] 4189 	clr	c
      001465 74 58            [12] 4190 	mov	a,#0x58
      001467 9E               [12] 4191 	subb	a,r6
      001468 74 82            [12] 4192 	mov	a,#(0x02 ^ 0x80)
      00146A 8F F0            [24] 4193 	mov	b,r7
      00146C 63 F0 80         [24] 4194 	xrl	b,#0x80
      00146F 95 F0            [12] 4195 	subb	a,b
      001471 40 0A            [24] 4196 	jc	00102$
      001473 EE               [12] 4197 	mov	a,r6
      001474 94 C8            [12] 4198 	subb	a,#0xc8
      001476 EF               [12] 4199 	mov	a,r7
      001477 64 80            [12] 4200 	xrl	a,#0x80
      001479 94 80            [12] 4201 	subb	a,#0x80
      00147B 50 17            [24] 4202 	jnc	00106$
      00147D                       4203 00102$:
                                   4204 ;	src/main.c:493: printf("\r\nBuffer size invalid!! Please try again");
      00147D 74r22            [12] 4205 	mov	a,#___str_32
      00147F C0 E0            [24] 4206 	push	acc
      001481 74s04            [12] 4207 	mov	a,#(___str_32 >> 8)
      001483 C0 E0            [24] 4208 	push	acc
      001485 74 80            [12] 4209 	mov	a,#0x80
      001487 C0 E0            [24] 4210 	push	acc
      001489 12r00r00         [24] 4211 	lcall	_printf
      00148C 15 81            [12] 4212 	dec	sp
      00148E 15 81            [12] 4213 	dec	sp
      001490 15 81            [12] 4214 	dec	sp
      001492 80 AE            [24] 4215 	sjmp	00105$
      001494                       4216 00106$:
                                   4217 ;	src/main.c:496: buffer_t *new_buffer = alloc_new_buffer((size_t) size);
      001494 8E 82            [24] 4218 	mov	dpl,r6
      001496 8F 83            [24] 4219 	mov	dph,r7
      001498 12r00rD9         [24] 4220 	lcall	_alloc_new_buffer
      00149B AD 82            [24] 4221 	mov	r5,dpl
      00149D AE 83            [24] 4222 	mov	r6,dph
      00149F AF F0            [24] 4223 	mov	r7,b
                                   4224 ;	src/main.c:498: if (new_buffer == NULL)
      0014A1 ED               [12] 4225 	mov	a,r5
      0014A2 4E               [12] 4226 	orl	a,r6
      0014A3 70 16            [24] 4227 	jnz	00108$
                                   4228 ;	src/main.c:500: printf("\r\n Allocation failed; able to allocate header but not buffer");
      0014A5 74r4B            [12] 4229 	mov	a,#___str_33
      0014A7 C0 E0            [24] 4230 	push	acc
      0014A9 74s04            [12] 4231 	mov	a,#(___str_33 >> 8)
      0014AB C0 E0            [24] 4232 	push	acc
      0014AD 74 80            [12] 4233 	mov	a,#0x80
      0014AF C0 E0            [24] 4234 	push	acc
      0014B1 12r00r00         [24] 4235 	lcall	_printf
      0014B4 15 81            [12] 4236 	dec	sp
      0014B6 15 81            [12] 4237 	dec	sp
      0014B8 15 81            [12] 4238 	dec	sp
                                   4239 ;	src/main.c:501: return;
      0014BA 22               [24] 4240 	ret
      0014BB                       4241 00108$:
                                   4242 ;	src/main.c:504: append_to_buffer_list(&dynamic_buffers_list, new_buffer);
      0014BB 90r00r00         [24] 4243 	mov	dptr,#_append_to_buffer_list_PARM_2
      0014BE ED               [12] 4244 	mov	a,r5
      0014BF F0               [24] 4245 	movx	@dptr,a
      0014C0 EE               [12] 4246 	mov	a,r6
      0014C1 A3               [24] 4247 	inc	dptr
      0014C2 F0               [24] 4248 	movx	@dptr,a
      0014C3 EF               [12] 4249 	mov	a,r7
      0014C4 A3               [24] 4250 	inc	dptr
      0014C5 F0               [24] 4251 	movx	@dptr,a
      0014C6 90r00r00         [24] 4252 	mov	dptr,#_dynamic_buffers_list
      0014C9 75 F0 00         [24] 4253 	mov	b,#0x00
      0014CC 12r00r00         [24] 4254 	lcall	_append_to_buffer_list
                                   4255 ;	src/main.c:506: printf("\r\n Allocation successful!! New buffer added");
      0014CF 74r88            [12] 4256 	mov	a,#___str_34
      0014D1 C0 E0            [24] 4257 	push	acc
      0014D3 74s04            [12] 4258 	mov	a,#(___str_34 >> 8)
      0014D5 C0 E0            [24] 4259 	push	acc
      0014D7 74 80            [12] 4260 	mov	a,#0x80
      0014D9 C0 E0            [24] 4261 	push	acc
      0014DB 12r00r00         [24] 4262 	lcall	_printf
      0014DE 15 81            [12] 4263 	dec	sp
      0014E0 15 81            [12] 4264 	dec	sp
      0014E2 15 81            [12] 4265 	dec	sp
                                   4266 ;	src/main.c:508: }
      0014E4 22               [24] 4267 	ret
                                   4268 ;------------------------------------------------------------
                                   4269 ;Allocation info for local variables in function 'minus_command_handler'
                                   4270 ;------------------------------------------------------------
                                   4271 ;length                    Allocated with name '_minus_command_handler_length_65537_182'
                                   4272 ;buffer_num                Allocated with name '_minus_command_handler_buffer_num_65538_183'
                                   4273 ;freed                     Allocated with name '_minus_command_handler_freed_131074_187'
                                   4274 ;------------------------------------------------------------
                                   4275 ;	src/main.c:510: void minus_command_handler() 
                                   4276 ;	-----------------------------------------
                                   4277 ;	 function minus_command_handler
                                   4278 ;	-----------------------------------------
      0014E5                       4279 _minus_command_handler:
                                   4280 ;	src/main.c:512: command_header("Free Buffer");
      0014E5 90r04rB4         [24] 4281 	mov	dptr,#___str_35
      0014E8 75 F0 80         [24] 4282 	mov	b,#0x80
      0014EB 12r08rC1         [24] 4283 	lcall	_command_header
                                   4284 ;	src/main.c:513: size_t length = ll_length(&dynamic_buffers_list);
      0014EE 90r00r00         [24] 4285 	mov	dptr,#_dynamic_buffers_list
      0014F1 75 F0 00         [24] 4286 	mov	b,#0x00
      0014F4 12r00r00         [24] 4287 	lcall	_ll_length
      0014F7 AE 82            [24] 4288 	mov	r6,dpl
      0014F9 AF 83            [24] 4289 	mov	r7,dph
                                   4290 ;	src/main.c:514: printf("\r\nPlease enter the number of the buffer you would like to free[2-%zu]: ", length + MIN_DYNAMIC_BUFFER_NUM - 1);
      0014FB 74 01            [12] 4291 	mov	a,#0x01
      0014FD 2E               [12] 4292 	add	a,r6
      0014FE FC               [12] 4293 	mov	r4,a
      0014FF E4               [12] 4294 	clr	a
      001500 3F               [12] 4295 	addc	a,r7
      001501 FD               [12] 4296 	mov	r5,a
      001502 C0 07            [24] 4297 	push	ar7
      001504 C0 06            [24] 4298 	push	ar6
      001506 C0 04            [24] 4299 	push	ar4
      001508 C0 05            [24] 4300 	push	ar5
      00150A 74rC0            [12] 4301 	mov	a,#___str_36
      00150C C0 E0            [24] 4302 	push	acc
      00150E 74s04            [12] 4303 	mov	a,#(___str_36 >> 8)
      001510 C0 E0            [24] 4304 	push	acc
      001512 74 80            [12] 4305 	mov	a,#0x80
      001514 C0 E0            [24] 4306 	push	acc
      001516 12r00r00         [24] 4307 	lcall	_printf
      001519 E5 81            [12] 4308 	mov	a,sp
      00151B 24 FB            [12] 4309 	add	a,#0xfb
      00151D F5 81            [12] 4310 	mov	sp,a
                                   4311 ;	src/main.c:515: get_string(); 
      00151F 12r00r00         [24] 4312 	lcall	_get_string
                                   4313 ;	src/main.c:516: int buffer_num = atoi(get_input_buffer()); 
      001522 12r00r00         [24] 4314 	lcall	_get_input_buffer
      001525 12r00r00         [24] 4315 	lcall	_atoi
      001528 AC 82            [24] 4316 	mov	r4,dpl
      00152A AD 83            [24] 4317 	mov	r5,dph
      00152C D0 06            [24] 4318 	pop	ar6
      00152E D0 07            [24] 4319 	pop	ar7
                                   4320 ;	src/main.c:517: if (buffer_num < 0)
      001530 ED               [12] 4321 	mov	a,r5
      001531 30 E7 16         [24] 4322 	jnb	acc.7,00111$
                                   4323 ;	src/main.c:519: printf("\r\n Invalid buffer number, negatives not valid");
      001534 74r08            [12] 4324 	mov	a,#___str_37
      001536 C0 E0            [24] 4325 	push	acc
      001538 74s05            [12] 4326 	mov	a,#(___str_37 >> 8)
      00153A C0 E0            [24] 4327 	push	acc
      00153C 74 80            [12] 4328 	mov	a,#0x80
      00153E C0 E0            [24] 4329 	push	acc
      001540 12r00r00         [24] 4330 	lcall	_printf
      001543 15 81            [12] 4331 	dec	sp
      001545 15 81            [12] 4332 	dec	sp
      001547 15 81            [12] 4333 	dec	sp
                                   4334 ;	src/main.c:520: return;
      001549 22               [24] 4335 	ret
      00154A                       4336 00111$:
                                   4337 ;	src/main.c:522: else if (buffer_num <= 1) 
      00154A C3               [12] 4338 	clr	c
      00154B 74 01            [12] 4339 	mov	a,#0x01
      00154D 9C               [12] 4340 	subb	a,r4
      00154E 74 80            [12] 4341 	mov	a,#(0x00 ^ 0x80)
      001550 8D F0            [24] 4342 	mov	b,r5
      001552 63 F0 80         [24] 4343 	xrl	b,#0x80
      001555 95 F0            [12] 4344 	subb	a,b
      001557 40 16            [24] 4345 	jc	00108$
                                   4346 ;	src/main.c:524: printf("\r\n Invalid buffer number, buffers 0 & 1 are protected");
      001559 74r36            [12] 4347 	mov	a,#___str_38
      00155B C0 E0            [24] 4348 	push	acc
      00155D 74s05            [12] 4349 	mov	a,#(___str_38 >> 8)
      00155F C0 E0            [24] 4350 	push	acc
      001561 74 80            [12] 4351 	mov	a,#0x80
      001563 C0 E0            [24] 4352 	push	acc
      001565 12r00r00         [24] 4353 	lcall	_printf
      001568 15 81            [12] 4354 	dec	sp
      00156A 15 81            [12] 4355 	dec	sp
      00156C 15 81            [12] 4356 	dec	sp
                                   4357 ;	src/main.c:525: return; 
      00156E 22               [24] 4358 	ret
      00156F                       4359 00108$:
                                   4360 ;	src/main.c:527: else if (buffer_num >= length)
      00156F 8C 02            [24] 4361 	mov	ar2,r4
      001571 8D 03            [24] 4362 	mov	ar3,r5
      001573 C3               [12] 4363 	clr	c
      001574 EA               [12] 4364 	mov	a,r2
      001575 9E               [12] 4365 	subb	a,r6
      001576 EB               [12] 4366 	mov	a,r3
      001577 9F               [12] 4367 	subb	a,r7
      001578 40 16            [24] 4368 	jc	00105$
                                   4369 ;	src/main.c:529: printf("\r\n Invalid Buffer number; out of range");
      00157A 74r6C            [12] 4370 	mov	a,#___str_39
      00157C C0 E0            [24] 4371 	push	acc
      00157E 74s05            [12] 4372 	mov	a,#(___str_39 >> 8)
      001580 C0 E0            [24] 4373 	push	acc
      001582 74 80            [12] 4374 	mov	a,#0x80
      001584 C0 E0            [24] 4375 	push	acc
      001586 12r00r00         [24] 4376 	lcall	_printf
      001589 15 81            [12] 4377 	dec	sp
      00158B 15 81            [12] 4378 	dec	sp
      00158D 15 81            [12] 4379 	dec	sp
                                   4380 ;	src/main.c:530: return;
      00158F 22               [24] 4381 	ret
      001590                       4382 00105$:
                                   4383 ;	src/main.c:534: bool freed = remove_from_buffer_list(&dynamic_buffers_list, (size_t)(buffer_num-2));
      001590 EC               [12] 4384 	mov	a,r4
      001591 24 FE            [12] 4385 	add	a,#0xfe
      001593 FC               [12] 4386 	mov	r4,a
      001594 ED               [12] 4387 	mov	a,r5
      001595 34 FF            [12] 4388 	addc	a,#0xff
      001597 FD               [12] 4389 	mov	r5,a
      001598 90r00r00         [24] 4390 	mov	dptr,#_remove_from_buffer_list_PARM_2
      00159B EC               [12] 4391 	mov	a,r4
      00159C F0               [24] 4392 	movx	@dptr,a
      00159D ED               [12] 4393 	mov	a,r5
      00159E A3               [24] 4394 	inc	dptr
      00159F F0               [24] 4395 	movx	@dptr,a
      0015A0 90r00r00         [24] 4396 	mov	dptr,#_dynamic_buffers_list
      0015A3 75 F0 00         [24] 4397 	mov	b,#0x00
      0015A6 12r00r00         [24] 4398 	lcall	_remove_from_buffer_list
      0015A9 E5 82            [12] 4399 	mov	a,dpl
                                   4400 ;	src/main.c:535: if (freed)
      0015AB 60 16            [24] 4401 	jz	00102$
                                   4402 ;	src/main.c:537: printf("\r\n Successfully removed buffer");
      0015AD 74r93            [12] 4403 	mov	a,#___str_40
      0015AF C0 E0            [24] 4404 	push	acc
      0015B1 74s05            [12] 4405 	mov	a,#(___str_40 >> 8)
      0015B3 C0 E0            [24] 4406 	push	acc
      0015B5 74 80            [12] 4407 	mov	a,#0x80
      0015B7 C0 E0            [24] 4408 	push	acc
      0015B9 12r00r00         [24] 4409 	lcall	_printf
      0015BC 15 81            [12] 4410 	dec	sp
      0015BE 15 81            [12] 4411 	dec	sp
      0015C0 15 81            [12] 4412 	dec	sp
      0015C2 22               [24] 4413 	ret
      0015C3                       4414 00102$:
                                   4415 ;	src/main.c:541: printf("\r\n Failed to remove buffer, ll error");
      0015C3 74rB2            [12] 4416 	mov	a,#___str_41
      0015C5 C0 E0            [24] 4417 	push	acc
      0015C7 74s05            [12] 4418 	mov	a,#(___str_41 >> 8)
      0015C9 C0 E0            [24] 4419 	push	acc
      0015CB 74 80            [12] 4420 	mov	a,#0x80
      0015CD C0 E0            [24] 4421 	push	acc
      0015CF 12r00r00         [24] 4422 	lcall	_printf
      0015D2 15 81            [12] 4423 	dec	sp
      0015D4 15 81            [12] 4424 	dec	sp
      0015D6 15 81            [12] 4425 	dec	sp
                                   4426 ;	src/main.c:545: }
      0015D8 22               [24] 4427 	ret
                                   4428 ;------------------------------------------------------------
                                   4429 ;Allocation info for local variables in function 'star_command_handler'
                                   4430 ;------------------------------------------------------------
                                   4431 ;	src/main.c:548: void star_command_handler()
                                   4432 ;	-----------------------------------------
                                   4433 ;	 function star_command_handler
                                   4434 ;	-----------------------------------------
      0015D9                       4435 _star_command_handler:
                                   4436 ;	src/main.c:550: printf("\r\nResetting device");
      0015D9 74rD7            [12] 4437 	mov	a,#___str_42
      0015DB C0 E0            [24] 4438 	push	acc
      0015DD 74s05            [12] 4439 	mov	a,#(___str_42 >> 8)
      0015DF C0 E0            [24] 4440 	push	acc
      0015E1 74 80            [12] 4441 	mov	a,#0x80
      0015E3 C0 E0            [24] 4442 	push	acc
      0015E5 12r00r00         [24] 4443 	lcall	_printf
      0015E8 15 81            [12] 4444 	dec	sp
      0015EA 15 81            [12] 4445 	dec	sp
      0015EC 15 81            [12] 4446 	dec	sp
                                   4447 ;	src/main.c:551: WDTRST = 0x1E;
      0015EE 75 A6 1E         [24] 4448 	mov	_WDTRST,#0x1e
                                   4449 ;	src/main.c:552: WDTRST = 0xE1; //start watchdog timer
      0015F1 75 A6 E1         [24] 4450 	mov	_WDTRST,#0xe1
      0015F4                       4451 00103$:
                                   4452 ;	src/main.c:554: }
      0015F4 80 FE            [24] 4453 	sjmp	00103$
                                   4454 ;------------------------------------------------------------
                                   4455 ;Allocation info for local variables in function 'ampersand_command_handler'
                                   4456 ;------------------------------------------------------------
                                   4457 ;sloc0                     Allocated with name '_ampersand_command_handler_sloc0_1_0'
                                   4458 ;sloc1                     Allocated with name '_ampersand_command_handler_sloc1_1_0'
                                   4459 ;sloc2                     Allocated with name '_ampersand_command_handler_sloc2_1_0'
                                   4460 ;length                    Allocated with name '_ampersand_command_handler_length_65537_193'
                                   4461 ;selected_buffer           Allocated with name '_ampersand_command_handler_selected_buffer_65538_194'
                                   4462 ;buffer                    Allocated with name '_ampersand_command_handler_buffer_65539_196'
                                   4463 ;address                   Allocated with name '_ampersand_command_handler_address_131075_198'
                                   4464 ;------------------------------------------------------------
                                   4465 ;	src/main.c:556: void ampersand_command_handler()
                                   4466 ;	-----------------------------------------
                                   4467 ;	 function ampersand_command_handler
                                   4468 ;	-----------------------------------------
      0015F6                       4469 _ampersand_command_handler:
                                   4470 ;	src/main.c:558: command_header("\r\n Dump Buffer");
      0015F6 90r05rEA         [24] 4471 	mov	dptr,#___str_43
      0015F9 75 F0 80         [24] 4472 	mov	b,#0x80
      0015FC 12r08rC1         [24] 4473 	lcall	_command_header
                                   4474 ;	src/main.c:559: size_t length = ll_length(&dynamic_buffers_list);
      0015FF 90r00r00         [24] 4475 	mov	dptr,#_dynamic_buffers_list
      001602 75 F0 00         [24] 4476 	mov	b,#0x00
      001605 12r00r00         [24] 4477 	lcall	_ll_length
      001608 AE 82            [24] 4478 	mov	r6,dpl
      00160A AF 83            [24] 4479 	mov	r7,dph
                                   4480 ;	src/main.c:560: printf("\r\nEnter a valid buffer # [2-%zu]: ", length + MIN_DYNAMIC_BUFFER_NUM - 1);
      00160C 74 01            [12] 4481 	mov	a,#0x01
      00160E 2E               [12] 4482 	add	a,r6
      00160F FC               [12] 4483 	mov	r4,a
      001610 E4               [12] 4484 	clr	a
      001611 3F               [12] 4485 	addc	a,r7
      001612 FD               [12] 4486 	mov	r5,a
      001613 C0 07            [24] 4487 	push	ar7
      001615 C0 06            [24] 4488 	push	ar6
      001617 C0 04            [24] 4489 	push	ar4
      001619 C0 05            [24] 4490 	push	ar5
      00161B 74rF9            [12] 4491 	mov	a,#___str_44
      00161D C0 E0            [24] 4492 	push	acc
      00161F 74s05            [12] 4493 	mov	a,#(___str_44 >> 8)
      001621 C0 E0            [24] 4494 	push	acc
      001623 74 80            [12] 4495 	mov	a,#0x80
      001625 C0 E0            [24] 4496 	push	acc
      001627 12r00r00         [24] 4497 	lcall	_printf
      00162A E5 81            [12] 4498 	mov	a,sp
      00162C 24 FB            [12] 4499 	add	a,#0xfb
      00162E F5 81            [12] 4500 	mov	sp,a
                                   4501 ;	src/main.c:561: get_string();
      001630 12r00r00         [24] 4502 	lcall	_get_string
                                   4503 ;	src/main.c:562: int selected_buffer = atoi(get_input_buffer());
      001633 12r00r00         [24] 4504 	lcall	_get_input_buffer
      001636 12r00r00         [24] 4505 	lcall	_atoi
      001639 AC 82            [24] 4506 	mov	r4,dpl
      00163B AD 83            [24] 4507 	mov	r5,dph
      00163D D0 06            [24] 4508 	pop	ar6
      00163F D0 07            [24] 4509 	pop	ar7
                                   4510 ;	src/main.c:563: if (selected_buffer < MIN_DYNAMIC_BUFFER_NUM || selected_buffer >= (MIN_DYNAMIC_BUFFER_NUM + length))
      001641 C3               [12] 4511 	clr	c
      001642 EC               [12] 4512 	mov	a,r4
      001643 94 02            [12] 4513 	subb	a,#0x02
      001645 ED               [12] 4514 	mov	a,r5
      001646 64 80            [12] 4515 	xrl	a,#0x80
      001648 94 80            [12] 4516 	subb	a,#0x80
      00164A 40 12            [24] 4517 	jc	00101$
      00164C 74 02            [12] 4518 	mov	a,#0x02
      00164E 2E               [12] 4519 	add	a,r6
      00164F FE               [12] 4520 	mov	r6,a
      001650 E4               [12] 4521 	clr	a
      001651 3F               [12] 4522 	addc	a,r7
      001652 FF               [12] 4523 	mov	r7,a
      001653 8C 02            [24] 4524 	mov	ar2,r4
      001655 8D 03            [24] 4525 	mov	ar3,r5
      001657 C3               [12] 4526 	clr	c
      001658 EA               [12] 4527 	mov	a,r2
      001659 9E               [12] 4528 	subb	a,r6
      00165A EB               [12] 4529 	mov	a,r3
      00165B 9F               [12] 4530 	subb	a,r7
      00165C 40 16            [24] 4531 	jc	00102$
      00165E                       4532 00101$:
                                   4533 ;	src/main.c:565: printf("\r\nInvalid buffer number; returning to prompt");
      00165E 74r1C            [12] 4534 	mov	a,#___str_45
      001660 C0 E0            [24] 4535 	push	acc
      001662 74s06            [12] 4536 	mov	a,#(___str_45 >> 8)
      001664 C0 E0            [24] 4537 	push	acc
      001666 74 80            [12] 4538 	mov	a,#0x80
      001668 C0 E0            [24] 4539 	push	acc
      00166A 12r00r00         [24] 4540 	lcall	_printf
      00166D 15 81            [12] 4541 	dec	sp
      00166F 15 81            [12] 4542 	dec	sp
      001671 15 81            [12] 4543 	dec	sp
                                   4544 ;	src/main.c:566: return;
      001673 22               [24] 4545 	ret
      001674                       4546 00102$:
                                   4547 ;	src/main.c:569: buffer_t *buffer = ll_get_elem(&dynamic_buffers_list, (size_t) (selected_buffer - 2));
      001674 EC               [12] 4548 	mov	a,r4
      001675 24 FE            [12] 4549 	add	a,#0xfe
      001677 FE               [12] 4550 	mov	r6,a
      001678 ED               [12] 4551 	mov	a,r5
      001679 34 FF            [12] 4552 	addc	a,#0xff
      00167B FF               [12] 4553 	mov	r7,a
      00167C 90r00r00         [24] 4554 	mov	dptr,#_ll_get_elem_PARM_2
      00167F EE               [12] 4555 	mov	a,r6
      001680 F0               [24] 4556 	movx	@dptr,a
      001681 EF               [12] 4557 	mov	a,r7
      001682 A3               [24] 4558 	inc	dptr
      001683 F0               [24] 4559 	movx	@dptr,a
      001684 90r00r00         [24] 4560 	mov	dptr,#_dynamic_buffers_list
      001687 75 F0 00         [24] 4561 	mov	b,#0x00
      00168A C0 05            [24] 4562 	push	ar5
      00168C C0 04            [24] 4563 	push	ar4
      00168E 12r00r00         [24] 4564 	lcall	_ll_get_elem
      001691 AB 82            [24] 4565 	mov	r3,dpl
      001693 AE 83            [24] 4566 	mov	r6,dph
      001695 AF F0            [24] 4567 	mov	r7,b
      001697 D0 04            [24] 4568 	pop	ar4
      001699 D0 05            [24] 4569 	pop	ar5
                                   4570 ;	src/main.c:571: if (buffer == NULL)
      00169B EB               [12] 4571 	mov	a,r3
      00169C 4E               [12] 4572 	orl	a,r6
      00169D 70 16            [24] 4573 	jnz	00105$
                                   4574 ;	src/main.c:573: printf("\r\nLL error; returning to prompt");
      00169F 74r49            [12] 4575 	mov	a,#___str_46
      0016A1 C0 E0            [24] 4576 	push	acc
      0016A3 74s06            [12] 4577 	mov	a,#(___str_46 >> 8)
      0016A5 C0 E0            [24] 4578 	push	acc
      0016A7 74 80            [12] 4579 	mov	a,#0x80
      0016A9 C0 E0            [24] 4580 	push	acc
      0016AB 12r00r00         [24] 4581 	lcall	_printf
      0016AE 15 81            [12] 4582 	dec	sp
      0016B0 15 81            [12] 4583 	dec	sp
      0016B2 15 81            [12] 4584 	dec	sp
                                   4585 ;	src/main.c:574: return;
      0016B4 22               [24] 4586 	ret
      0016B5                       4587 00105$:
                                   4588 ;	src/main.c:577: printf("\r\n Buffer %d", selected_buffer);
      0016B5 C0 07            [24] 4589 	push	ar7
      0016B7 C0 06            [24] 4590 	push	ar6
      0016B9 C0 03            [24] 4591 	push	ar3
      0016BB C0 04            [24] 4592 	push	ar4
      0016BD C0 05            [24] 4593 	push	ar5
      0016BF 74r69            [12] 4594 	mov	a,#___str_47
      0016C1 C0 E0            [24] 4595 	push	acc
      0016C3 74s06            [12] 4596 	mov	a,#(___str_47 >> 8)
      0016C5 C0 E0            [24] 4597 	push	acc
      0016C7 74 80            [12] 4598 	mov	a,#0x80
      0016C9 C0 E0            [24] 4599 	push	acc
      0016CB 12r00r00         [24] 4600 	lcall	_printf
      0016CE E5 81            [12] 4601 	mov	a,sp
      0016D0 24 FB            [12] 4602 	add	a,#0xfb
      0016D2 F5 81            [12] 4603 	mov	sp,a
                                   4604 ;	src/main.c:578: printf("\r\n----------");
      0016D4 74r46            [12] 4605 	mov	a,#___str_22
      0016D6 C0 E0            [24] 4606 	push	acc
      0016D8 74s03            [12] 4607 	mov	a,#(___str_22 >> 8)
      0016DA C0 E0            [24] 4608 	push	acc
      0016DC 74 80            [12] 4609 	mov	a,#0x80
      0016DE C0 E0            [24] 4610 	push	acc
      0016E0 12r00r00         [24] 4611 	lcall	_printf
      0016E3 15 81            [12] 4612 	dec	sp
      0016E5 15 81            [12] 4613 	dec	sp
      0016E7 15 81            [12] 4614 	dec	sp
      0016E9 D0 03            [24] 4615 	pop	ar3
      0016EB D0 06            [24] 4616 	pop	ar6
      0016ED D0 07            [24] 4617 	pop	ar7
                                   4618 ;	src/main.c:579: for(char *address = buffer->buffer; address < (buffer->buffer + buffer->size); address++)
      0016EF 8B 82            [24] 4619 	mov	dpl,r3
      0016F1 8E 83            [24] 4620 	mov	dph,r6
      0016F3 8F F0            [24] 4621 	mov	b,r7
      0016F5 12r00r00         [24] 4622 	lcall	__gptrget
      0016F8 FC               [12] 4623 	mov	r4,a
      0016F9 A3               [24] 4624 	inc	dptr
      0016FA 12r00r00         [24] 4625 	lcall	__gptrget
      0016FD FA               [12] 4626 	mov	r2,a
      0016FE 7D 00            [12] 4627 	mov	r5,#0x00
      001700 74 04            [12] 4628 	mov	a,#0x04
      001702 2B               [12] 4629 	add	a,r3
      001703 F5*36            [12] 4630 	mov	_ampersand_command_handler_sloc0_1_0,a
      001705 E4               [12] 4631 	clr	a
      001706 3E               [12] 4632 	addc	a,r6
      001707 F5*37            [12] 4633 	mov	(_ampersand_command_handler_sloc0_1_0 + 1),a
      001709 8F*38            [24] 4634 	mov	(_ampersand_command_handler_sloc0_1_0 + 2),r7
      00170B                       4635 00110$:
      00170B 8B 82            [24] 4636 	mov	dpl,r3
      00170D 8E 83            [24] 4637 	mov	dph,r6
      00170F 8F F0            [24] 4638 	mov	b,r7
      001711 12r00r00         [24] 4639 	lcall	__gptrget
      001714 F8               [12] 4640 	mov	r0,a
      001715 A3               [24] 4641 	inc	dptr
      001716 12r00r00         [24] 4642 	lcall	__gptrget
      001719 F9               [12] 4643 	mov	r1,a
      00171A C0 03            [24] 4644 	push	ar3
      00171C C0 06            [24] 4645 	push	ar6
      00171E C0 07            [24] 4646 	push	ar7
      001720 85*36 82         [24] 4647 	mov	dpl,_ampersand_command_handler_sloc0_1_0
      001723 85*37 83         [24] 4648 	mov	dph,(_ampersand_command_handler_sloc0_1_0 + 1)
      001726 85*38 F0         [24] 4649 	mov	b,(_ampersand_command_handler_sloc0_1_0 + 2)
      001729 12r00r00         [24] 4650 	lcall	__gptrget
      00172C FE               [12] 4651 	mov	r6,a
      00172D A3               [24] 4652 	inc	dptr
      00172E 12r00r00         [24] 4653 	lcall	__gptrget
      001731 FF               [12] 4654 	mov	r7,a
      001732 EE               [12] 4655 	mov	a,r6
      001733 28               [12] 4656 	add	a,r0
      001734 F5*39            [12] 4657 	mov	_ampersand_command_handler_sloc1_1_0,a
      001736 EF               [12] 4658 	mov	a,r7
      001737 39               [12] 4659 	addc	a,r1
      001738 F5*3A            [12] 4660 	mov	(_ampersand_command_handler_sloc1_1_0 + 1),a
      00173A 8C*3B            [24] 4661 	mov	_ampersand_command_handler_sloc2_1_0,r4
      00173C 8A*3C            [24] 4662 	mov	(_ampersand_command_handler_sloc2_1_0 + 1),r2
      00173E 8D*3D            [24] 4663 	mov	(_ampersand_command_handler_sloc2_1_0 + 2),r5
      001740 AB*39            [24] 4664 	mov	r3,_ampersand_command_handler_sloc1_1_0
      001742 AE*3A            [24] 4665 	mov	r6,(_ampersand_command_handler_sloc1_1_0 + 1)
      001744 7F 00            [12] 4666 	mov	r7,#0x00
      001746 C0 03            [24] 4667 	push	ar3
      001748 C0 06            [24] 4668 	push	ar6
      00174A C0 07            [24] 4669 	push	ar7
      00174C 85*3B 82         [24] 4670 	mov	dpl,_ampersand_command_handler_sloc2_1_0
      00174F 85*3C 83         [24] 4671 	mov	dph,(_ampersand_command_handler_sloc2_1_0 + 1)
      001752 85*3D F0         [24] 4672 	mov	b,(_ampersand_command_handler_sloc2_1_0 + 2)
      001755 12r00r00         [24] 4673 	lcall	___gptr_cmp
      001758 15 81            [12] 4674 	dec	sp
      00175A 15 81            [12] 4675 	dec	sp
      00175C 15 81            [12] 4676 	dec	sp
      00175E D0 07            [24] 4677 	pop	ar7
      001760 D0 06            [24] 4678 	pop	ar6
      001762 D0 03            [24] 4679 	pop	ar3
      001764 40 03            [24] 4680 	jc	00138$
      001766 02r17rFE         [24] 4681 	ljmp	00108$
      001769                       4682 00138$:
                                   4683 ;	src/main.c:581: if (MODULE_32(address-buffer->buffer) == 0)
      001769 EC               [12] 4684 	mov	a,r4
      00176A C3               [12] 4685 	clr	c
      00176B 98               [12] 4686 	subb	a,r0
      00176C F8               [12] 4687 	mov	r0,a
      00176D EA               [12] 4688 	mov	a,r2
      00176E 99               [12] 4689 	subb	a,r1
      00176F E8               [12] 4690 	mov	a,r0
      001770 54 1F            [12] 4691 	anl	a,#0x1f
      001772 70 43            [24] 4692 	jnz	00107$
                                   4693 ;	src/main.c:583: printf("\r\n%04X:", (unsigned int) address);
      001774 C0 03            [24] 4694 	push	ar3
      001776 C0 06            [24] 4695 	push	ar6
      001778 C0 07            [24] 4696 	push	ar7
      00177A 8C 00            [24] 4697 	mov	ar0,r4
      00177C 8A 01            [24] 4698 	mov	ar1,r2
      00177E 8D 07            [24] 4699 	mov	ar7,r5
      001780 C0 07            [24] 4700 	push	ar7
      001782 C0 06            [24] 4701 	push	ar6
      001784 C0 05            [24] 4702 	push	ar5
      001786 C0 04            [24] 4703 	push	ar4
      001788 C0 03            [24] 4704 	push	ar3
      00178A C0 02            [24] 4705 	push	ar2
      00178C C0 00            [24] 4706 	push	ar0
      00178E C0 01            [24] 4707 	push	ar1
      001790 74r53            [12] 4708 	mov	a,#___str_23
      001792 C0 E0            [24] 4709 	push	acc
      001794 74s03            [12] 4710 	mov	a,#(___str_23 >> 8)
      001796 C0 E0            [24] 4711 	push	acc
      001798 74 80            [12] 4712 	mov	a,#0x80
      00179A C0 E0            [24] 4713 	push	acc
      00179C 12r00r00         [24] 4714 	lcall	_printf
      00179F E5 81            [12] 4715 	mov	a,sp
      0017A1 24 FB            [12] 4716 	add	a,#0xfb
      0017A3 F5 81            [12] 4717 	mov	sp,a
      0017A5 D0 02            [24] 4718 	pop	ar2
      0017A7 D0 03            [24] 4719 	pop	ar3
      0017A9 D0 04            [24] 4720 	pop	ar4
      0017AB D0 05            [24] 4721 	pop	ar5
      0017AD D0 06            [24] 4722 	pop	ar6
      0017AF D0 07            [24] 4723 	pop	ar7
                                   4724 ;	src/main.c:588: printf("\r\n");
      0017B1 D0 07            [24] 4725 	pop	ar7
      0017B3 D0 06            [24] 4726 	pop	ar6
      0017B5 D0 03            [24] 4727 	pop	ar3
                                   4728 ;	src/main.c:583: printf("\r\n%04X:", (unsigned int) address);
      0017B7                       4729 00107$:
                                   4730 ;	src/main.c:585: printf(" %02hhX", (unsigned char) *address);
      0017B7 8C 82            [24] 4731 	mov	dpl,r4
      0017B9 8A 83            [24] 4732 	mov	dph,r2
      0017BB 8D F0            [24] 4733 	mov	b,r5
      0017BD 12r00r00         [24] 4734 	lcall	__gptrget
      0017C0 F9               [12] 4735 	mov	r1,a
      0017C1 A3               [24] 4736 	inc	dptr
      0017C2 AC 82            [24] 4737 	mov	r4,dpl
      0017C4 AA 83            [24] 4738 	mov	r2,dph
      0017C6 89 00            [24] 4739 	mov	ar0,r1
      0017C8 79 00            [12] 4740 	mov	r1,#0x00
      0017CA C0 07            [24] 4741 	push	ar7
      0017CC C0 06            [24] 4742 	push	ar6
      0017CE C0 05            [24] 4743 	push	ar5
      0017D0 C0 04            [24] 4744 	push	ar4
      0017D2 C0 03            [24] 4745 	push	ar3
      0017D4 C0 02            [24] 4746 	push	ar2
      0017D6 C0 00            [24] 4747 	push	ar0
      0017D8 C0 01            [24] 4748 	push	ar1
      0017DA 74r5B            [12] 4749 	mov	a,#___str_24
      0017DC C0 E0            [24] 4750 	push	acc
      0017DE 74s03            [12] 4751 	mov	a,#(___str_24 >> 8)
      0017E0 C0 E0            [24] 4752 	push	acc
      0017E2 74 80            [12] 4753 	mov	a,#0x80
      0017E4 C0 E0            [24] 4754 	push	acc
      0017E6 12r00r00         [24] 4755 	lcall	_printf
      0017E9 E5 81            [12] 4756 	mov	a,sp
      0017EB 24 FB            [12] 4757 	add	a,#0xfb
      0017ED F5 81            [12] 4758 	mov	sp,a
      0017EF D0 02            [24] 4759 	pop	ar2
      0017F1 D0 03            [24] 4760 	pop	ar3
      0017F3 D0 04            [24] 4761 	pop	ar4
      0017F5 D0 05            [24] 4762 	pop	ar5
      0017F7 D0 06            [24] 4763 	pop	ar6
      0017F9 D0 07            [24] 4764 	pop	ar7
                                   4765 ;	src/main.c:579: for(char *address = buffer->buffer; address < (buffer->buffer + buffer->size); address++)
      0017FB 02r17r0B         [24] 4766 	ljmp	00110$
      0017FE                       4767 00108$:
                                   4768 ;	src/main.c:588: printf("\r\n");
      0017FE 74r09            [12] 4769 	mov	a,#___str_12
      001800 C0 E0            [24] 4770 	push	acc
      001802 74s02            [12] 4771 	mov	a,#(___str_12 >> 8)
      001804 C0 E0            [24] 4772 	push	acc
      001806 74 80            [12] 4773 	mov	a,#0x80
      001808 C0 E0            [24] 4774 	push	acc
      00180A 12r00r00         [24] 4775 	lcall	_printf
      00180D 15 81            [12] 4776 	dec	sp
      00180F 15 81            [12] 4777 	dec	sp
      001811 15 81            [12] 4778 	dec	sp
                                   4779 ;	src/main.c:591: }
      001813 22               [24] 4780 	ret
                                   4781 ;------------------------------------------------------------
                                   4782 ;Allocation info for local variables in function 'main'
                                   4783 ;------------------------------------------------------------
                                   4784 ;c                         Allocated with name '_main_c_65537_202'
                                   4785 ;received_char             Allocated with name '_main_received_char_196610_205'
                                   4786 ;------------------------------------------------------------
                                   4787 ;	src/main.c:595: void main()
                                   4788 ;	-----------------------------------------
                                   4789 ;	 function main
                                   4790 ;	-----------------------------------------
      001814                       4791 _main:
                                   4792 ;	src/main.c:597: initialize_buffers();
      001814 12r01r99         [24] 4793 	lcall	_initialize_buffers
                                   4794 ;	src/main.c:598: unsigned char c = 0;
      001817                       4795 00118$:
                                   4796 ;	src/main.c:603: printf("\r\nEnter a char: ");
      001817 74r76            [12] 4797 	mov	a,#___str_48
      001819 C0 E0            [24] 4798 	push	acc
      00181B 74s06            [12] 4799 	mov	a,#(___str_48 >> 8)
      00181D C0 E0            [24] 4800 	push	acc
      00181F 74 80            [12] 4801 	mov	a,#0x80
      001821 C0 E0            [24] 4802 	push	acc
      001823 12r00r00         [24] 4803 	lcall	_printf
      001826 15 81            [12] 4804 	dec	sp
      001828 15 81            [12] 4805 	dec	sp
      00182A 15 81            [12] 4806 	dec	sp
                                   4807 ;	src/main.c:604: char received_char = get_next_input_char();
      00182C 12r00r00         [24] 4808 	lcall	_get_next_input_char
                                   4809 ;	src/main.c:605: if (is_alphabet_char(received_char))
      00182F AF 82            [24] 4810 	mov  r7,dpl
      001831 C0 07            [24] 4811 	push	ar7
      001833 12r00r04         [24] 4812 	lcall	_is_alphabet_char
      001836 E5 82            [12] 4813 	mov	a,dpl
      001838 D0 07            [24] 4814 	pop	ar7
      00183A 60 14            [24] 4815 	jz	00102$
                                   4816 ;	src/main.c:607: store_in_buffer(&static_buffers[0], received_char);
      00183C 90r00r24         [24] 4817 	mov	dptr,#_store_in_buffer_PARM_2
      00183F EF               [12] 4818 	mov	a,r7
      001840 F0               [24] 4819 	movx	@dptr,a
      001841 90r00r00         [24] 4820 	mov	dptr,#_static_buffers
      001844 75 F0 00         [24] 4821 	mov	b,#0x00
      001847 C0 07            [24] 4822 	push	ar7
      001849 12r07rC5         [24] 4823 	lcall	_store_in_buffer
      00184C D0 07            [24] 4824 	pop	ar7
      00184E 80 12            [24] 4825 	sjmp	00103$
      001850                       4826 00102$:
                                   4827 ;	src/main.c:611: store_in_buffer(&static_buffers[1], received_char);
      001850 90r00r24         [24] 4828 	mov	dptr,#_store_in_buffer_PARM_2
      001853 EF               [12] 4829 	mov	a,r7
      001854 F0               [24] 4830 	movx	@dptr,a
      001855 90r00r0B         [24] 4831 	mov	dptr,#(_static_buffers + 0x000b)
      001858 75 F0 00         [24] 4832 	mov	b,#0x00
      00185B C0 07            [24] 4833 	push	ar7
      00185D 12r07rC5         [24] 4834 	lcall	_store_in_buffer
      001860 D0 07            [24] 4835 	pop	ar7
      001862                       4836 00103$:
                                   4837 ;	src/main.c:614: switch(received_char)
      001862 BF 23 02         [24] 4838 	cjne	r7,#0x23,00170$
      001865 80 4C            [24] 4839 	sjmp	00109$
      001867                       4840 00170$:
      001867 BF 24 02         [24] 4841 	cjne	r7,#0x24,00171$
      00186A 80 42            [24] 4842 	sjmp	00108$
      00186C                       4843 00171$:
      00186C BF 25 02         [24] 4844 	cjne	r7,#0x25,00172$
      00186F 80 30            [24] 4845 	sjmp	00106$
      001871                       4846 00172$:
      001871 BF 26 02         [24] 4847 	cjne	r7,#0x26,00173$
      001874 80 51            [24] 4848 	sjmp	00113$
      001876                       4849 00173$:
      001876 BF 2A 02         [24] 4850 	cjne	r7,#0x2a,00174$
      001879 80 47            [24] 4851 	sjmp	00112$
      00187B                       4852 00174$:
      00187B BF 2B 02         [24] 4853 	cjne	r7,#0x2b,00175$
      00187E 80 38            [24] 4854 	sjmp	00110$
      001880                       4855 00175$:
      001880 BF 2D 02         [24] 4856 	cjne	r7,#0x2d,00176$
      001883 80 38            [24] 4857 	sjmp	00111$
      001885                       4858 00176$:
      001885 BF 3D 02         [24] 4859 	cjne	r7,#0x3d,00177$
      001888 80 12            [24] 4860 	sjmp	00105$
      00188A                       4861 00177$:
      00188A BF 3F 02         [24] 4862 	cjne	r7,#0x3f,00178$
      00188D 80 08            [24] 4863 	sjmp	00104$
      00188F                       4864 00178$:
      00188F BF 40 02         [24] 4865 	cjne	r7,#0x40,00179$
      001892 80 12            [24] 4866 	sjmp	00107$
      001894                       4867 00179$:
      001894 02r18r17         [24] 4868 	ljmp	00118$
                                   4869 ;	src/main.c:616: case '?':
      001897                       4870 00104$:
                                   4871 ;	src/main.c:617: qmark_command_handler();
      001897 12r0CrDA         [24] 4872 	lcall	_qmark_command_handler
                                   4873 ;	src/main.c:618: break;
                                   4874 ;	src/main.c:619: case '=':
      00189A 80 2E            [24] 4875 	sjmp	00115$
      00189C                       4876 00105$:
                                   4877 ;	src/main.c:620: enter_command_handler();
      00189C 12r0ErFF         [24] 4878 	lcall	_enter_command_handler
                                   4879 ;	src/main.c:621: break;
                                   4880 ;	src/main.c:622: case '%':
      00189F 80 29            [24] 4881 	sjmp	00115$
      0018A1                       4882 00106$:
                                   4883 ;	src/main.c:623: percent_command_handler();
      0018A1 12r10rAC         [24] 4884 	lcall	_percent_command_handler
                                   4885 ;	src/main.c:624: break;
                                   4886 ;	src/main.c:625: case '@':
      0018A4 80 24            [24] 4887 	sjmp	00115$
      0018A6                       4888 00107$:
                                   4889 ;	src/main.c:626: free_all_buffers();
      0018A6 12r0Cr27         [24] 4890 	lcall	_free_all_buffers
                                   4891 ;	src/main.c:627: initialize_buffers();
      0018A9 12r01r99         [24] 4892 	lcall	_initialize_buffers
                                   4893 ;	src/main.c:628: break;
                                   4894 ;	src/main.c:629: case '$':
      0018AC 80 1C            [24] 4895 	sjmp	00115$
      0018AE                       4896 00108$:
                                   4897 ;	src/main.c:630: dollar_sign_command_handler();
      0018AE 12r12r28         [24] 4898 	lcall	_dollar_sign_command_handler
                                   4899 ;	src/main.c:631: break;
                                   4900 ;	src/main.c:632: case '#':
      0018B1 80 17            [24] 4901 	sjmp	00115$
      0018B3                       4902 00109$:
                                   4903 ;	src/main.c:633: hashtag_command_handler();
      0018B3 12r13r47         [24] 4904 	lcall	_hashtag_command_handler
                                   4905 ;	src/main.c:634: break;
                                   4906 ;	src/main.c:635: case '+':
      0018B6 80 12            [24] 4907 	sjmp	00115$
      0018B8                       4908 00110$:
                                   4909 ;	src/main.c:636: plus_command_handler();
      0018B8 12r14r39         [24] 4910 	lcall	_plus_command_handler
                                   4911 ;	src/main.c:637: break;
                                   4912 ;	src/main.c:638: case '-':
      0018BB 80 0D            [24] 4913 	sjmp	00115$
      0018BD                       4914 00111$:
                                   4915 ;	src/main.c:639: minus_command_handler();
      0018BD 12r14rE5         [24] 4916 	lcall	_minus_command_handler
                                   4917 ;	src/main.c:640: break;
                                   4918 ;	src/main.c:641: case '*':
      0018C0 80 08            [24] 4919 	sjmp	00115$
      0018C2                       4920 00112$:
                                   4921 ;	src/main.c:642: star_command_handler();
      0018C2 12r15rD9         [24] 4922 	lcall	_star_command_handler
                                   4923 ;	src/main.c:643: break;
                                   4924 ;	src/main.c:644: case '&':
      0018C5 80 03            [24] 4925 	sjmp	00115$
      0018C7                       4926 00113$:
                                   4927 ;	src/main.c:645: ampersand_command_handler();
      0018C7 12r15rF6         [24] 4928 	lcall	_ampersand_command_handler
                                   4929 ;	src/main.c:649: }
      0018CA                       4930 00115$:
                                   4931 ;	src/main.c:650: printf("\r\nEND COMMAND");
      0018CA 74r87            [12] 4932 	mov	a,#___str_49
      0018CC C0 E0            [24] 4933 	push	acc
      0018CE 74s06            [12] 4934 	mov	a,#(___str_49 >> 8)
      0018D0 C0 E0            [24] 4935 	push	acc
      0018D2 74 80            [12] 4936 	mov	a,#0x80
      0018D4 C0 E0            [24] 4937 	push	acc
      0018D6 12r00r00         [24] 4938 	lcall	_printf
      0018D9 15 81            [12] 4939 	dec	sp
      0018DB 15 81            [12] 4940 	dec	sp
      0018DD 15 81            [12] 4941 	dec	sp
                                   4942 ;	src/main.c:651: print_dashed_line();
      0018DF 12r08rAB         [24] 4943 	lcall	_print_dashed_line
                                   4944 ;	src/main.c:653: }
      0018E2 02r18r17         [24] 4945 	ljmp	00118$
                                   4946 	.area CSEG    (CODE)
                                   4947 	.area CONST   (CODE)
                                   4948 	.area CONST   (CODE)
      000000                       4949 ___str_0:
      000000 0D                    4950 	.db 0x0d
      000001 0A                    4951 	.db 0x0a
      000002 50 6C 65 61 73 65 20  4952 	.ascii "Please enter the last two digits of your ID:"
             65 6E 74 65 72 20 74
             68 65 20 6C 61 73 74
             20 74 77 6F 20 64 69
             67 69 74 73 20 6F 66
             20 79 6F 75 72 20 49
             44 3A
      00002E 00                    4953 	.db 0x00
                                   4954 	.area CSEG    (CODE)
                                   4955 	.area CONST   (CODE)
      00002F                       4956 ___str_1:
      00002F 0D                    4957 	.db 0x0d
      000030 0A                    4958 	.db 0x0a
      000031 20 44 69 64 20 6E 6F  4959 	.ascii " Did not enter valid two digit number, please try again"
             74 20 65 6E 74 65 72
             20 76 61 6C 69 64 20
             74 77 6F 20 64 69 67
             69 74 20 6E 75 6D 62
             65 72 2C 20 70 6C 65
             61 73 65 20 74 72 79
             20 61 67 61 69 6E
      000068 00                    4960 	.db 0x00
                                   4961 	.area CSEG    (CODE)
                                   4962 	.area CONST   (CODE)
      000069                       4963 ___str_2:
      000069 0D                    4964 	.db 0x0d
      00006A 0A                    4965 	.db 0x0a
      00006B 41 74 6F 69 20 65 72  4966 	.ascii "Atoi error: number invalid or out of range, please try again"
             72 6F 72 3A 20 6E 75
             6D 62 65 72 20 69 6E
             76 61 6C 69 64 20 6F
             72 20 6F 75 74 20 6F
             66 20 72 61 6E 67 65
             2C 20 70 6C 65 61 73
             65 20 74 72 79 20 61
             67 61 69 6E
      0000A7 00                    4967 	.db 0x00
                                   4968 	.area CSEG    (CODE)
                                   4969 	.area CONST   (CODE)
      0000A8                       4970 ___str_3:
      0000A8 0D                    4971 	.db 0x0d
      0000A9 0A                    4972 	.db 0x0a
      0000AA 42 75 66 66 65 72 20  4973 	.ascii "Buffer Size too big, please pick a smaller buffer size"
             53 69 7A 65 20 74 6F
             6F 20 62 69 67 2C 20
             70 6C 65 61 73 65 20
             70 69 63 6B 20 61 20
             73 6D 61 6C 6C 65 72
             20 62 75 66 66 65 72
             20 73 69 7A 65
      0000E0 00                    4974 	.db 0x00
                                   4975 	.area CSEG    (CODE)
                                   4976 	.area CONST   (CODE)
      0000E1                       4977 ___str_4:
      0000E1 0D                    4978 	.db 0x0d
      0000E2 0A                    4979 	.db 0x0a
      0000E3 73 74 75 64 65 6E 74  4980 	.ascii "student_number: %d"
             5F 6E 75 6D 62 65 72
             3A 20 25 64
      0000F5 00                    4981 	.db 0x00
                                   4982 	.area CSEG    (CODE)
                                   4983 	.area CONST   (CODE)
      0000F6                       4984 ___str_5:
      0000F6 0D                    4985 	.db 0x0d
      0000F7 0A                    4986 	.db 0x0a
      0000F8 75 73 65 72 5F 62 75  4987 	.ascii "user_buffer_size: %zu"
             66 66 65 72 5F 73 69
             7A 65 3A 20 25 7A 75
      00010D 00                    4988 	.db 0x00
                                   4989 	.area CSEG    (CODE)
                                   4990 	.area CONST   (CODE)
      00010E                       4991 ___str_6:
      00010E 0D                    4992 	.db 0x0d
      00010F 0A                    4993 	.db 0x0a
      000110 62 75 66 66 65 72 5F  4994 	.ascii "buffer_%d starts @ %p, ends @%p, size %zu"
             25 64 20 73 74 61 72
             74 73 20 40 20 25 70
             2C 20 65 6E 64 73 20
             40 25 70 2C 20 73 69
             7A 65 20 25 7A 75
      000139 00                    4995 	.db 0x00
                                   4996 	.area CSEG    (CODE)
                                   4997 	.area CONST   (CODE)
      00013A                       4998 ___str_7:
      00013A 0D                    4999 	.db 0x0d
      00013B 0A                    5000 	.db 0x0a
      00013C 48 65 61 70 20 73 74  5001 	.ascii "Heap starts @ %p, ends @ %p, size: %zu"
             61 72 74 73 20 40 20
             25 70 2C 20 65 6E 64
             73 20 40 20 25 70 2C
             20 73 69 7A 65 3A 20
             25 7A 75
      000162 00                    5002 	.db 0x00
                                   5003 	.area CSEG    (CODE)
                                   5004 	.area CONST   (CODE)
      000163                       5005 ___str_8:
      000163 0D                    5006 	.db 0x0d
      000164 0A                    5007 	.db 0x0a
      000165 2D 2D 2D 2D 2D 2D 2D  5008 	.ascii "------------------------------------------------"
             2D 2D 2D 2D 2D 2D 2D
             2D 2D 2D 2D 2D 2D 2D
             2D 2D 2D 2D 2D 2D 2D
             2D 2D 2D 2D 2D 2D 2D
             2D 2D 2D 2D 2D 2D 2D
             2D 2D 2D 2D 2D 2D
      000195 00                    5009 	.db 0x00
                                   5010 	.area CSEG    (CODE)
                                   5011 	.area CONST   (CODE)
      000196                       5012 ___str_9:
      000196 0D                    5013 	.db 0x0d
      000197 0A                    5014 	.db 0x0a
      000198 25 73                 5015 	.ascii "%s"
      00019A 00                    5016 	.db 0x00
                                   5017 	.area CSEG    (CODE)
                                   5018 	.area CONST   (CODE)
      00019B                       5019 ___str_10:
      00019B 48 65 61 70 20 52 65  5020 	.ascii "Heap Report"
             70 6F 72 74
      0001A6 00                    5021 	.db 0x00
                                   5022 	.area CSEG    (CODE)
                                   5023 	.area CONST   (CODE)
      0001A7                       5024 ___str_11:
      0001A7 0D                    5025 	.db 0x0d
      0001A8 0A                    5026 	.db 0x0a
      0001A9 62 75 66 66 65 72 5F  5027 	.ascii "buffer_%d starts @ %p, ends @%p, size %zu, contains %zu alph"
             25 64 20 73 74 61 72
             74 73 20 40 20 25 70
             2C 20 65 6E 64 73 20
             40 25 70 2C 20 73 69
             7A 65 20 25 7A 75 2C
             20 63 6F 6E 74 61 69
             6E 73 20 25 7A 75 20
             61 6C 70 68
      0001E5 61 62 65 74 20 63 68  5028 	.ascii "abet chars, has %zu chars remaining"
             61 72 73 2C 20 68 61
             73 20 25 7A 75 20 63
             68 61 72 73 20 72 65
             6D 61 69 6E 69 6E 67
      000208 00                    5029 	.db 0x00
                                   5030 	.area CSEG    (CODE)
                                   5031 	.area CONST   (CODE)
      000209                       5032 ___str_12:
      000209 0D                    5033 	.db 0x0d
      00020A 0A                    5034 	.db 0x0a
      00020B 00                    5035 	.db 0x00
                                   5036 	.area CSEG    (CODE)
                                   5037 	.area CONST   (CODE)
      00020C                       5038 ___str_13:
      00020C 0D                    5039 	.db 0x0d
      00020D 0A                    5040 	.db 0x0a
      00020E 50 6C 65 61 73 65 20  5041 	.ascii "Please enter a valid buffer size that is divisible by 32 [64"
             65 6E 74 65 72 20 61
             20 76 61 6C 69 64 20
             62 75 66 66 65 72 20
             73 69 7A 65 20 74 68
             61 74 20 69 73 20 64
             69 76 69 73 69 62 6C
             65 20 62 79 20 33 32
             20 5B 36 34
      00024A 2C 25 7A 75 5D 3A 20  5042 	.ascii ",%zu]: "
      000251 00                    5043 	.db 0x00
                                   5044 	.area CSEG    (CODE)
                                   5045 	.area CONST   (CODE)
      000252                       5046 ___str_14:
      000252 0D                    5047 	.db 0x0d
      000253 0A                    5048 	.db 0x0a
      000254 20 55 73 65 72 20 62  5049 	.ascii " User buffer size larger than maximum"
             75 66 66 65 72 20 73
             69 7A 65 20 6C 61 72
             67 65 72 20 74 68 61
             6E 20 6D 61 78 69 6D
             75 6D
      000279 00                    5050 	.db 0x00
                                   5051 	.area CSEG    (CODE)
                                   5052 	.area CONST   (CODE)
      00027A                       5053 ___str_15:
      00027A 0D                    5054 	.db 0x0d
      00027B 0A                    5055 	.db 0x0a
      00027C 20 55 73 65 72 20 62  5056 	.ascii " User buffer size too small or error in conversion"
             75 66 66 65 72 20 73
             69 7A 65 20 74 6F 6F
             20 73 6D 61 6C 6C 20
             6F 72 20 65 72 72 6F
             72 20 69 6E 20 63 6F
             6E 76 65 72 73 69 6F
             6E
      0002AE 00                    5057 	.db 0x00
                                   5058 	.area CSEG    (CODE)
                                   5059 	.area CONST   (CODE)
      0002AF                       5060 ___str_16:
      0002AF 0D                    5061 	.db 0x0d
      0002B0 0A                    5062 	.db 0x0a
      0002B1 20 55 73 65 72 20 62  5063 	.ascii " User buffer size is not divisible by 32"
             75 66 66 65 72 20 73
             69 7A 65 20 69 73 20
             6E 6F 74 20 64 69 76
             69 73 69 62 6C 65 20
             62 79 20 33 32
      0002D9 00                    5064 	.db 0x00
                                   5065 	.area CSEG    (CODE)
                                   5066 	.area CONST   (CODE)
      0002DA                       5067 ___str_17:
      0002DA 0D                    5068 	.db 0x0d
      0002DB 0A                    5069 	.db 0x0a
      0002DC 20 46 72 65 65 69 6E  5070 	.ascii " Freeing ALL BUFFERS"
             67 20 41 4C 4C 20 42
             55 46 46 45 52 53
      0002F0 00                    5071 	.db 0x00
                                   5072 	.area CSEG    (CODE)
                                   5073 	.area CONST   (CODE)
      0002F1                       5074 ___str_18:
      0002F1 0D                    5075 	.db 0x0d
      0002F2 0A                    5076 	.db 0x0a
      0002F3 20 52 65 63 65 69 76  5077 	.ascii " Received %zu chars since last invocation of ?"
             65 64 20 25 7A 75 20
             63 68 61 72 73 20 73
             69 6E 63 65 20 6C 61
             73 74 20 69 6E 76 6F
             63 61 74 69 6F 6E 20
             6F 66 20 3F
      000321 00                    5078 	.db 0x00
                                   5079 	.area CSEG    (CODE)
                                   5080 	.area CONST   (CODE)
      000322                       5081 ___str_19:
      000322 25 63                 5082 	.ascii "%c"
      000324 00                    5083 	.db 0x00
                                   5084 	.area CSEG    (CODE)
                                   5085 	.area CONST   (CODE)
      000325                       5086 ___str_20:
      000325 44 75 6D 70 20 41 64  5087 	.ascii "Dump Admin Buffers"
             6D 69 6E 20 42 75 66
             66 65 72 73
      000337 00                    5088 	.db 0x00
                                   5089 	.area CSEG    (CODE)
                                   5090 	.area CONST   (CODE)
      000338                       5091 ___str_21:
      000338 0D                    5092 	.db 0x0d
      000339 0A                    5093 	.db 0x0a
      00033A 20 42 75 66 66 65 72  5094 	.ascii " Buffer %d "
             20 25 64 20
      000345 00                    5095 	.db 0x00
                                   5096 	.area CSEG    (CODE)
                                   5097 	.area CONST   (CODE)
      000346                       5098 ___str_22:
      000346 0D                    5099 	.db 0x0d
      000347 0A                    5100 	.db 0x0a
      000348 2D 2D 2D 2D 2D 2D 2D  5101 	.ascii "----------"
             2D 2D 2D
      000352 00                    5102 	.db 0x00
                                   5103 	.area CSEG    (CODE)
                                   5104 	.area CONST   (CODE)
      000353                       5105 ___str_23:
      000353 0D                    5106 	.db 0x0d
      000354 0A                    5107 	.db 0x0a
      000355 25 30 34 58 3A        5108 	.ascii "%04X:"
      00035A 00                    5109 	.db 0x00
                                   5110 	.area CSEG    (CODE)
                                   5111 	.area CONST   (CODE)
      00035B                       5112 ___str_24:
      00035B 20 25 30 32 68 68 58  5113 	.ascii " %02hhX"
      000362 00                    5114 	.db 0x00
                                   5115 	.area CSEG    (CODE)
                                   5116 	.area CONST   (CODE)
      000363                       5117 ___str_25:
      000363 43 6C 65 61 72 20 42  5118 	.ascii "Clear Buffers"
             75 66 66 65 72 73
      000370 00                    5119 	.db 0x00
                                   5120 	.area CSEG    (CODE)
                                   5121 	.area CONST   (CODE)
      000371                       5122 ___str_26:
      000371 43 6F 70 79 20 62 75  5123 	.ascii "Copy buffer_0 into buffer_3"
             66 66 65 72 5F 30 20
             69 6E 74 6F 20 62 75
             66 66 65 72 5F 33
      00038C 00                    5124 	.db 0x00
                                   5125 	.area CSEG    (CODE)
                                   5126 	.area CONST   (CODE)
      00038D                       5127 ___str_27:
      00038D 0D                    5128 	.db 0x0d
      00038E 0A                    5129 	.db 0x0a
      00038F 20 62 75 66 66 65 72  5130 	.ascii " buffer_3 not allocated; exiting"
             5F 33 20 6E 6F 74 20
             61 6C 6C 6F 63 61 74
             65 64 3B 20 65 78 69
             74 69 6E 67
      0003AF 00                    5131 	.db 0x00
                                   5132 	.area CSEG    (CODE)
                                   5133 	.area CONST   (CODE)
      0003B0                       5134 ___str_28:
      0003B0 0D                    5135 	.db 0x0d
      0003B1 0A                    5136 	.db 0x0a
      0003B2 20 44 6F 6E 65        5137 	.ascii " Done"
      0003B7 00                    5138 	.db 0x00
                                   5139 	.area CSEG    (CODE)
                                   5140 	.area CONST   (CODE)
      0003B8                       5141 ___str_29:
      0003B8 43 6F 6E 76 65 72 74  5142 	.ascii "Convert buffer_3 chars to lowercase"
             20 62 75 66 66 65 72
             5F 33 20 63 68 61 72
             73 20 74 6F 20 6C 6F
             77 65 72 63 61 73 65
      0003DB 00                    5143 	.db 0x00
                                   5144 	.area CSEG    (CODE)
                                   5145 	.area CONST   (CODE)
      0003DC                       5146 ___str_30:
      0003DC 0D                    5147 	.db 0x0d
      0003DD 0A                    5148 	.db 0x0a
      0003DE 20 41 6C 6C 6F 63 20  5149 	.ascii " Alloc Buffer"
             42 75 66 66 65 72
      0003EB 00                    5150 	.db 0x00
                                   5151 	.area CSEG    (CODE)
                                   5152 	.area CONST   (CODE)
      0003EC                       5153 ___str_31:
      0003EC 0D                    5154 	.db 0x0d
      0003ED 0A                    5155 	.db 0x0a
      0003EE 50 6C 65 61 73 65 20  5156 	.ascii "Please enter a size for the new buffer, [200,600]: "
             65 6E 74 65 72 20 61
             20 73 69 7A 65 20 66
             6F 72 20 74 68 65 20
             6E 65 77 20 62 75 66
             66 65 72 2C 20 5B 32
             30 30 2C 36 30 30 5D
             3A 20
      000421 00                    5157 	.db 0x00
                                   5158 	.area CSEG    (CODE)
                                   5159 	.area CONST   (CODE)
      000422                       5160 ___str_32:
      000422 0D                    5161 	.db 0x0d
      000423 0A                    5162 	.db 0x0a
      000424 42 75 66 66 65 72 20  5163 	.ascii "Buffer size invalid!! Please try again"
             73 69 7A 65 20 69 6E
             76 61 6C 69 64 21 21
             20 50 6C 65 61 73 65
             20 74 72 79 20 61 67
             61 69 6E
      00044A 00                    5164 	.db 0x00
                                   5165 	.area CSEG    (CODE)
                                   5166 	.area CONST   (CODE)
      00044B                       5167 ___str_33:
      00044B 0D                    5168 	.db 0x0d
      00044C 0A                    5169 	.db 0x0a
      00044D 20 41 6C 6C 6F 63 61  5170 	.ascii " Allocation failed; able to allocate header but not buffer"
             74 69 6F 6E 20 66 61
             69 6C 65 64 3B 20 61
             62 6C 65 20 74 6F 20
             61 6C 6C 6F 63 61 74
             65 20 68 65 61 64 65
             72 20 62 75 74 20 6E
             6F 74 20 62 75 66 66
             65 72
      000487 00                    5171 	.db 0x00
                                   5172 	.area CSEG    (CODE)
                                   5173 	.area CONST   (CODE)
      000488                       5174 ___str_34:
      000488 0D                    5175 	.db 0x0d
      000489 0A                    5176 	.db 0x0a
      00048A 20 41 6C 6C 6F 63 61  5177 	.ascii " Allocation successful!! New buffer added"
             74 69 6F 6E 20 73 75
             63 63 65 73 73 66 75
             6C 21 21 20 4E 65 77
             20 62 75 66 66 65 72
             20 61 64 64 65 64
      0004B3 00                    5178 	.db 0x00
                                   5179 	.area CSEG    (CODE)
                                   5180 	.area CONST   (CODE)
      0004B4                       5181 ___str_35:
      0004B4 46 72 65 65 20 42 75  5182 	.ascii "Free Buffer"
             66 66 65 72
      0004BF 00                    5183 	.db 0x00
                                   5184 	.area CSEG    (CODE)
                                   5185 	.area CONST   (CODE)
      0004C0                       5186 ___str_36:
      0004C0 0D                    5187 	.db 0x0d
      0004C1 0A                    5188 	.db 0x0a
      0004C2 50 6C 65 61 73 65 20  5189 	.ascii "Please enter the number of the buffer you would like to free"
             65 6E 74 65 72 20 74
             68 65 20 6E 75 6D 62
             65 72 20 6F 66 20 74
             68 65 20 62 75 66 66
             65 72 20 79 6F 75 20
             77 6F 75 6C 64 20 6C
             69 6B 65 20 74 6F 20
             66 72 65 65
      0004FE 5B 32 2D 25 7A 75 5D  5190 	.ascii "[2-%zu]: "
             3A 20
      000507 00                    5191 	.db 0x00
                                   5192 	.area CSEG    (CODE)
                                   5193 	.area CONST   (CODE)
      000508                       5194 ___str_37:
      000508 0D                    5195 	.db 0x0d
      000509 0A                    5196 	.db 0x0a
      00050A 20 49 6E 76 61 6C 69  5197 	.ascii " Invalid buffer number, negatives not valid"
             64 20 62 75 66 66 65
             72 20 6E 75 6D 62 65
             72 2C 20 6E 65 67 61
             74 69 76 65 73 20 6E
             6F 74 20 76 61 6C 69
             64
      000535 00                    5198 	.db 0x00
                                   5199 	.area CSEG    (CODE)
                                   5200 	.area CONST   (CODE)
      000536                       5201 ___str_38:
      000536 0D                    5202 	.db 0x0d
      000537 0A                    5203 	.db 0x0a
      000538 20 49 6E 76 61 6C 69  5204 	.ascii " Invalid buffer number, buffers 0 & 1 are protected"
             64 20 62 75 66 66 65
             72 20 6E 75 6D 62 65
             72 2C 20 62 75 66 66
             65 72 73 20 30 20 26
             20 31 20 61 72 65 20
             70 72 6F 74 65 63 74
             65 64
      00056B 00                    5205 	.db 0x00
                                   5206 	.area CSEG    (CODE)
                                   5207 	.area CONST   (CODE)
      00056C                       5208 ___str_39:
      00056C 0D                    5209 	.db 0x0d
      00056D 0A                    5210 	.db 0x0a
      00056E 20 49 6E 76 61 6C 69  5211 	.ascii " Invalid Buffer number; out of range"
             64 20 42 75 66 66 65
             72 20 6E 75 6D 62 65
             72 3B 20 6F 75 74 20
             6F 66 20 72 61 6E 67
             65
      000592 00                    5212 	.db 0x00
                                   5213 	.area CSEG    (CODE)
                                   5214 	.area CONST   (CODE)
      000593                       5215 ___str_40:
      000593 0D                    5216 	.db 0x0d
      000594 0A                    5217 	.db 0x0a
      000595 20 53 75 63 63 65 73  5218 	.ascii " Successfully removed buffer"
             73 66 75 6C 6C 79 20
             72 65 6D 6F 76 65 64
             20 62 75 66 66 65 72
      0005B1 00                    5219 	.db 0x00
                                   5220 	.area CSEG    (CODE)
                                   5221 	.area CONST   (CODE)
      0005B2                       5222 ___str_41:
      0005B2 0D                    5223 	.db 0x0d
      0005B3 0A                    5224 	.db 0x0a
      0005B4 20 46 61 69 6C 65 64  5225 	.ascii " Failed to remove buffer, ll error"
             20 74 6F 20 72 65 6D
             6F 76 65 20 62 75 66
             66 65 72 2C 20 6C 6C
             20 65 72 72 6F 72
      0005D6 00                    5226 	.db 0x00
                                   5227 	.area CSEG    (CODE)
                                   5228 	.area CONST   (CODE)
      0005D7                       5229 ___str_42:
      0005D7 0D                    5230 	.db 0x0d
      0005D8 0A                    5231 	.db 0x0a
      0005D9 52 65 73 65 74 74 69  5232 	.ascii "Resetting device"
             6E 67 20 64 65 76 69
             63 65
      0005E9 00                    5233 	.db 0x00
                                   5234 	.area CSEG    (CODE)
                                   5235 	.area CONST   (CODE)
      0005EA                       5236 ___str_43:
      0005EA 0D                    5237 	.db 0x0d
      0005EB 0A                    5238 	.db 0x0a
      0005EC 20 44 75 6D 70 20 42  5239 	.ascii " Dump Buffer"
             75 66 66 65 72
      0005F8 00                    5240 	.db 0x00
                                   5241 	.area CSEG    (CODE)
                                   5242 	.area CONST   (CODE)
      0005F9                       5243 ___str_44:
      0005F9 0D                    5244 	.db 0x0d
      0005FA 0A                    5245 	.db 0x0a
      0005FB 45 6E 74 65 72 20 61  5246 	.ascii "Enter a valid buffer # [2-%zu]: "
             20 76 61 6C 69 64 20
             62 75 66 66 65 72 20
             23 20 5B 32 2D 25 7A
             75 5D 3A 20
      00061B 00                    5247 	.db 0x00
                                   5248 	.area CSEG    (CODE)
                                   5249 	.area CONST   (CODE)
      00061C                       5250 ___str_45:
      00061C 0D                    5251 	.db 0x0d
      00061D 0A                    5252 	.db 0x0a
      00061E 49 6E 76 61 6C 69 64  5253 	.ascii "Invalid buffer number; returning to prompt"
             20 62 75 66 66 65 72
             20 6E 75 6D 62 65 72
             3B 20 72 65 74 75 72
             6E 69 6E 67 20 74 6F
             20 70 72 6F 6D 70 74
      000648 00                    5254 	.db 0x00
                                   5255 	.area CSEG    (CODE)
                                   5256 	.area CONST   (CODE)
      000649                       5257 ___str_46:
      000649 0D                    5258 	.db 0x0d
      00064A 0A                    5259 	.db 0x0a
      00064B 4C 4C 20 65 72 72 6F  5260 	.ascii "LL error; returning to prompt"
             72 3B 20 72 65 74 75
             72 6E 69 6E 67 20 74
             6F 20 70 72 6F 6D 70
             74
      000668 00                    5261 	.db 0x00
                                   5262 	.area CSEG    (CODE)
                                   5263 	.area CONST   (CODE)
      000669                       5264 ___str_47:
      000669 0D                    5265 	.db 0x0d
      00066A 0A                    5266 	.db 0x0a
      00066B 20 42 75 66 66 65 72  5267 	.ascii " Buffer %d"
             20 25 64
      000675 00                    5268 	.db 0x00
                                   5269 	.area CSEG    (CODE)
                                   5270 	.area CONST   (CODE)
      000676                       5271 ___str_48:
      000676 0D                    5272 	.db 0x0d
      000677 0A                    5273 	.db 0x0a
      000678 45 6E 74 65 72 20 61  5274 	.ascii "Enter a char: "
             20 63 68 61 72 3A 20
      000686 00                    5275 	.db 0x00
                                   5276 	.area CSEG    (CODE)
                                   5277 	.area CONST   (CODE)
      000687                       5278 ___str_49:
      000687 0D                    5279 	.db 0x0d
      000688 0A                    5280 	.db 0x0a
      000689 45 4E 44 20 43 4F 4D  5281 	.ascii "END COMMAND"
             4D 41 4E 44
      000694 00                    5282 	.db 0x00
                                   5283 	.area CSEG    (CODE)
                                   5284 	.area XINIT   (CODE)
      000000                       5285 __xinit__dynamic_buffers_list:
                                   5286 ; generic printIvalPtr
      000000 00 00 00              5287 	.byte #0x00,#0x00,#0x00
                                   5288 	.area CABS    (ABS,CODE)
