                                      1 ;--------------------------------------------------------
                                      2 ; File Created by SDCC : free open source ANSI-C Compiler
                                      3 ; Version 4.2.0 #13081 (MINGW64)
                                      4 ;--------------------------------------------------------
                                      5 	.module main
                                      6 	.optsdcc -mmcs51 --model-large
                                      7 	
                                      8 ;--------------------------------------------------------
                                      9 ; Public variables in this module
                                     10 ;--------------------------------------------------------
                                     11 	.globl _main
                                     12 	.globl _minus_command_handler
                                     13 	.globl _plus_command_handler
                                     14 	.globl _hashtag_command_handler
                                     15 	.globl _dollar_sign_command_handler
                                     16 	.globl _percent_command_handler
                                     17 	.globl _enter_command_handler
                                     18 	.globl _qmark_command_handler
                                     19 	.globl _heap_report
                                     20 	.globl _command_header
                                     21 	.globl _store_in_buffer
                                     22 	.globl _initialize_buffers
                                     23 	.globl _alloc_new_buffer
                                     24 	.globl _initialize_default_elements
                                     25 	.globl _is_alphabet_char
                                     26 	.globl __sdcc_external_startup
                                     27 	.globl _free_all_elems_from_list
                                     28 	.globl _remove_from_buffer_list
                                     29 	.globl _append_to_buffer_list
                                     30 	.globl ___memcpy
                                     31 	.globl _memset
                                     32 	.globl _reset_char_count
                                     33 	.globl _get_char_count
                                     34 	.globl _get_next_input_char
                                     35 	.globl _get_input_buffer
                                     36 	.globl _get_string
                                     37 	.globl _free
                                     38 	.globl _malloc
                                     39 	.globl _atoi
                                     40 	.globl _printf
                                     41 	.globl _CY
                                     42 	.globl _AC
                                     43 	.globl _F0
                                     44 	.globl _RS1
                                     45 	.globl _RS0
                                     46 	.globl _OV
                                     47 	.globl _F1
                                     48 	.globl _P
                                     49 	.globl _PS
                                     50 	.globl _PT1
                                     51 	.globl _PX1
                                     52 	.globl _PT0
                                     53 	.globl _PX0
                                     54 	.globl _RD
                                     55 	.globl _WR
                                     56 	.globl _T1
                                     57 	.globl _T0
                                     58 	.globl _INT1
                                     59 	.globl _INT0
                                     60 	.globl _TXD
                                     61 	.globl _RXD
                                     62 	.globl _P3_7
                                     63 	.globl _P3_6
                                     64 	.globl _P3_5
                                     65 	.globl _P3_4
                                     66 	.globl _P3_3
                                     67 	.globl _P3_2
                                     68 	.globl _P3_1
                                     69 	.globl _P3_0
                                     70 	.globl _EA
                                     71 	.globl _ES
                                     72 	.globl _ET1
                                     73 	.globl _EX1
                                     74 	.globl _ET0
                                     75 	.globl _EX0
                                     76 	.globl _P2_7
                                     77 	.globl _P2_6
                                     78 	.globl _P2_5
                                     79 	.globl _P2_4
                                     80 	.globl _P2_3
                                     81 	.globl _P2_2
                                     82 	.globl _P2_1
                                     83 	.globl _P2_0
                                     84 	.globl _SM0
                                     85 	.globl _SM1
                                     86 	.globl _SM2
                                     87 	.globl _REN
                                     88 	.globl _TB8
                                     89 	.globl _RB8
                                     90 	.globl _TI
                                     91 	.globl _RI
                                     92 	.globl _P1_7
                                     93 	.globl _P1_6
                                     94 	.globl _P1_5
                                     95 	.globl _P1_4
                                     96 	.globl _P1_3
                                     97 	.globl _P1_2
                                     98 	.globl _P1_1
                                     99 	.globl _P1_0
                                    100 	.globl _TF1
                                    101 	.globl _TR1
                                    102 	.globl _TF0
                                    103 	.globl _TR0
                                    104 	.globl _IE1
                                    105 	.globl _IT1
                                    106 	.globl _IE0
                                    107 	.globl _IT0
                                    108 	.globl _P0_7
                                    109 	.globl _P0_6
                                    110 	.globl _P0_5
                                    111 	.globl _P0_4
                                    112 	.globl _P0_3
                                    113 	.globl _P0_2
                                    114 	.globl _P0_1
                                    115 	.globl _P0_0
                                    116 	.globl _P5_7
                                    117 	.globl _P5_6
                                    118 	.globl _P5_5
                                    119 	.globl _P5_4
                                    120 	.globl _P5_3
                                    121 	.globl _P5_2
                                    122 	.globl _P5_1
                                    123 	.globl _P5_0
                                    124 	.globl _P4_7
                                    125 	.globl _P4_6
                                    126 	.globl _P4_5
                                    127 	.globl _P4_4
                                    128 	.globl _P4_3
                                    129 	.globl _P4_2
                                    130 	.globl _P4_1
                                    131 	.globl _P4_0
                                    132 	.globl _PX0L
                                    133 	.globl _PT0L
                                    134 	.globl _PX1L
                                    135 	.globl _PT1L
                                    136 	.globl _PSL
                                    137 	.globl _PT2L
                                    138 	.globl _PPCL
                                    139 	.globl _EC
                                    140 	.globl _CCF0
                                    141 	.globl _CCF1
                                    142 	.globl _CCF2
                                    143 	.globl _CCF3
                                    144 	.globl _CCF4
                                    145 	.globl _CR
                                    146 	.globl _CF
                                    147 	.globl _TF2
                                    148 	.globl _EXF2
                                    149 	.globl _RCLK
                                    150 	.globl _TCLK
                                    151 	.globl _EXEN2
                                    152 	.globl _TR2
                                    153 	.globl _C_T2
                                    154 	.globl _CP_RL2
                                    155 	.globl _T2CON_7
                                    156 	.globl _T2CON_6
                                    157 	.globl _T2CON_5
                                    158 	.globl _T2CON_4
                                    159 	.globl _T2CON_3
                                    160 	.globl _T2CON_2
                                    161 	.globl _T2CON_1
                                    162 	.globl _T2CON_0
                                    163 	.globl _PT2
                                    164 	.globl _ET2
                                    165 	.globl _B
                                    166 	.globl _ACC
                                    167 	.globl _PSW
                                    168 	.globl _IP
                                    169 	.globl _P3
                                    170 	.globl _IE
                                    171 	.globl _P2
                                    172 	.globl _SBUF
                                    173 	.globl _SCON
                                    174 	.globl _P1
                                    175 	.globl _TH1
                                    176 	.globl _TH0
                                    177 	.globl _TL1
                                    178 	.globl _TL0
                                    179 	.globl _TMOD
                                    180 	.globl _TCON
                                    181 	.globl _PCON
                                    182 	.globl _DPH
                                    183 	.globl _DPL
                                    184 	.globl _SP
                                    185 	.globl _P0
                                    186 	.globl _EECON
                                    187 	.globl _KBF
                                    188 	.globl _KBE
                                    189 	.globl _KBLS
                                    190 	.globl _BRL
                                    191 	.globl _BDRCON
                                    192 	.globl _T2MOD
                                    193 	.globl _SPDAT
                                    194 	.globl _SPSTA
                                    195 	.globl _SPCON
                                    196 	.globl _SADEN
                                    197 	.globl _SADDR
                                    198 	.globl _WDTPRG
                                    199 	.globl _WDTRST
                                    200 	.globl _P5
                                    201 	.globl _P4
                                    202 	.globl _IPH1
                                    203 	.globl _IPL1
                                    204 	.globl _IPH0
                                    205 	.globl _IPL0
                                    206 	.globl _IEN1
                                    207 	.globl _IEN0
                                    208 	.globl _CMOD
                                    209 	.globl _CL
                                    210 	.globl _CH
                                    211 	.globl _CCON
                                    212 	.globl _CCAPM4
                                    213 	.globl _CCAPM3
                                    214 	.globl _CCAPM2
                                    215 	.globl _CCAPM1
                                    216 	.globl _CCAPM0
                                    217 	.globl _CCAP4L
                                    218 	.globl _CCAP3L
                                    219 	.globl _CCAP2L
                                    220 	.globl _CCAP1L
                                    221 	.globl _CCAP0L
                                    222 	.globl _CCAP4H
                                    223 	.globl _CCAP3H
                                    224 	.globl _CCAP2H
                                    225 	.globl _CCAP1H
                                    226 	.globl _CCAP0H
                                    227 	.globl _CKCON1
                                    228 	.globl _CKCON0
                                    229 	.globl _CKRL
                                    230 	.globl _AUXR1
                                    231 	.globl _AUXR
                                    232 	.globl _TH2
                                    233 	.globl _TL2
                                    234 	.globl _RCAP2H
                                    235 	.globl _RCAP2L
                                    236 	.globl _T2CON
                                    237 	.globl _dynamic_buffers_list
                                    238 	.globl _store_in_buffer_PARM_2
                                    239 	.globl _static_buffers
                                    240 	.globl _get_user_buffer_sz
                                    241 	.globl _free_all_buffers
                                    242 ;--------------------------------------------------------
                                    243 ; special function registers
                                    244 ;--------------------------------------------------------
                                    245 	.area RSEG    (ABS,DATA)
      000000                        246 	.org 0x0000
                           0000C8   247 _T2CON	=	0x00c8
                           0000CA   248 _RCAP2L	=	0x00ca
                           0000CB   249 _RCAP2H	=	0x00cb
                           0000CC   250 _TL2	=	0x00cc
                           0000CD   251 _TH2	=	0x00cd
                           00008E   252 _AUXR	=	0x008e
                           0000A2   253 _AUXR1	=	0x00a2
                           000097   254 _CKRL	=	0x0097
                           00008F   255 _CKCON0	=	0x008f
                           0000AF   256 _CKCON1	=	0x00af
                           0000FA   257 _CCAP0H	=	0x00fa
                           0000FB   258 _CCAP1H	=	0x00fb
                           0000FC   259 _CCAP2H	=	0x00fc
                           0000FD   260 _CCAP3H	=	0x00fd
                           0000FE   261 _CCAP4H	=	0x00fe
                           0000EA   262 _CCAP0L	=	0x00ea
                           0000EB   263 _CCAP1L	=	0x00eb
                           0000EC   264 _CCAP2L	=	0x00ec
                           0000ED   265 _CCAP3L	=	0x00ed
                           0000EE   266 _CCAP4L	=	0x00ee
                           0000DA   267 _CCAPM0	=	0x00da
                           0000DB   268 _CCAPM1	=	0x00db
                           0000DC   269 _CCAPM2	=	0x00dc
                           0000DD   270 _CCAPM3	=	0x00dd
                           0000DE   271 _CCAPM4	=	0x00de
                           0000D8   272 _CCON	=	0x00d8
                           0000F9   273 _CH	=	0x00f9
                           0000E9   274 _CL	=	0x00e9
                           0000D9   275 _CMOD	=	0x00d9
                           0000A8   276 _IEN0	=	0x00a8
                           0000B1   277 _IEN1	=	0x00b1
                           0000B8   278 _IPL0	=	0x00b8
                           0000B7   279 _IPH0	=	0x00b7
                           0000B2   280 _IPL1	=	0x00b2
                           0000B3   281 _IPH1	=	0x00b3
                           0000C0   282 _P4	=	0x00c0
                           0000E8   283 _P5	=	0x00e8
                           0000A6   284 _WDTRST	=	0x00a6
                           0000A7   285 _WDTPRG	=	0x00a7
                           0000A9   286 _SADDR	=	0x00a9
                           0000B9   287 _SADEN	=	0x00b9
                           0000C3   288 _SPCON	=	0x00c3
                           0000C4   289 _SPSTA	=	0x00c4
                           0000C5   290 _SPDAT	=	0x00c5
                           0000C9   291 _T2MOD	=	0x00c9
                           00009B   292 _BDRCON	=	0x009b
                           00009A   293 _BRL	=	0x009a
                           00009C   294 _KBLS	=	0x009c
                           00009D   295 _KBE	=	0x009d
                           00009E   296 _KBF	=	0x009e
                           0000D2   297 _EECON	=	0x00d2
                           000080   298 _P0	=	0x0080
                           000081   299 _SP	=	0x0081
                           000082   300 _DPL	=	0x0082
                           000083   301 _DPH	=	0x0083
                           000087   302 _PCON	=	0x0087
                           000088   303 _TCON	=	0x0088
                           000089   304 _TMOD	=	0x0089
                           00008A   305 _TL0	=	0x008a
                           00008B   306 _TL1	=	0x008b
                           00008C   307 _TH0	=	0x008c
                           00008D   308 _TH1	=	0x008d
                           000090   309 _P1	=	0x0090
                           000098   310 _SCON	=	0x0098
                           000099   311 _SBUF	=	0x0099
                           0000A0   312 _P2	=	0x00a0
                           0000A8   313 _IE	=	0x00a8
                           0000B0   314 _P3	=	0x00b0
                           0000B8   315 _IP	=	0x00b8
                           0000D0   316 _PSW	=	0x00d0
                           0000E0   317 _ACC	=	0x00e0
                           0000F0   318 _B	=	0x00f0
                                    319 ;--------------------------------------------------------
                                    320 ; special function bits
                                    321 ;--------------------------------------------------------
                                    322 	.area RSEG    (ABS,DATA)
      000000                        323 	.org 0x0000
                           0000AD   324 _ET2	=	0x00ad
                           0000BD   325 _PT2	=	0x00bd
                           0000C8   326 _T2CON_0	=	0x00c8
                           0000C9   327 _T2CON_1	=	0x00c9
                           0000CA   328 _T2CON_2	=	0x00ca
                           0000CB   329 _T2CON_3	=	0x00cb
                           0000CC   330 _T2CON_4	=	0x00cc
                           0000CD   331 _T2CON_5	=	0x00cd
                           0000CE   332 _T2CON_6	=	0x00ce
                           0000CF   333 _T2CON_7	=	0x00cf
                           0000C8   334 _CP_RL2	=	0x00c8
                           0000C9   335 _C_T2	=	0x00c9
                           0000CA   336 _TR2	=	0x00ca
                           0000CB   337 _EXEN2	=	0x00cb
                           0000CC   338 _TCLK	=	0x00cc
                           0000CD   339 _RCLK	=	0x00cd
                           0000CE   340 _EXF2	=	0x00ce
                           0000CF   341 _TF2	=	0x00cf
                           0000DF   342 _CF	=	0x00df
                           0000DE   343 _CR	=	0x00de
                           0000DC   344 _CCF4	=	0x00dc
                           0000DB   345 _CCF3	=	0x00db
                           0000DA   346 _CCF2	=	0x00da
                           0000D9   347 _CCF1	=	0x00d9
                           0000D8   348 _CCF0	=	0x00d8
                           0000AE   349 _EC	=	0x00ae
                           0000BE   350 _PPCL	=	0x00be
                           0000BD   351 _PT2L	=	0x00bd
                           0000BC   352 _PSL	=	0x00bc
                           0000BB   353 _PT1L	=	0x00bb
                           0000BA   354 _PX1L	=	0x00ba
                           0000B9   355 _PT0L	=	0x00b9
                           0000B8   356 _PX0L	=	0x00b8
                           0000C0   357 _P4_0	=	0x00c0
                           0000C1   358 _P4_1	=	0x00c1
                           0000C2   359 _P4_2	=	0x00c2
                           0000C3   360 _P4_3	=	0x00c3
                           0000C4   361 _P4_4	=	0x00c4
                           0000C5   362 _P4_5	=	0x00c5
                           0000C6   363 _P4_6	=	0x00c6
                           0000C7   364 _P4_7	=	0x00c7
                           0000E8   365 _P5_0	=	0x00e8
                           0000E9   366 _P5_1	=	0x00e9
                           0000EA   367 _P5_2	=	0x00ea
                           0000EB   368 _P5_3	=	0x00eb
                           0000EC   369 _P5_4	=	0x00ec
                           0000ED   370 _P5_5	=	0x00ed
                           0000EE   371 _P5_6	=	0x00ee
                           0000EF   372 _P5_7	=	0x00ef
                           000080   373 _P0_0	=	0x0080
                           000081   374 _P0_1	=	0x0081
                           000082   375 _P0_2	=	0x0082
                           000083   376 _P0_3	=	0x0083
                           000084   377 _P0_4	=	0x0084
                           000085   378 _P0_5	=	0x0085
                           000086   379 _P0_6	=	0x0086
                           000087   380 _P0_7	=	0x0087
                           000088   381 _IT0	=	0x0088
                           000089   382 _IE0	=	0x0089
                           00008A   383 _IT1	=	0x008a
                           00008B   384 _IE1	=	0x008b
                           00008C   385 _TR0	=	0x008c
                           00008D   386 _TF0	=	0x008d
                           00008E   387 _TR1	=	0x008e
                           00008F   388 _TF1	=	0x008f
                           000090   389 _P1_0	=	0x0090
                           000091   390 _P1_1	=	0x0091
                           000092   391 _P1_2	=	0x0092
                           000093   392 _P1_3	=	0x0093
                           000094   393 _P1_4	=	0x0094
                           000095   394 _P1_5	=	0x0095
                           000096   395 _P1_6	=	0x0096
                           000097   396 _P1_7	=	0x0097
                           000098   397 _RI	=	0x0098
                           000099   398 _TI	=	0x0099
                           00009A   399 _RB8	=	0x009a
                           00009B   400 _TB8	=	0x009b
                           00009C   401 _REN	=	0x009c
                           00009D   402 _SM2	=	0x009d
                           00009E   403 _SM1	=	0x009e
                           00009F   404 _SM0	=	0x009f
                           0000A0   405 _P2_0	=	0x00a0
                           0000A1   406 _P2_1	=	0x00a1
                           0000A2   407 _P2_2	=	0x00a2
                           0000A3   408 _P2_3	=	0x00a3
                           0000A4   409 _P2_4	=	0x00a4
                           0000A5   410 _P2_5	=	0x00a5
                           0000A6   411 _P2_6	=	0x00a6
                           0000A7   412 _P2_7	=	0x00a7
                           0000A8   413 _EX0	=	0x00a8
                           0000A9   414 _ET0	=	0x00a9
                           0000AA   415 _EX1	=	0x00aa
                           0000AB   416 _ET1	=	0x00ab
                           0000AC   417 _ES	=	0x00ac
                           0000AF   418 _EA	=	0x00af
                           0000B0   419 _P3_0	=	0x00b0
                           0000B1   420 _P3_1	=	0x00b1
                           0000B2   421 _P3_2	=	0x00b2
                           0000B3   422 _P3_3	=	0x00b3
                           0000B4   423 _P3_4	=	0x00b4
                           0000B5   424 _P3_5	=	0x00b5
                           0000B6   425 _P3_6	=	0x00b6
                           0000B7   426 _P3_7	=	0x00b7
                           0000B0   427 _RXD	=	0x00b0
                           0000B1   428 _TXD	=	0x00b1
                           0000B2   429 _INT0	=	0x00b2
                           0000B3   430 _INT1	=	0x00b3
                           0000B4   431 _T0	=	0x00b4
                           0000B5   432 _T1	=	0x00b5
                           0000B6   433 _WR	=	0x00b6
                           0000B7   434 _RD	=	0x00b7
                           0000B8   435 _PX0	=	0x00b8
                           0000B9   436 _PT0	=	0x00b9
                           0000BA   437 _PX1	=	0x00ba
                           0000BB   438 _PT1	=	0x00bb
                           0000BC   439 _PS	=	0x00bc
                           0000D0   440 _P	=	0x00d0
                           0000D1   441 _F1	=	0x00d1
                           0000D2   442 _OV	=	0x00d2
                           0000D3   443 _RS0	=	0x00d3
                           0000D4   444 _RS1	=	0x00d4
                           0000D5   445 _F0	=	0x00d5
                           0000D6   446 _AC	=	0x00d6
                           0000D7   447 _CY	=	0x00d7
                                    448 ;--------------------------------------------------------
                                    449 ; overlayable register banks
                                    450 ;--------------------------------------------------------
                                    451 	.area REG_BANK_0	(REL,OVR,DATA)
      000000                        452 	.ds 8
                                    453 ;--------------------------------------------------------
                                    454 ; internal ram data
                                    455 ;--------------------------------------------------------
                                    456 	.area DSEG    (DATA)
      000000                        457 _initialize_buffers_sloc0_1_0:
      000000                        458 	.ds 2
      000002                        459 _initialize_buffers_sloc1_1_0:
      000002                        460 	.ds 2
      000004                        461 _initialize_buffers_sloc2_1_0:
      000004                        462 	.ds 2
      000006                        463 _initialize_buffers_sloc3_1_0:
      000006                        464 	.ds 3
      000009                        465 _initialize_buffers_sloc4_1_0:
      000009                        466 	.ds 3
      00000C                        467 _initialize_buffers_sloc5_1_0:
      00000C                        468 	.ds 3
      00000F                        469 _store_in_buffer_sloc0_1_0:
      00000F                        470 	.ds 2
      000011                        471 _store_in_buffer_sloc1_1_0:
      000011                        472 	.ds 3
      000014                        473 _heap_report_sloc0_1_0:
      000014                        474 	.ds 2
      000016                        475 _heap_report_sloc1_1_0:
      000016                        476 	.ds 2
      000018                        477 _heap_report_sloc2_1_0:
      000018                        478 	.ds 2
      00001A                        479 _heap_report_sloc3_1_0:
      00001A                        480 	.ds 2
      00001C                        481 _heap_report_sloc4_1_0:
      00001C                        482 	.ds 3
      00001F                        483 _heap_report_sloc5_1_0:
      00001F                        484 	.ds 3
      000022                        485 _qmark_command_handler_sloc0_1_0:
      000022                        486 	.ds 3
      000025                        487 _enter_command_handler_sloc0_1_0:
      000025                        488 	.ds 3
      000028                        489 _enter_command_handler_sloc1_1_0:
      000028                        490 	.ds 2
      00002A                        491 _enter_command_handler_sloc2_1_0:
      00002A                        492 	.ds 2
      00002C                        493 _enter_command_handler_sloc3_1_0:
      00002C                        494 	.ds 2
      00002E                        495 _percent_command_handler_sloc0_1_0:
      00002E                        496 	.ds 3
      000031                        497 _dollar_sign_command_handler_sloc0_1_0:
      000031                        498 	.ds 3
                                    499 ;--------------------------------------------------------
                                    500 ; overlayable items in internal ram
                                    501 ;--------------------------------------------------------
                                    502 	.area	OSEG    (OVR,DATA)
      000000                        503 _hashtag_command_handler_c_196609_160:
      000000                        504 	.ds 1
                                    505 ;--------------------------------------------------------
                                    506 ; Stack segment in internal ram
                                    507 ;--------------------------------------------------------
                                    508 	.area	SSEG
      000000                        509 __start__stack:
      000000                        510 	.ds	1
                                    511 
                                    512 ;--------------------------------------------------------
                                    513 ; indirectly addressable internal ram data
                                    514 ;--------------------------------------------------------
                                    515 	.area ISEG    (DATA)
                                    516 ;--------------------------------------------------------
                                    517 ; absolute internal ram data
                                    518 ;--------------------------------------------------------
                                    519 	.area IABS    (ABS,DATA)
                                    520 	.area IABS    (ABS,DATA)
                                    521 ;--------------------------------------------------------
                                    522 ; bit data
                                    523 ;--------------------------------------------------------
                                    524 	.area BSEG    (BIT)
      000000                        525 _is_alphabet_char_sloc0_1_0:
      000000                        526 	.ds 1
                                    527 ;--------------------------------------------------------
                                    528 ; paged external ram data
                                    529 ;--------------------------------------------------------
                                    530 	.area PSEG    (PAG,XDATA)
                                    531 ;--------------------------------------------------------
                                    532 ; external ram data
                                    533 ;--------------------------------------------------------
                                    534 	.area XSEG    (XDATA)
      000000                        535 _static_buffers::
      000000                        536 	.ds 22
      000016                        537 _is_alphabet_char_c_65536_79:
      000016                        538 	.ds 1
      000017                        539 _initialize_default_elements_buffer_65536_81:
      000017                        540 	.ds 3
      00001A                        541 _alloc_new_buffer_size_65536_83:
      00001A                        542 	.ds 2
      00001C                        543 _initialize_buffers_max_user_input_65538_91:
      00001C                        544 	.ds 2
      00001E                        545 _initialize_buffers_total_heap_sz_65539_105:
      00001E                        546 	.ds 2
      000020                        547 _initialize_buffers_curr_65540_109:
      000020                        548 	.ds 3
      000023                        549 _store_in_buffer_PARM_2:
      000023                        550 	.ds 1
      000024                        551 _store_in_buffer_buffer_65536_112:
      000024                        552 	.ds 3
      000027                        553 _command_header_command_string_65536_116:
      000027                        554 	.ds 3
      00002A                        555 _heap_report_total_heap_sz_65537_119:
      00002A                        556 	.ds 2
      00002C                        557 _get_user_buffer_sz_maximum_sz_65536_126:
      00002C                        558 	.ds 2
      00002E                        559 _qmark_command_handler_curr_output_char_65538_135:
      00002E                        560 	.ds 2
      000030                        561 _qmark_command_handler_curr_char_196610_137:
      000030                        562 	.ds 1
                                    563 ;--------------------------------------------------------
                                    564 ; absolute external ram data
                                    565 ;--------------------------------------------------------
                                    566 	.area XABS    (ABS,XDATA)
                                    567 ;--------------------------------------------------------
                                    568 ; external initialized ram data
                                    569 ;--------------------------------------------------------
                                    570 	.area XISEG   (XDATA)
      000000                        571 _dynamic_buffers_list::
      000000                        572 	.ds 3
                                    573 	.area HOME    (CODE)
                                    574 	.area GSINIT0 (CODE)
                                    575 	.area GSINIT1 (CODE)
                                    576 	.area GSINIT2 (CODE)
                                    577 	.area GSINIT3 (CODE)
                                    578 	.area GSINIT4 (CODE)
                                    579 	.area GSINIT5 (CODE)
                                    580 	.area GSINIT  (CODE)
                                    581 	.area GSFINAL (CODE)
                                    582 	.area CSEG    (CODE)
                                    583 ;--------------------------------------------------------
                                    584 ; interrupt vector
                                    585 ;--------------------------------------------------------
                                    586 	.area HOME    (CODE)
      000000                        587 __interrupt_vect:
      000000 02r00r00         [24]  588 	ljmp	__sdcc_gsinit_startup
                                    589 ;--------------------------------------------------------
                                    590 ; global & static initialisations
                                    591 ;--------------------------------------------------------
                                    592 	.area HOME    (CODE)
                                    593 	.area GSINIT  (CODE)
                                    594 	.area GSFINAL (CODE)
                                    595 	.area GSINIT  (CODE)
                                    596 	.globl __sdcc_gsinit_startup
                                    597 	.globl __sdcc_program_startup
                                    598 	.globl __start__stack
                                    599 	.globl __mcs51_genXINIT
                                    600 	.globl __mcs51_genXRAMCLEAR
                                    601 	.globl __mcs51_genRAMCLEAR
                                    602 	.area GSFINAL (CODE)
      000000 02r00r03         [24]  603 	ljmp	__sdcc_program_startup
                                    604 ;--------------------------------------------------------
                                    605 ; Home
                                    606 ;--------------------------------------------------------
                                    607 	.area HOME    (CODE)
                                    608 	.area HOME    (CODE)
      000003                        609 __sdcc_program_startup:
      000003 02r13rE7         [24]  610 	ljmp	_main
                                    611 ;	return from main will return to caller
                                    612 ;--------------------------------------------------------
                                    613 ; code
                                    614 ;--------------------------------------------------------
                                    615 	.area CSEG    (CODE)
                                    616 ;------------------------------------------------------------
                                    617 ;Allocation info for local variables in function '_sdcc_external_startup'
                                    618 ;------------------------------------------------------------
                                    619 ;	src/main.c:53: int _sdcc_external_startup()
                                    620 ;	-----------------------------------------
                                    621 ;	 function _sdcc_external_startup
                                    622 ;	-----------------------------------------
      000000                        623 __sdcc_external_startup:
                           000007   624 	ar7 = 0x07
                           000006   625 	ar6 = 0x06
                           000005   626 	ar5 = 0x05
                           000004   627 	ar4 = 0x04
                           000003   628 	ar3 = 0x03
                           000002   629 	ar2 = 0x02
                           000001   630 	ar1 = 0x01
                           000000   631 	ar0 = 0x00
                                    632 ;	src/main.c:56: return 0;
      000000 90 00 00         [24]  633 	mov	dptr,#0x0000
                                    634 ;	src/main.c:57: }
      000003 22               [24]  635 	ret
                                    636 ;------------------------------------------------------------
                                    637 ;Allocation info for local variables in function 'is_alphabet_char'
                                    638 ;------------------------------------------------------------
                                    639 ;c                         Allocated with name '_is_alphabet_char_c_65536_79'
                                    640 ;------------------------------------------------------------
                                    641 ;	src/main.c:87: bool is_alphabet_char(char c)
                                    642 ;	-----------------------------------------
                                    643 ;	 function is_alphabet_char
                                    644 ;	-----------------------------------------
      000004                        645 _is_alphabet_char:
      000004 E5 82            [12]  646 	mov	a,dpl
      000006 90r00r16         [24]  647 	mov	dptr,#_is_alphabet_char_c_65536_79
      000009 F0               [24]  648 	movx	@dptr,a
                                    649 ;	src/main.c:89: return (c <= 'Z' && c >= 'A')
      00000A E0               [24]  650 	movx	a,@dptr
      00000B FF               [12]  651 	mov  r7,a
      00000C 24 A5            [12]  652 	add	a,#0xff - 0x5a
      00000E 92*00            [24]  653 	mov	_is_alphabet_char_sloc0_1_0,c
      000010 40 07            [24]  654 	jc	00108$
      000012 BF 41 00         [24]  655 	cjne	r7,#0x41,00121$
      000015                        656 00121$:
      000015 92*00            [24]  657 	mov	_is_alphabet_char_sloc0_1_0,c
      000017 50 16            [24]  658 	jnc	00104$
      000019                        659 00108$:
                                    660 ;	src/main.c:90: || (c <= 'z' && c >= 'a');
      000019 90r00r16         [24]  661 	mov	dptr,#_is_alphabet_char_c_65536_79
      00001C E0               [24]  662 	movx	a,@dptr
      00001D FF               [12]  663 	mov  r7,a
      00001E 24 85            [12]  664 	add	a,#0xff - 0x7a
      000020 92*00            [24]  665 	mov	_is_alphabet_char_sloc0_1_0,c
      000022 40 07            [24]  666 	jc	00103$
      000024 BF 61 00         [24]  667 	cjne	r7,#0x61,00124$
      000027                        668 00124$:
      000027 92*00            [24]  669 	mov	_is_alphabet_char_sloc0_1_0,c
      000029 50 04            [24]  670 	jnc	00104$
      00002B                        671 00103$:
                                    672 ;	assignBit
      00002B C2*00            [12]  673 	clr	_is_alphabet_char_sloc0_1_0
      00002D 80 02            [24]  674 	sjmp	00105$
      00002F                        675 00104$:
                                    676 ;	assignBit
      00002F D2*00            [12]  677 	setb	_is_alphabet_char_sloc0_1_0
      000031                        678 00105$:
      000031 A2*00            [12]  679 	mov	c,_is_alphabet_char_sloc0_1_0
      000033 E4               [12]  680 	clr	a
      000034 33               [12]  681 	rlc	a
      000035 F5 82            [12]  682 	mov	dpl,a
                                    683 ;	src/main.c:91: }
      000037 22               [24]  684 	ret
                                    685 ;------------------------------------------------------------
                                    686 ;Allocation info for local variables in function 'initialize_default_elements'
                                    687 ;------------------------------------------------------------
                                    688 ;buffer                    Allocated with name '_initialize_default_elements_buffer_65536_81'
                                    689 ;------------------------------------------------------------
                                    690 ;	src/main.c:93: void initialize_default_elements(buffer_t *buffer)
                                    691 ;	-----------------------------------------
                                    692 ;	 function initialize_default_elements
                                    693 ;	-----------------------------------------
      000038                        694 _initialize_default_elements:
      000038 AF F0            [24]  695 	mov	r7,b
      00003A AE 83            [24]  696 	mov	r6,dph
      00003C E5 82            [12]  697 	mov	a,dpl
      00003E 90r00r17         [24]  698 	mov	dptr,#_initialize_default_elements_buffer_65536_81
      000041 F0               [24]  699 	movx	@dptr,a
      000042 EE               [12]  700 	mov	a,r6
      000043 A3               [24]  701 	inc	dptr
      000044 F0               [24]  702 	movx	@dptr,a
      000045 EF               [12]  703 	mov	a,r7
      000046 A3               [24]  704 	inc	dptr
      000047 F0               [24]  705 	movx	@dptr,a
                                    706 ;	src/main.c:95: buffer->alphabet_chars = 0;
      000048 90r00r17         [24]  707 	mov	dptr,#_initialize_default_elements_buffer_65536_81
      00004B E0               [24]  708 	movx	a,@dptr
      00004C FD               [12]  709 	mov	r5,a
      00004D A3               [24]  710 	inc	dptr
      00004E E0               [24]  711 	movx	a,@dptr
      00004F FE               [12]  712 	mov	r6,a
      000050 A3               [24]  713 	inc	dptr
      000051 E0               [24]  714 	movx	a,@dptr
      000052 FF               [12]  715 	mov	r7,a
      000053 74 02            [12]  716 	mov	a,#0x02
      000055 2D               [12]  717 	add	a,r5
      000056 FA               [12]  718 	mov	r2,a
      000057 E4               [12]  719 	clr	a
      000058 3E               [12]  720 	addc	a,r6
      000059 FB               [12]  721 	mov	r3,a
      00005A 8F 04            [24]  722 	mov	ar4,r7
      00005C 8A 82            [24]  723 	mov	dpl,r2
      00005E 8B 83            [24]  724 	mov	dph,r3
      000060 8C F0            [24]  725 	mov	b,r4
      000062 E4               [12]  726 	clr	a
      000063 12r00r00         [24]  727 	lcall	__gptrput
      000066 A3               [24]  728 	inc	dptr
      000067 12r00r00         [24]  729 	lcall	__gptrput
                                    730 ;	src/main.c:96: buffer->curr_available_char = 0;
      00006A 74 06            [12]  731 	mov	a,#0x06
      00006C 2D               [12]  732 	add	a,r5
      00006D FA               [12]  733 	mov	r2,a
      00006E E4               [12]  734 	clr	a
      00006F 3E               [12]  735 	addc	a,r6
      000070 FB               [12]  736 	mov	r3,a
      000071 8F 04            [24]  737 	mov	ar4,r7
      000073 8A 82            [24]  738 	mov	dpl,r2
      000075 8B 83            [24]  739 	mov	dph,r3
      000077 8C F0            [24]  740 	mov	b,r4
      000079 E4               [12]  741 	clr	a
      00007A 12r00r00         [24]  742 	lcall	__gptrput
      00007D A3               [24]  743 	inc	dptr
      00007E 12r00r00         [24]  744 	lcall	__gptrput
                                    745 ;	src/main.c:97: buffer->next = NULL;
      000081 74 08            [12]  746 	mov	a,#0x08
      000083 2D               [12]  747 	add	a,r5
      000084 FA               [12]  748 	mov	r2,a
      000085 E4               [12]  749 	clr	a
      000086 3E               [12]  750 	addc	a,r6
      000087 FB               [12]  751 	mov	r3,a
      000088 8F 04            [24]  752 	mov	ar4,r7
      00008A 8A 82            [24]  753 	mov	dpl,r2
      00008C 8B 83            [24]  754 	mov	dph,r3
      00008E 8C F0            [24]  755 	mov	b,r4
      000090 E4               [12]  756 	clr	a
      000091 12r00r00         [24]  757 	lcall	__gptrput
      000094 A3               [24]  758 	inc	dptr
      000095 12r00r00         [24]  759 	lcall	__gptrput
      000098 A3               [24]  760 	inc	dptr
      000099 12r00r00         [24]  761 	lcall	__gptrput
                                    762 ;	src/main.c:99: memset(buffer->buffer, 0x00, buffer->size);
      00009C 8D 82            [24]  763 	mov	dpl,r5
      00009E 8E 83            [24]  764 	mov	dph,r6
      0000A0 8F F0            [24]  765 	mov	b,r7
      0000A2 12r00r00         [24]  766 	lcall	__gptrget
      0000A5 FB               [12]  767 	mov	r3,a
      0000A6 A3               [24]  768 	inc	dptr
      0000A7 12r00r00         [24]  769 	lcall	__gptrget
      0000AA FC               [12]  770 	mov	r4,a
      0000AB 7A 00            [12]  771 	mov	r2,#0x00
      0000AD 74 04            [12]  772 	mov	a,#0x04
      0000AF 2D               [12]  773 	add	a,r5
      0000B0 FD               [12]  774 	mov	r5,a
      0000B1 E4               [12]  775 	clr	a
      0000B2 3E               [12]  776 	addc	a,r6
      0000B3 FE               [12]  777 	mov	r6,a
      0000B4 8D 82            [24]  778 	mov	dpl,r5
      0000B6 8E 83            [24]  779 	mov	dph,r6
      0000B8 8F F0            [24]  780 	mov	b,r7
      0000BA 12r00r00         [24]  781 	lcall	__gptrget
      0000BD FD               [12]  782 	mov	r5,a
      0000BE A3               [24]  783 	inc	dptr
      0000BF 12r00r00         [24]  784 	lcall	__gptrget
      0000C2 FE               [12]  785 	mov	r6,a
      0000C3 90r00r00         [24]  786 	mov	dptr,#_memset_PARM_2
      0000C6 E4               [12]  787 	clr	a
      0000C7 F0               [24]  788 	movx	@dptr,a
      0000C8 90r00r00         [24]  789 	mov	dptr,#_memset_PARM_3
      0000CB ED               [12]  790 	mov	a,r5
      0000CC F0               [24]  791 	movx	@dptr,a
      0000CD EE               [12]  792 	mov	a,r6
      0000CE A3               [24]  793 	inc	dptr
      0000CF F0               [24]  794 	movx	@dptr,a
      0000D0 8B 82            [24]  795 	mov	dpl,r3
      0000D2 8C 83            [24]  796 	mov	dph,r4
      0000D4 8A F0            [24]  797 	mov	b,r2
                                    798 ;	src/main.c:100: }
      0000D6 02r00r00         [24]  799 	ljmp	_memset
                                    800 ;------------------------------------------------------------
                                    801 ;Allocation info for local variables in function 'alloc_new_buffer'
                                    802 ;------------------------------------------------------------
                                    803 ;size                      Allocated with name '_alloc_new_buffer_size_65536_83'
                                    804 ;header                    Allocated with name '_alloc_new_buffer_header_65536_84'
                                    805 ;------------------------------------------------------------
                                    806 ;	src/main.c:102: buffer_t *alloc_new_buffer(size_t size)
                                    807 ;	-----------------------------------------
                                    808 ;	 function alloc_new_buffer
                                    809 ;	-----------------------------------------
      0000D9                        810 _alloc_new_buffer:
      0000D9 AF 83            [24]  811 	mov	r7,dph
      0000DB E5 82            [12]  812 	mov	a,dpl
      0000DD 90r00r1A         [24]  813 	mov	dptr,#_alloc_new_buffer_size_65536_83
      0000E0 F0               [24]  814 	movx	@dptr,a
      0000E1 EF               [12]  815 	mov	a,r7
      0000E2 A3               [24]  816 	inc	dptr
      0000E3 F0               [24]  817 	movx	@dptr,a
                                    818 ;	src/main.c:104: buffer_t *header = malloc(sizeof(buffer_t));
      0000E4 90 00 0B         [24]  819 	mov	dptr,#0x000b
      0000E7 12r00r00         [24]  820 	lcall	_malloc
      0000EA AE 82            [24]  821 	mov	r6,dpl
      0000EC AD 83            [24]  822 	mov	r5,dph
      0000EE 7F 00            [12]  823 	mov	r7,#0x00
                                    824 ;	src/main.c:105: if (header == NULL)
      0000F0 EE               [12]  825 	mov	a,r6
      0000F1 4D               [12]  826 	orl	a,r5
                                    827 ;	src/main.c:107: return NULL;
      0000F2 70 06            [24]  828 	jnz	00102$
      0000F4 90 00 00         [24]  829 	mov	dptr,#0x0000
      0000F7 F5 F0            [12]  830 	mov	b,a
      0000F9 22               [24]  831 	ret
      0000FA                        832 00102$:
                                    833 ;	src/main.c:109: header->size = size;
      0000FA 74 04            [12]  834 	mov	a,#0x04
      0000FC 2E               [12]  835 	add	a,r6
      0000FD FA               [12]  836 	mov	r2,a
      0000FE E4               [12]  837 	clr	a
      0000FF 3D               [12]  838 	addc	a,r5
      000100 FB               [12]  839 	mov	r3,a
      000101 8F 04            [24]  840 	mov	ar4,r7
      000103 90r00r1A         [24]  841 	mov	dptr,#_alloc_new_buffer_size_65536_83
      000106 E0               [24]  842 	movx	a,@dptr
      000107 F8               [12]  843 	mov	r0,a
      000108 A3               [24]  844 	inc	dptr
      000109 E0               [24]  845 	movx	a,@dptr
      00010A F9               [12]  846 	mov	r1,a
      00010B 8A 82            [24]  847 	mov	dpl,r2
      00010D 8B 83            [24]  848 	mov	dph,r3
      00010F 8C F0            [24]  849 	mov	b,r4
      000111 E8               [12]  850 	mov	a,r0
      000112 12r00r00         [24]  851 	lcall	__gptrput
      000115 A3               [24]  852 	inc	dptr
      000116 E9               [12]  853 	mov	a,r1
      000117 12r00r00         [24]  854 	lcall	__gptrput
                                    855 ;	src/main.c:110: header->buffer = malloc(size);
      00011A 88 82            [24]  856 	mov	dpl,r0
      00011C 89 83            [24]  857 	mov	dph,r1
      00011E C0 07            [24]  858 	push	ar7
      000120 C0 06            [24]  859 	push	ar6
      000122 C0 05            [24]  860 	push	ar5
      000124 12r00r00         [24]  861 	lcall	_malloc
      000127 AB 82            [24]  862 	mov	r3,dpl
      000129 AC 83            [24]  863 	mov	r4,dph
      00012B D0 05            [24]  864 	pop	ar5
      00012D D0 06            [24]  865 	pop	ar6
      00012F D0 07            [24]  866 	pop	ar7
      000131 8E 82            [24]  867 	mov	dpl,r6
      000133 8D 83            [24]  868 	mov	dph,r5
      000135 8F F0            [24]  869 	mov	b,r7
      000137 EB               [12]  870 	mov	a,r3
      000138 12r00r00         [24]  871 	lcall	__gptrput
      00013B A3               [24]  872 	inc	dptr
      00013C EC               [12]  873 	mov	a,r4
      00013D 12r00r00         [24]  874 	lcall	__gptrput
                                    875 ;	src/main.c:111: if (header->buffer == NULL)
      000140 EB               [12]  876 	mov	a,r3
      000141 4C               [12]  877 	orl	a,r4
      000142 70 16            [24]  878 	jnz	00104$
                                    879 ;	src/main.c:113: free(header);
      000144 8E 02            [24]  880 	mov	ar2,r6
      000146 8D 03            [24]  881 	mov	ar3,r5
      000148 8F 04            [24]  882 	mov	ar4,r7
      00014A 8A 82            [24]  883 	mov	dpl,r2
      00014C 8B 83            [24]  884 	mov	dph,r3
      00014E 8C F0            [24]  885 	mov	b,r4
      000150 12r00r00         [24]  886 	lcall	_free
                                    887 ;	src/main.c:114: return NULL;
      000153 90 00 00         [24]  888 	mov	dptr,#0x0000
      000156 75 F0 00         [24]  889 	mov	b,#0x00
      000159 22               [24]  890 	ret
      00015A                        891 00104$:
                                    892 ;	src/main.c:116: initialize_default_elements(header);
      00015A 8E 82            [24]  893 	mov	dpl,r6
      00015C 8D 83            [24]  894 	mov	dph,r5
      00015E 8F F0            [24]  895 	mov	b,r7
      000160 C0 07            [24]  896 	push	ar7
      000162 C0 06            [24]  897 	push	ar6
      000164 C0 05            [24]  898 	push	ar5
      000166 12r00r38         [24]  899 	lcall	_initialize_default_elements
      000169 D0 05            [24]  900 	pop	ar5
      00016B D0 06            [24]  901 	pop	ar6
      00016D D0 07            [24]  902 	pop	ar7
                                    903 ;	src/main.c:117: return header; 
      00016F 8E 82            [24]  904 	mov	dpl,r6
      000171 8D 83            [24]  905 	mov	dph,r5
      000173 8F F0            [24]  906 	mov	b,r7
                                    907 ;	src/main.c:118: }
      000175 22               [24]  908 	ret
                                    909 ;------------------------------------------------------------
                                    910 ;Allocation info for local variables in function 'initialize_buffers'
                                    911 ;------------------------------------------------------------
                                    912 ;sloc0                     Allocated with name '_initialize_buffers_sloc0_1_0'
                                    913 ;sloc1                     Allocated with name '_initialize_buffers_sloc1_1_0'
                                    914 ;sloc2                     Allocated with name '_initialize_buffers_sloc2_1_0'
                                    915 ;sloc3                     Allocated with name '_initialize_buffers_sloc3_1_0'
                                    916 ;sloc4                     Allocated with name '_initialize_buffers_sloc4_1_0'
                                    917 ;sloc5                     Allocated with name '_initialize_buffers_sloc5_1_0'
                                    918 ;student_number            Allocated with name '_initialize_buffers_student_number_65537_88'
                                    919 ;max_user_input            Allocated with name '_initialize_buffers_max_user_input_65538_91'
                                    920 ;user_buffer_size          Allocated with name '_initialize_buffers_user_buffer_size_65538_91'
                                    921 ;i                         Allocated with name '_initialize_buffers_i_196610_93'
                                    922 ;i                         Allocated with name '_initialize_buffers_i_196610_97'
                                    923 ;new_buffer                Allocated with name '_initialize_buffers_new_buffer_262146_98'
                                    924 ;buffer_4                  Allocated with name '_initialize_buffers_buffer_4_131075_101'
                                    925 ;buffer_5                  Allocated with name '_initialize_buffers_buffer_5_131076_103'
                                    926 ;total_heap_sz             Allocated with name '_initialize_buffers_total_heap_sz_65539_105'
                                    927 ;i                         Allocated with name '_initialize_buffers_i_65539_105'
                                    928 ;curr                      Allocated with name '_initialize_buffers_curr_65540_109'
                                    929 ;------------------------------------------------------------
                                    930 ;	src/main.c:121: void initialize_buffers()
                                    931 ;	-----------------------------------------
                                    932 ;	 function initialize_buffers
                                    933 ;	-----------------------------------------
      000176                        934 _initialize_buffers:
                                    935 ;	src/main.c:123: dynamic_buffers_list.head = NULL;
      000176 90r00r00         [24]  936 	mov	dptr,#_dynamic_buffers_list
      000179 E4               [12]  937 	clr	a
      00017A F0               [24]  938 	movx	@dptr,a
      00017B A3               [24]  939 	inc	dptr
      00017C F0               [24]  940 	movx	@dptr,a
      00017D A3               [24]  941 	inc	dptr
      00017E F0               [24]  942 	movx	@dptr,a
                                    943 ;	src/main.c:125: while (true) 
      00017F                        944 00105$:
                                    945 ;	src/main.c:127: printf("\r\nPlease enter the last two digits of your ID:");
      00017F 74r00            [12]  946 	mov	a,#___str_0
      000181 C0 E0            [24]  947 	push	acc
      000183 74s00            [12]  948 	mov	a,#(___str_0 >> 8)
      000185 C0 E0            [24]  949 	push	acc
      000187 74 80            [12]  950 	mov	a,#0x80
      000189 C0 E0            [24]  951 	push	acc
      00018B 12r00r00         [24]  952 	lcall	_printf
      00018E 15 81            [12]  953 	dec	sp
      000190 15 81            [12]  954 	dec	sp
      000192 15 81            [12]  955 	dec	sp
                                    956 ;	src/main.c:128: get_string();
      000194 12r00r00         [24]  957 	lcall	_get_string
                                    958 ;	src/main.c:129: student_number = atoi(get_input_buffer());
      000197 12r00r00         [24]  959 	lcall	_get_input_buffer
      00019A 12r00r00         [24]  960 	lcall	_atoi
      00019D 85 82*04         [24]  961 	mov	_initialize_buffers_sloc2_1_0,dpl
                                    962 ;	src/main.c:130: if (!(student_number < 0 || student_number > MAX_STUDENT_NUMBER))
      0001A0 E5 83            [12]  963 	mov	a,dph
      0001A2 F5*05            [12]  964 	mov	(_initialize_buffers_sloc2_1_0 + 1),a
      0001A4 20 E7 D8         [24]  965 	jb	acc.7,00105$
      0001A7 C3               [12]  966 	clr	c
      0001A8 74 63            [12]  967 	mov	a,#0x63
      0001AA 95*04            [12]  968 	subb	a,_initialize_buffers_sloc2_1_0
      0001AC 74 80            [12]  969 	mov	a,#(0x00 ^ 0x80)
      0001AE 85*05 F0         [24]  970 	mov	b,(_initialize_buffers_sloc2_1_0 + 1)
      0001B1 63 F0 80         [24]  971 	xrl	b,#0x80
      0001B4 95 F0            [12]  972 	subb	a,b
      0001B6 40 C7            [24]  973 	jc	00105$
                                    974 ;	src/main.c:136: size_t max_user_input = USER_BUFFER_MAX;
      0001B8 90r00r1C         [24]  975 	mov	dptr,#_initialize_buffers_max_user_input_65538_91
      0001BB E4               [12]  976 	clr	a
      0001BC F0               [24]  977 	movx	@dptr,a
      0001BD 74 04            [12]  978 	mov	a,#0x04
      0001BF A3               [24]  979 	inc	dptr
      0001C0 F0               [24]  980 	movx	@dptr,a
                                    981 ;	src/main.c:140: memset(static_buffers, 0, BUFFER_ALWAYS_HELD_COUNT * sizeof(buffer_t));
      0001C1 90r00r00         [24]  982 	mov	dptr,#_memset_PARM_2
      0001C4 E4               [12]  983 	clr	a
      0001C5 F0               [24]  984 	movx	@dptr,a
      0001C6 90r00r00         [24]  985 	mov	dptr,#_memset_PARM_3
      0001C9 74 16            [12]  986 	mov	a,#0x16
      0001CB F0               [24]  987 	movx	@dptr,a
      0001CC E4               [12]  988 	clr	a
      0001CD A3               [24]  989 	inc	dptr
      0001CE F0               [24]  990 	movx	@dptr,a
      0001CF 90r00r00         [24]  991 	mov	dptr,#_static_buffers
      0001D2 75 F0 00         [24]  992 	mov	b,#0x00
      0001D5 12r00r00         [24]  993 	lcall	_memset
                                    994 ;	src/main.c:141: while(true)
      0001D8 74 02            [12]  995 	mov	a,#0x02
      0001DA 25*04            [12]  996 	add	a,_initialize_buffers_sloc2_1_0
      0001DC FC               [12]  997 	mov	r4,a
      0001DD E4               [12]  998 	clr	a
      0001DE 35*05            [12]  999 	addc	a,(_initialize_buffers_sloc2_1_0 + 1)
      0001E0 FD               [12] 1000 	mov	r5,a
      0001E1                       1001 00121$:
                                   1002 ;	src/main.c:143: user_buffer_size = get_user_buffer_sz(max_user_input);
      0001E1 90r00r1C         [24] 1003 	mov	dptr,#_initialize_buffers_max_user_input_65538_91
      0001E4 E0               [24] 1004 	movx	a,@dptr
      0001E5 FA               [12] 1005 	mov	r2,a
      0001E6 A3               [24] 1006 	inc	dptr
      0001E7 E0               [24] 1007 	movx	a,@dptr
      0001E8 FB               [12] 1008 	mov	r3,a
      0001E9 8A 82            [24] 1009 	mov	dpl,r2
      0001EB 8B 83            [24] 1010 	mov	dph,r3
      0001ED C0 05            [24] 1011 	push	ar5
      0001EF C0 04            [24] 1012 	push	ar4
      0001F1 12r0Br1C         [24] 1013 	lcall	_get_user_buffer_sz
      0001F4 AA 82            [24] 1014 	mov	r2,dpl
      0001F6 AB 83            [24] 1015 	mov	r3,dph
      0001F8 D0 04            [24] 1016 	pop	ar4
      0001FA D0 05            [24] 1017 	pop	ar5
                                   1018 ;	src/main.c:144: for(int i = 0; i < BUFFER_ALWAYS_HELD_COUNT; i++)
      0001FC 78 00            [12] 1019 	mov	r0,#0x00
      0001FE 79 00            [12] 1020 	mov	r1,#0x00
      000200                       1021 00132$:
      000200 C3               [12] 1022 	clr	c
      000201 E8               [12] 1023 	mov	a,r0
      000202 94 02            [12] 1024 	subb	a,#0x02
      000204 E9               [12] 1025 	mov	a,r1
      000205 64 80            [12] 1026 	xrl	a,#0x80
      000207 94 80            [12] 1027 	subb	a,#0x80
      000209 40 03            [24] 1028 	jc	00217$
      00020B 02r03r8D         [24] 1029 	ljmp	00150$
      00020E                       1030 00217$:
                                   1031 ;	src/main.c:147: static_buffers[i].buffer = malloc(user_buffer_size);
      00020E C0 04            [24] 1032 	push	ar4
      000210 C0 05            [24] 1033 	push	ar5
      000212 90r00r00         [24] 1034 	mov	dptr,#__mulint_PARM_2
      000215 E8               [12] 1035 	mov	a,r0
      000216 F0               [24] 1036 	movx	@dptr,a
      000217 E9               [12] 1037 	mov	a,r1
      000218 A3               [24] 1038 	inc	dptr
      000219 F0               [24] 1039 	movx	@dptr,a
      00021A 90 00 0B         [24] 1040 	mov	dptr,#0x000b
      00021D C0 05            [24] 1041 	push	ar5
      00021F C0 04            [24] 1042 	push	ar4
      000221 C0 03            [24] 1043 	push	ar3
      000223 C0 02            [24] 1044 	push	ar2
      000225 C0 01            [24] 1045 	push	ar1
      000227 C0 00            [24] 1046 	push	ar0
      000229 12r00r00         [24] 1047 	lcall	__mulint
      00022C 85 82*00         [24] 1048 	mov	_initialize_buffers_sloc0_1_0,dpl
      00022F 85 83*01         [24] 1049 	mov	(_initialize_buffers_sloc0_1_0 + 1),dph
      000232 D0 00            [24] 1050 	pop	ar0
      000234 D0 01            [24] 1051 	pop	ar1
      000236 D0 02            [24] 1052 	pop	ar2
      000238 D0 03            [24] 1053 	pop	ar3
      00023A D0 04            [24] 1054 	pop	ar4
      00023C D0 05            [24] 1055 	pop	ar5
      00023E E5*00            [12] 1056 	mov	a,_initialize_buffers_sloc0_1_0
      000240 24r00            [12] 1057 	add	a,#_static_buffers
      000242 F5*02            [12] 1058 	mov	_initialize_buffers_sloc1_1_0,a
      000244 E5*01            [12] 1059 	mov	a,(_initialize_buffers_sloc0_1_0 + 1)
      000246 34s00            [12] 1060 	addc	a,#(_static_buffers >> 8)
      000248 F5*03            [12] 1061 	mov	(_initialize_buffers_sloc1_1_0 + 1),a
      00024A 8A 82            [24] 1062 	mov	dpl,r2
      00024C 8B 83            [24] 1063 	mov	dph,r3
      00024E C0 03            [24] 1064 	push	ar3
      000250 C0 02            [24] 1065 	push	ar2
      000252 C0 01            [24] 1066 	push	ar1
      000254 C0 00            [24] 1067 	push	ar0
      000256 12r00r00         [24] 1068 	lcall	_malloc
      000259 AC 82            [24] 1069 	mov	r4,dpl
      00025B AD 83            [24] 1070 	mov	r5,dph
      00025D D0 00            [24] 1071 	pop	ar0
      00025F D0 01            [24] 1072 	pop	ar1
      000261 D0 02            [24] 1073 	pop	ar2
      000263 D0 03            [24] 1074 	pop	ar3
      000265 85*02 82         [24] 1075 	mov	dpl,_initialize_buffers_sloc1_1_0
      000268 85*03 83         [24] 1076 	mov	dph,(_initialize_buffers_sloc1_1_0 + 1)
      00026B EC               [12] 1077 	mov	a,r4
      00026C F0               [24] 1078 	movx	@dptr,a
      00026D ED               [12] 1079 	mov	a,r5
      00026E A3               [24] 1080 	inc	dptr
      00026F F0               [24] 1081 	movx	@dptr,a
                                   1082 ;	src/main.c:149: printf("\r\n static_buffers[%d].buffer %p", i, static_buffers[i].buffer);
      000270 7F 00            [12] 1083 	mov	r7,#0x00
      000272 C0 05            [24] 1084 	push	ar5
      000274 C0 04            [24] 1085 	push	ar4
      000276 C0 03            [24] 1086 	push	ar3
      000278 C0 02            [24] 1087 	push	ar2
      00027A C0 01            [24] 1088 	push	ar1
      00027C C0 00            [24] 1089 	push	ar0
      00027E C0 04            [24] 1090 	push	ar4
      000280 C0 05            [24] 1091 	push	ar5
      000282 C0 07            [24] 1092 	push	ar7
      000284 C0 00            [24] 1093 	push	ar0
      000286 C0 01            [24] 1094 	push	ar1
      000288 74r2F            [12] 1095 	mov	a,#___str_1
      00028A C0 E0            [24] 1096 	push	acc
      00028C 74s00            [12] 1097 	mov	a,#(___str_1 >> 8)
      00028E C0 E0            [24] 1098 	push	acc
      000290 74 80            [12] 1099 	mov	a,#0x80
      000292 C0 E0            [24] 1100 	push	acc
      000294 12r00r00         [24] 1101 	lcall	_printf
      000297 E5 81            [12] 1102 	mov	a,sp
      000299 24 F8            [12] 1103 	add	a,#0xf8
      00029B F5 81            [12] 1104 	mov	sp,a
      00029D D0 00            [24] 1105 	pop	ar0
      00029F D0 01            [24] 1106 	pop	ar1
      0002A1 D0 02            [24] 1107 	pop	ar2
      0002A3 D0 03            [24] 1108 	pop	ar3
      0002A5 D0 04            [24] 1109 	pop	ar4
      0002A7 D0 05            [24] 1110 	pop	ar5
                                   1111 ;	src/main.c:150: if(static_buffers[i].buffer == NULL)
      0002A9 85*02 82         [24] 1112 	mov	dpl,_initialize_buffers_sloc1_1_0
      0002AC 85*03 83         [24] 1113 	mov	dph,(_initialize_buffers_sloc1_1_0 + 1)
      0002AF E0               [24] 1114 	movx	a,@dptr
      0002B0 FE               [12] 1115 	mov	r6,a
      0002B1 A3               [24] 1116 	inc	dptr
      0002B2 E0               [24] 1117 	movx	a,@dptr
      0002B3 FF               [12] 1118 	mov	r7,a
      0002B4 D0 05            [24] 1119 	pop	ar5
      0002B6 D0 04            [24] 1120 	pop	ar4
      0002B8 EE               [12] 1121 	mov	a,r6
      0002B9 4F               [12] 1122 	orl	a,r7
      0002BA 70 3B            [24] 1123 	jnz	00108$
                                   1124 ;	src/main.c:152: free_all_buffers();
      0002BC C0 05            [24] 1125 	push	ar5
      0002BE C0 04            [24] 1126 	push	ar4
      0002C0 C0 03            [24] 1127 	push	ar3
      0002C2 C0 02            [24] 1128 	push	ar2
      0002C4 12r0Br76         [24] 1129 	lcall	_free_all_buffers
                                   1130 ;	src/main.c:153: printf(BUFFER_SZ_TOO_BIG);
      0002C7 74r4F            [12] 1131 	mov	a,#___str_2
      0002C9 C0 E0            [24] 1132 	push	acc
      0002CB 74s00            [12] 1133 	mov	a,#(___str_2 >> 8)
      0002CD C0 E0            [24] 1134 	push	acc
      0002CF 74 80            [12] 1135 	mov	a,#0x80
      0002D1 C0 E0            [24] 1136 	push	acc
      0002D3 12r00r00         [24] 1137 	lcall	_printf
      0002D6 15 81            [12] 1138 	dec	sp
      0002D8 15 81            [12] 1139 	dec	sp
      0002DA 15 81            [12] 1140 	dec	sp
      0002DC D0 02            [24] 1141 	pop	ar2
      0002DE D0 03            [24] 1142 	pop	ar3
      0002E0 D0 04            [24] 1143 	pop	ar4
      0002E2 D0 05            [24] 1144 	pop	ar5
                                   1145 ;	src/main.c:154: max_user_input = user_buffer_size-1;
      0002E4 EA               [12] 1146 	mov	a,r2
      0002E5 24 FF            [12] 1147 	add	a,#0xff
      0002E7 FE               [12] 1148 	mov	r6,a
      0002E8 EB               [12] 1149 	mov	a,r3
      0002E9 34 FF            [12] 1150 	addc	a,#0xff
      0002EB FF               [12] 1151 	mov	r7,a
      0002EC 90r00r1C         [24] 1152 	mov	dptr,#_initialize_buffers_max_user_input_65538_91
      0002EF EE               [12] 1153 	mov	a,r6
      0002F0 F0               [24] 1154 	movx	@dptr,a
      0002F1 EF               [12] 1155 	mov	a,r7
      0002F2 A3               [24] 1156 	inc	dptr
      0002F3 F0               [24] 1157 	movx	@dptr,a
                                   1158 ;	src/main.c:155: goto get_the_buffer_sz; //TODO: find way that involves not using a goto to do this
      0002F4 02r01rE1         [24] 1159 	ljmp	00121$
      0002F7                       1160 00108$:
                                   1161 ;	src/main.c:157: static_buffers[i].size = (size_t) user_buffer_size;
      0002F7 C0 04            [24] 1162 	push	ar4
      0002F9 C0 05            [24] 1163 	push	ar5
      0002FB E5*00            [12] 1164 	mov	a,_initialize_buffers_sloc0_1_0
      0002FD 24r00            [12] 1165 	add	a,#_static_buffers
      0002FF F5*02            [12] 1166 	mov	_initialize_buffers_sloc1_1_0,a
      000301 E5*01            [12] 1167 	mov	a,(_initialize_buffers_sloc0_1_0 + 1)
      000303 34s00            [12] 1168 	addc	a,#(_static_buffers >> 8)
      000305 F5*03            [12] 1169 	mov	(_initialize_buffers_sloc1_1_0 + 1),a
      000307 85*02 82         [24] 1170 	mov	dpl,_initialize_buffers_sloc1_1_0
      00030A 85*03 83         [24] 1171 	mov	dph,(_initialize_buffers_sloc1_1_0 + 1)
      00030D A3               [24] 1172 	inc	dptr
      00030E A3               [24] 1173 	inc	dptr
      00030F A3               [24] 1174 	inc	dptr
      000310 A3               [24] 1175 	inc	dptr
      000311 EA               [12] 1176 	mov	a,r2
      000312 F0               [24] 1177 	movx	@dptr,a
      000313 EB               [12] 1178 	mov	a,r3
      000314 A3               [24] 1179 	inc	dptr
      000315 F0               [24] 1180 	movx	@dptr,a
                                   1181 ;	src/main.c:158: initialize_default_elements(&static_buffers[i]);
      000316 AC*02            [24] 1182 	mov	r4,_initialize_buffers_sloc1_1_0
      000318 AD*03            [24] 1183 	mov	r5,(_initialize_buffers_sloc1_1_0 + 1)
      00031A 7F 00            [12] 1184 	mov	r7,#0x00
      00031C 8C 82            [24] 1185 	mov	dpl,r4
      00031E 8D 83            [24] 1186 	mov	dph,r5
      000320 8F F0            [24] 1187 	mov	b,r7
      000322 C0 05            [24] 1188 	push	ar5
      000324 C0 04            [24] 1189 	push	ar4
      000326 C0 03            [24] 1190 	push	ar3
      000328 C0 02            [24] 1191 	push	ar2
      00032A C0 01            [24] 1192 	push	ar1
      00032C C0 00            [24] 1193 	push	ar0
      00032E 12r00r38         [24] 1194 	lcall	_initialize_default_elements
      000331 D0 00            [24] 1195 	pop	ar0
      000333 D0 01            [24] 1196 	pop	ar1
      000335 D0 02            [24] 1197 	pop	ar2
      000337 D0 03            [24] 1198 	pop	ar3
      000339 D0 04            [24] 1199 	pop	ar4
      00033B D0 05            [24] 1200 	pop	ar5
                                   1201 ;	src/main.c:159: printf("\r\n static_buffers[%d].buffer %p", i, static_buffers[i].buffer);
      00033D 85*02 82         [24] 1202 	mov	dpl,_initialize_buffers_sloc1_1_0
      000340 85*03 83         [24] 1203 	mov	dph,(_initialize_buffers_sloc1_1_0 + 1)
      000343 E0               [24] 1204 	movx	a,@dptr
      000344 FE               [12] 1205 	mov	r6,a
      000345 A3               [24] 1206 	inc	dptr
      000346 E0               [24] 1207 	movx	a,@dptr
      000347 FF               [12] 1208 	mov	r7,a
      000348 7D 00            [12] 1209 	mov	r5,#0x00
      00034A C0 05            [24] 1210 	push	ar5
      00034C C0 04            [24] 1211 	push	ar4
      00034E C0 03            [24] 1212 	push	ar3
      000350 C0 02            [24] 1213 	push	ar2
      000352 C0 01            [24] 1214 	push	ar1
      000354 C0 00            [24] 1215 	push	ar0
      000356 C0 06            [24] 1216 	push	ar6
      000358 C0 07            [24] 1217 	push	ar7
      00035A C0 05            [24] 1218 	push	ar5
      00035C C0 00            [24] 1219 	push	ar0
      00035E C0 01            [24] 1220 	push	ar1
      000360 74r2F            [12] 1221 	mov	a,#___str_1
      000362 C0 E0            [24] 1222 	push	acc
      000364 74s00            [12] 1223 	mov	a,#(___str_1 >> 8)
      000366 C0 E0            [24] 1224 	push	acc
      000368 74 80            [12] 1225 	mov	a,#0x80
      00036A C0 E0            [24] 1226 	push	acc
      00036C 12r00r00         [24] 1227 	lcall	_printf
      00036F E5 81            [12] 1228 	mov	a,sp
      000371 24 F8            [12] 1229 	add	a,#0xf8
      000373 F5 81            [12] 1230 	mov	sp,a
      000375 D0 00            [24] 1231 	pop	ar0
      000377 D0 01            [24] 1232 	pop	ar1
      000379 D0 02            [24] 1233 	pop	ar2
      00037B D0 03            [24] 1234 	pop	ar3
      00037D D0 04            [24] 1235 	pop	ar4
      00037F D0 05            [24] 1236 	pop	ar5
                                   1237 ;	src/main.c:144: for(int i = 0; i < BUFFER_ALWAYS_HELD_COUNT; i++)
      000381 08               [12] 1238 	inc	r0
      000382 B8 00 01         [24] 1239 	cjne	r0,#0x00,00219$
      000385 09               [12] 1240 	inc	r1
      000386                       1241 00219$:
      000386 D0 05            [24] 1242 	pop	ar5
      000388 D0 04            [24] 1243 	pop	ar4
      00038A 02r02r00         [24] 1244 	ljmp	00132$
                                   1245 ;	src/main.c:164: for(int i = 0; i < INTIAL_DYNAMIC_BUFFER_COUNT; i++) 
      00038D                       1246 00150$:
      00038D 7E 00            [12] 1247 	mov	r6,#0x00
      00038F 7F 00            [12] 1248 	mov	r7,#0x00
      000391                       1249 00135$:
      000391 C3               [12] 1250 	clr	c
      000392 EE               [12] 1251 	mov	a,r6
      000393 94 04            [12] 1252 	subb	a,#0x04
      000395 EF               [12] 1253 	mov	a,r7
      000396 64 80            [12] 1254 	xrl	a,#0x80
      000398 94 80            [12] 1255 	subb	a,#0x80
      00039A 40 03            [24] 1256 	jc	00220$
      00039C 02r04r3F         [24] 1257 	ljmp	00114$
      00039F                       1258 00220$:
                                   1259 ;	src/main.c:166: buffer_t *new_buffer = alloc_new_buffer(user_buffer_size);
      00039F 8A 82            [24] 1260 	mov	dpl,r2
      0003A1 8B 83            [24] 1261 	mov	dph,r3
      0003A3 C0 07            [24] 1262 	push	ar7
      0003A5 C0 06            [24] 1263 	push	ar6
      0003A7 C0 05            [24] 1264 	push	ar5
      0003A9 C0 04            [24] 1265 	push	ar4
      0003AB C0 03            [24] 1266 	push	ar3
      0003AD C0 02            [24] 1267 	push	ar2
      0003AF 12r00rD9         [24] 1268 	lcall	_alloc_new_buffer
      0003B2 85 82*06         [24] 1269 	mov	_initialize_buffers_sloc3_1_0,dpl
      0003B5 85 83*07         [24] 1270 	mov	(_initialize_buffers_sloc3_1_0 + 1),dph
      0003B8 85 F0*08         [24] 1271 	mov	(_initialize_buffers_sloc3_1_0 + 2),b
      0003BB D0 02            [24] 1272 	pop	ar2
      0003BD D0 03            [24] 1273 	pop	ar3
      0003BF D0 04            [24] 1274 	pop	ar4
      0003C1 D0 05            [24] 1275 	pop	ar5
      0003C3 D0 06            [24] 1276 	pop	ar6
      0003C5 D0 07            [24] 1277 	pop	ar7
                                   1278 ;	src/main.c:167: if (new_buffer == NULL)
      0003C7 E5*06            [12] 1279 	mov	a,_initialize_buffers_sloc3_1_0
      0003C9 45*07            [12] 1280 	orl	a,(_initialize_buffers_sloc3_1_0 + 1)
      0003CB 70 3B            [24] 1281 	jnz	00112$
                                   1282 ;	src/main.c:169: free_all_buffers();
      0003CD C0 05            [24] 1283 	push	ar5
      0003CF C0 04            [24] 1284 	push	ar4
      0003D1 C0 03            [24] 1285 	push	ar3
      0003D3 C0 02            [24] 1286 	push	ar2
      0003D5 12r0Br76         [24] 1287 	lcall	_free_all_buffers
                                   1288 ;	src/main.c:170: printf(BUFFER_SZ_TOO_BIG);
      0003D8 74r4F            [12] 1289 	mov	a,#___str_2
      0003DA C0 E0            [24] 1290 	push	acc
      0003DC 74s00            [12] 1291 	mov	a,#(___str_2 >> 8)
      0003DE C0 E0            [24] 1292 	push	acc
      0003E0 74 80            [12] 1293 	mov	a,#0x80
      0003E2 C0 E0            [24] 1294 	push	acc
      0003E4 12r00r00         [24] 1295 	lcall	_printf
      0003E7 15 81            [12] 1296 	dec	sp
      0003E9 15 81            [12] 1297 	dec	sp
      0003EB 15 81            [12] 1298 	dec	sp
      0003ED D0 02            [24] 1299 	pop	ar2
      0003EF D0 03            [24] 1300 	pop	ar3
      0003F1 D0 04            [24] 1301 	pop	ar4
      0003F3 D0 05            [24] 1302 	pop	ar5
                                   1303 ;	src/main.c:171: max_user_input = user_buffer_size-1;
      0003F5 EA               [12] 1304 	mov	a,r2
      0003F6 24 FF            [12] 1305 	add	a,#0xff
      0003F8 F8               [12] 1306 	mov	r0,a
      0003F9 EB               [12] 1307 	mov	a,r3
      0003FA 34 FF            [12] 1308 	addc	a,#0xff
      0003FC F9               [12] 1309 	mov	r1,a
      0003FD 90r00r1C         [24] 1310 	mov	dptr,#_initialize_buffers_max_user_input_65538_91
      000400 E8               [12] 1311 	mov	a,r0
      000401 F0               [24] 1312 	movx	@dptr,a
      000402 E9               [12] 1313 	mov	a,r1
      000403 A3               [24] 1314 	inc	dptr
      000404 F0               [24] 1315 	movx	@dptr,a
                                   1316 ;	src/main.c:172: goto get_the_buffer_sz; //TODO: find way that involves not using a goto to do this
      000405 02r01rE1         [24] 1317 	ljmp	00121$
      000408                       1318 00112$:
                                   1319 ;	src/main.c:176: append_to_buffer_list(&dynamic_buffers_list, new_buffer);
      000408 90r00r00         [24] 1320 	mov	dptr,#_append_to_buffer_list_PARM_2
      00040B E5*06            [12] 1321 	mov	a,_initialize_buffers_sloc3_1_0
      00040D F0               [24] 1322 	movx	@dptr,a
      00040E E5*07            [12] 1323 	mov	a,(_initialize_buffers_sloc3_1_0 + 1)
      000410 A3               [24] 1324 	inc	dptr
      000411 F0               [24] 1325 	movx	@dptr,a
      000412 E5*08            [12] 1326 	mov	a,(_initialize_buffers_sloc3_1_0 + 2)
      000414 A3               [24] 1327 	inc	dptr
      000415 F0               [24] 1328 	movx	@dptr,a
      000416 90r00r00         [24] 1329 	mov	dptr,#_dynamic_buffers_list
      000419 75 F0 00         [24] 1330 	mov	b,#0x00
      00041C C0 07            [24] 1331 	push	ar7
      00041E C0 06            [24] 1332 	push	ar6
      000420 C0 05            [24] 1333 	push	ar5
      000422 C0 04            [24] 1334 	push	ar4
      000424 C0 03            [24] 1335 	push	ar3
      000426 C0 02            [24] 1336 	push	ar2
      000428 12r00r00         [24] 1337 	lcall	_append_to_buffer_list
      00042B D0 02            [24] 1338 	pop	ar2
      00042D D0 03            [24] 1339 	pop	ar3
      00042F D0 04            [24] 1340 	pop	ar4
      000431 D0 05            [24] 1341 	pop	ar5
      000433 D0 06            [24] 1342 	pop	ar6
      000435 D0 07            [24] 1343 	pop	ar7
                                   1344 ;	src/main.c:164: for(int i = 0; i < INTIAL_DYNAMIC_BUFFER_COUNT; i++) 
      000437 0E               [12] 1345 	inc	r6
      000438 BE 00 01         [24] 1346 	cjne	r6,#0x00,00222$
      00043B 0F               [12] 1347 	inc	r7
      00043C                       1348 00222$:
      00043C 02r03r91         [24] 1349 	ljmp	00135$
      00043F                       1350 00114$:
                                   1351 ;	src/main.c:180: buffer_t *buffer_4 = alloc_new_buffer((size_t) 10 * (student_number + 2));
      00043F 90r00r00         [24] 1352 	mov	dptr,#__mulint_PARM_2
      000442 EC               [12] 1353 	mov	a,r4
      000443 F0               [24] 1354 	movx	@dptr,a
      000444 ED               [12] 1355 	mov	a,r5
      000445 A3               [24] 1356 	inc	dptr
      000446 F0               [24] 1357 	movx	@dptr,a
      000447 90 00 0A         [24] 1358 	mov	dptr,#0x000a
      00044A C0 05            [24] 1359 	push	ar5
      00044C C0 04            [24] 1360 	push	ar4
      00044E C0 03            [24] 1361 	push	ar3
      000450 C0 02            [24] 1362 	push	ar2
      000452 12r00r00         [24] 1363 	lcall	__mulint
      000455 12r00rD9         [24] 1364 	lcall	_alloc_new_buffer
      000458 A9 82            [24] 1365 	mov	r1,dpl
      00045A AE 83            [24] 1366 	mov	r6,dph
      00045C D0 02            [24] 1367 	pop	ar2
      00045E D0 03            [24] 1368 	pop	ar3
      000460 D0 04            [24] 1369 	pop	ar4
      000462 D0 05            [24] 1370 	pop	ar5
                                   1371 ;	src/main.c:182: if (buffer_4 == NULL)
      000464 E9               [12] 1372 	mov	a,r1
      000465 4E               [12] 1373 	orl	a,r6
      000466 70 3B            [24] 1374 	jnz	00116$
                                   1375 ;	src/main.c:184: free_all_buffers();
      000468 C0 05            [24] 1376 	push	ar5
      00046A C0 04            [24] 1377 	push	ar4
      00046C C0 03            [24] 1378 	push	ar3
      00046E C0 02            [24] 1379 	push	ar2
      000470 12r0Br76         [24] 1380 	lcall	_free_all_buffers
                                   1381 ;	src/main.c:185: printf(BUFFER_SZ_TOO_BIG);
      000473 74r4F            [12] 1382 	mov	a,#___str_2
      000475 C0 E0            [24] 1383 	push	acc
      000477 74s00            [12] 1384 	mov	a,#(___str_2 >> 8)
      000479 C0 E0            [24] 1385 	push	acc
      00047B 74 80            [12] 1386 	mov	a,#0x80
      00047D C0 E0            [24] 1387 	push	acc
      00047F 12r00r00         [24] 1388 	lcall	_printf
      000482 15 81            [12] 1389 	dec	sp
      000484 15 81            [12] 1390 	dec	sp
      000486 15 81            [12] 1391 	dec	sp
      000488 D0 02            [24] 1392 	pop	ar2
      00048A D0 03            [24] 1393 	pop	ar3
      00048C D0 04            [24] 1394 	pop	ar4
      00048E D0 05            [24] 1395 	pop	ar5
                                   1396 ;	src/main.c:186: max_user_input = user_buffer_size-1;
      000490 EA               [12] 1397 	mov	a,r2
      000491 24 FF            [12] 1398 	add	a,#0xff
      000493 FE               [12] 1399 	mov	r6,a
      000494 EB               [12] 1400 	mov	a,r3
      000495 34 FF            [12] 1401 	addc	a,#0xff
      000497 FF               [12] 1402 	mov	r7,a
      000498 90r00r1C         [24] 1403 	mov	dptr,#_initialize_buffers_max_user_input_65538_91
      00049B EE               [12] 1404 	mov	a,r6
      00049C F0               [24] 1405 	movx	@dptr,a
      00049D EF               [12] 1406 	mov	a,r7
      00049E A3               [24] 1407 	inc	dptr
      00049F F0               [24] 1408 	movx	@dptr,a
                                   1409 ;	src/main.c:187: continue;
      0004A0 02r01rE1         [24] 1410 	ljmp	00121$
      0004A3                       1411 00116$:
                                   1412 ;	src/main.c:190: buffer_t *buffer_5 = alloc_new_buffer((size_t) 2 * user_buffer_size);
      0004A3 EA               [12] 1413 	mov	a,r2
      0004A4 2A               [12] 1414 	add	a,r2
      0004A5 FE               [12] 1415 	mov	r6,a
      0004A6 EB               [12] 1416 	mov	a,r3
      0004A7 33               [12] 1417 	rlc	a
      0004A8 FF               [12] 1418 	mov	r7,a
      0004A9 8E 82            [24] 1419 	mov	dpl,r6
      0004AB 8F 83            [24] 1420 	mov	dph,r7
      0004AD C0 05            [24] 1421 	push	ar5
      0004AF C0 04            [24] 1422 	push	ar4
      0004B1 C0 03            [24] 1423 	push	ar3
      0004B3 C0 02            [24] 1424 	push	ar2
      0004B5 12r00rD9         [24] 1425 	lcall	_alloc_new_buffer
      0004B8 A9 82            [24] 1426 	mov	r1,dpl
      0004BA AE 83            [24] 1427 	mov	r6,dph
      0004BC D0 02            [24] 1428 	pop	ar2
      0004BE D0 03            [24] 1429 	pop	ar3
      0004C0 D0 04            [24] 1430 	pop	ar4
      0004C2 D0 05            [24] 1431 	pop	ar5
                                   1432 ;	src/main.c:191: if (buffer_5 == NULL)
      0004C4 E9               [12] 1433 	mov	a,r1
      0004C5 4E               [12] 1434 	orl	a,r6
      0004C6 70 3B            [24] 1435 	jnz	00122$
                                   1436 ;	src/main.c:193: free_all_buffers();
      0004C8 C0 05            [24] 1437 	push	ar5
      0004CA C0 04            [24] 1438 	push	ar4
      0004CC C0 03            [24] 1439 	push	ar3
      0004CE C0 02            [24] 1440 	push	ar2
      0004D0 12r0Br76         [24] 1441 	lcall	_free_all_buffers
                                   1442 ;	src/main.c:194: printf(BUFFER_SZ_TOO_BIG);
      0004D3 74r4F            [12] 1443 	mov	a,#___str_2
      0004D5 C0 E0            [24] 1444 	push	acc
      0004D7 74s00            [12] 1445 	mov	a,#(___str_2 >> 8)
      0004D9 C0 E0            [24] 1446 	push	acc
      0004DB 74 80            [12] 1447 	mov	a,#0x80
      0004DD C0 E0            [24] 1448 	push	acc
      0004DF 12r00r00         [24] 1449 	lcall	_printf
      0004E2 15 81            [12] 1450 	dec	sp
      0004E4 15 81            [12] 1451 	dec	sp
      0004E6 15 81            [12] 1452 	dec	sp
      0004E8 D0 02            [24] 1453 	pop	ar2
      0004EA D0 03            [24] 1454 	pop	ar3
      0004EC D0 04            [24] 1455 	pop	ar4
      0004EE D0 05            [24] 1456 	pop	ar5
                                   1457 ;	src/main.c:195: max_user_input = user_buffer_size-1;
      0004F0 EA               [12] 1458 	mov	a,r2
      0004F1 24 FF            [12] 1459 	add	a,#0xff
      0004F3 FE               [12] 1460 	mov	r6,a
      0004F4 EB               [12] 1461 	mov	a,r3
      0004F5 34 FF            [12] 1462 	addc	a,#0xff
      0004F7 FF               [12] 1463 	mov	r7,a
      0004F8 90r00r1C         [24] 1464 	mov	dptr,#_initialize_buffers_max_user_input_65538_91
      0004FB EE               [12] 1465 	mov	a,r6
      0004FC F0               [24] 1466 	movx	@dptr,a
      0004FD EF               [12] 1467 	mov	a,r7
      0004FE A3               [24] 1468 	inc	dptr
      0004FF F0               [24] 1469 	movx	@dptr,a
                                   1470 ;	src/main.c:196: continue;
      000500 02r01rE1         [24] 1471 	ljmp	00121$
                                   1472 ;	src/main.c:199: get_the_buffer_sz:;
      000503                       1473 00122$:
                                   1474 ;	src/main.c:202: printf("\r\nstudent_number: %d", student_number);
      000503 C0 03            [24] 1475 	push	ar3
      000505 C0 02            [24] 1476 	push	ar2
      000507 C0*04            [24] 1477 	push	_initialize_buffers_sloc2_1_0
      000509 C0*05            [24] 1478 	push	(_initialize_buffers_sloc2_1_0 + 1)
      00050B 74r88            [12] 1479 	mov	a,#___str_3
      00050D C0 E0            [24] 1480 	push	acc
      00050F 74s00            [12] 1481 	mov	a,#(___str_3 >> 8)
      000511 C0 E0            [24] 1482 	push	acc
      000513 74 80            [12] 1483 	mov	a,#0x80
      000515 C0 E0            [24] 1484 	push	acc
      000517 12r00r00         [24] 1485 	lcall	_printf
      00051A E5 81            [12] 1486 	mov	a,sp
      00051C 24 FB            [12] 1487 	add	a,#0xfb
      00051E F5 81            [12] 1488 	mov	sp,a
      000520 D0 02            [24] 1489 	pop	ar2
      000522 D0 03            [24] 1490 	pop	ar3
                                   1491 ;	src/main.c:203: printf("\r\nuser_buffer_size: %zu", user_buffer_size);
      000524 C0 02            [24] 1492 	push	ar2
      000526 C0 03            [24] 1493 	push	ar3
      000528 74r9D            [12] 1494 	mov	a,#___str_4
      00052A C0 E0            [24] 1495 	push	acc
      00052C 74s00            [12] 1496 	mov	a,#(___str_4 >> 8)
      00052E C0 E0            [24] 1497 	push	acc
      000530 74 80            [12] 1498 	mov	a,#0x80
      000532 C0 E0            [24] 1499 	push	acc
      000534 12r00r00         [24] 1500 	lcall	_printf
      000537 E5 81            [12] 1501 	mov	a,sp
      000539 24 FB            [12] 1502 	add	a,#0xfb
      00053B F5 81            [12] 1503 	mov	sp,a
                                   1504 ;	src/main.c:205: size_t total_heap_sz = 0;
      00053D 90r00r1E         [24] 1505 	mov	dptr,#_initialize_buffers_total_heap_sz_65539_105
      000540 E4               [12] 1506 	clr	a
      000541 F0               [24] 1507 	movx	@dptr,a
      000542 A3               [24] 1508 	inc	dptr
      000543 F0               [24] 1509 	movx	@dptr,a
                                   1510 ;	src/main.c:207: for(i = 0; i < BUFFER_ALWAYS_HELD_COUNT; i++)
      000544 7E 00            [12] 1511 	mov	r6,#0x00
      000546 7F 00            [12] 1512 	mov	r7,#0x00
      000548                       1513 00137$:
                                   1514 ;	src/main.c:209: printf("\r\n static_buffers[%d].buffer %p", i, static_buffers[i].buffer);
      000548 90r00r00         [24] 1515 	mov	dptr,#__mulint_PARM_2
      00054B EE               [12] 1516 	mov	a,r6
      00054C F0               [24] 1517 	movx	@dptr,a
      00054D EF               [12] 1518 	mov	a,r7
      00054E A3               [24] 1519 	inc	dptr
      00054F F0               [24] 1520 	movx	@dptr,a
      000550 90 00 0B         [24] 1521 	mov	dptr,#0x000b
      000553 C0 07            [24] 1522 	push	ar7
      000555 C0 06            [24] 1523 	push	ar6
      000557 12r00r00         [24] 1524 	lcall	__mulint
      00055A AC 82            [24] 1525 	mov	r4,dpl
      00055C AD 83            [24] 1526 	mov	r5,dph
      00055E D0 06            [24] 1527 	pop	ar6
      000560 D0 07            [24] 1528 	pop	ar7
      000562 EC               [12] 1529 	mov	a,r4
      000563 24r00            [12] 1530 	add	a,#_static_buffers
      000565 F5*06            [12] 1531 	mov	_initialize_buffers_sloc3_1_0,a
      000567 ED               [12] 1532 	mov	a,r5
      000568 34s00            [12] 1533 	addc	a,#(_static_buffers >> 8)
      00056A F5*07            [12] 1534 	mov	(_initialize_buffers_sloc3_1_0 + 1),a
      00056C 85*06 82         [24] 1535 	mov	dpl,_initialize_buffers_sloc3_1_0
      00056F 85*07 83         [24] 1536 	mov	dph,(_initialize_buffers_sloc3_1_0 + 1)
      000572 E0               [24] 1537 	movx	a,@dptr
      000573 F8               [12] 1538 	mov	r0,a
      000574 A3               [24] 1539 	inc	dptr
      000575 E0               [24] 1540 	movx	a,@dptr
      000576 F9               [12] 1541 	mov	r1,a
      000577 7B 00            [12] 1542 	mov	r3,#0x00
      000579 C0 07            [24] 1543 	push	ar7
      00057B C0 06            [24] 1544 	push	ar6
      00057D C0 05            [24] 1545 	push	ar5
      00057F C0 04            [24] 1546 	push	ar4
      000581 C0 00            [24] 1547 	push	ar0
      000583 C0 01            [24] 1548 	push	ar1
      000585 C0 03            [24] 1549 	push	ar3
      000587 C0 06            [24] 1550 	push	ar6
      000589 C0 07            [24] 1551 	push	ar7
      00058B 74r2F            [12] 1552 	mov	a,#___str_1
      00058D C0 E0            [24] 1553 	push	acc
      00058F 74s00            [12] 1554 	mov	a,#(___str_1 >> 8)
      000591 C0 E0            [24] 1555 	push	acc
      000593 74 80            [12] 1556 	mov	a,#0x80
      000595 C0 E0            [24] 1557 	push	acc
      000597 12r00r00         [24] 1558 	lcall	_printf
      00059A E5 81            [12] 1559 	mov	a,sp
      00059C 24 F8            [12] 1560 	add	a,#0xf8
      00059E F5 81            [12] 1561 	mov	sp,a
      0005A0 D0 04            [24] 1562 	pop	ar4
      0005A2 D0 05            [24] 1563 	pop	ar5
      0005A4 D0 06            [24] 1564 	pop	ar6
      0005A6 D0 07            [24] 1565 	pop	ar7
                                   1566 ;	src/main.c:210: if(static_buffers[i].buffer != NULL) {
      0005A8 85*06 82         [24] 1567 	mov	dpl,_initialize_buffers_sloc3_1_0
      0005AB 85*07 83         [24] 1568 	mov	dph,(_initialize_buffers_sloc3_1_0 + 1)
      0005AE E0               [24] 1569 	movx	a,@dptr
      0005AF FA               [12] 1570 	mov	r2,a
      0005B0 A3               [24] 1571 	inc	dptr
      0005B1 E0               [24] 1572 	movx	a,@dptr
      0005B2 FB               [12] 1573 	mov	r3,a
      0005B3 4A               [12] 1574 	orl	a,r2
      0005B4 70 03            [24] 1575 	jnz	00225$
      0005B6 02r06r49         [24] 1576 	ljmp	00138$
      0005B9                       1577 00225$:
                                   1578 ;	src/main.c:211: printf("\r\nbuffer_%d starts @ %p, ends @%p, size %zu", i, static_buffers[i].buffer, static_buffers[i].buffer + static_buffers[i].size, static_buffers[i].size);
      0005B9 EC               [12] 1579 	mov	a,r4
      0005BA 24r00            [12] 1580 	add	a,#_static_buffers
      0005BC FC               [12] 1581 	mov	r4,a
      0005BD ED               [12] 1582 	mov	a,r5
      0005BE 34s00            [12] 1583 	addc	a,#(_static_buffers >> 8)
      0005C0 FD               [12] 1584 	mov	r5,a
      0005C1 74 04            [12] 1585 	mov	a,#0x04
      0005C3 2C               [12] 1586 	add	a,r4
      0005C4 FA               [12] 1587 	mov	r2,a
      0005C5 E4               [12] 1588 	clr	a
      0005C6 3D               [12] 1589 	addc	a,r5
      0005C7 FB               [12] 1590 	mov	r3,a
      0005C8 8A 82            [24] 1591 	mov	dpl,r2
      0005CA 8B 83            [24] 1592 	mov	dph,r3
      0005CC E0               [24] 1593 	movx	a,@dptr
      0005CD F5*04            [12] 1594 	mov	_initialize_buffers_sloc2_1_0,a
      0005CF A3               [24] 1595 	inc	dptr
      0005D0 E0               [24] 1596 	movx	a,@dptr
      0005D1 F5*05            [12] 1597 	mov	(_initialize_buffers_sloc2_1_0 + 1),a
      0005D3 8C 82            [24] 1598 	mov	dpl,r4
      0005D5 8D 83            [24] 1599 	mov	dph,r5
      0005D7 E0               [24] 1600 	movx	a,@dptr
      0005D8 F5*06            [12] 1601 	mov	_initialize_buffers_sloc3_1_0,a
      0005DA A3               [24] 1602 	inc	dptr
      0005DB E0               [24] 1603 	movx	a,@dptr
      0005DC F5*07            [12] 1604 	mov	(_initialize_buffers_sloc3_1_0 + 1),a
      0005DE E5*04            [12] 1605 	mov	a,_initialize_buffers_sloc2_1_0
      0005E0 25*06            [12] 1606 	add	a,_initialize_buffers_sloc3_1_0
      0005E2 FC               [12] 1607 	mov	r4,a
      0005E3 E5*05            [12] 1608 	mov	a,(_initialize_buffers_sloc2_1_0 + 1)
      0005E5 35*07            [12] 1609 	addc	a,(_initialize_buffers_sloc3_1_0 + 1)
      0005E7 FD               [12] 1610 	mov	r5,a
      0005E8 8C*09            [24] 1611 	mov	_initialize_buffers_sloc4_1_0,r4
      0005EA 8D*0A            [24] 1612 	mov	(_initialize_buffers_sloc4_1_0 + 1),r5
      0005EC 75*0B 00         [24] 1613 	mov	(_initialize_buffers_sloc4_1_0 + 2),#0x00
      0005EF A8*06            [24] 1614 	mov	r0,_initialize_buffers_sloc3_1_0
      0005F1 AD*07            [24] 1615 	mov	r5,(_initialize_buffers_sloc3_1_0 + 1)
      0005F3 7C 00            [12] 1616 	mov	r4,#0x00
      0005F5 C0 07            [24] 1617 	push	ar7
      0005F7 C0 06            [24] 1618 	push	ar6
      0005F9 C0 03            [24] 1619 	push	ar3
      0005FB C0 02            [24] 1620 	push	ar2
      0005FD C0*04            [24] 1621 	push	_initialize_buffers_sloc2_1_0
      0005FF C0*05            [24] 1622 	push	(_initialize_buffers_sloc2_1_0 + 1)
      000601 C0*09            [24] 1623 	push	_initialize_buffers_sloc4_1_0
      000603 C0*0A            [24] 1624 	push	(_initialize_buffers_sloc4_1_0 + 1)
      000605 C0*0B            [24] 1625 	push	(_initialize_buffers_sloc4_1_0 + 2)
      000607 C0 00            [24] 1626 	push	ar0
      000609 C0 05            [24] 1627 	push	ar5
      00060B C0 04            [24] 1628 	push	ar4
      00060D C0 06            [24] 1629 	push	ar6
      00060F C0 07            [24] 1630 	push	ar7
      000611 74rB5            [12] 1631 	mov	a,#___str_5
      000613 C0 E0            [24] 1632 	push	acc
      000615 74s00            [12] 1633 	mov	a,#(___str_5 >> 8)
      000617 C0 E0            [24] 1634 	push	acc
      000619 74 80            [12] 1635 	mov	a,#0x80
      00061B C0 E0            [24] 1636 	push	acc
      00061D 12r00r00         [24] 1637 	lcall	_printf
      000620 E5 81            [12] 1638 	mov	a,sp
      000622 24 F3            [12] 1639 	add	a,#0xf3
      000624 F5 81            [12] 1640 	mov	sp,a
      000626 D0 02            [24] 1641 	pop	ar2
      000628 D0 03            [24] 1642 	pop	ar3
      00062A D0 06            [24] 1643 	pop	ar6
      00062C D0 07            [24] 1644 	pop	ar7
                                   1645 ;	src/main.c:212: total_heap_sz += static_buffers[i].size; 
      00062E 8A 82            [24] 1646 	mov	dpl,r2
      000630 8B 83            [24] 1647 	mov	dph,r3
      000632 E0               [24] 1648 	movx	a,@dptr
      000633 FA               [12] 1649 	mov	r2,a
      000634 A3               [24] 1650 	inc	dptr
      000635 E0               [24] 1651 	movx	a,@dptr
      000636 FB               [12] 1652 	mov	r3,a
      000637 90r00r1E         [24] 1653 	mov	dptr,#_initialize_buffers_total_heap_sz_65539_105
      00063A E0               [24] 1654 	movx	a,@dptr
      00063B FC               [12] 1655 	mov	r4,a
      00063C A3               [24] 1656 	inc	dptr
      00063D E0               [24] 1657 	movx	a,@dptr
      00063E FD               [12] 1658 	mov	r5,a
      00063F 90r00r1E         [24] 1659 	mov	dptr,#_initialize_buffers_total_heap_sz_65539_105
      000642 EA               [12] 1660 	mov	a,r2
      000643 2C               [12] 1661 	add	a,r4
      000644 F0               [24] 1662 	movx	@dptr,a
      000645 EB               [12] 1663 	mov	a,r3
      000646 3D               [12] 1664 	addc	a,r5
      000647 A3               [24] 1665 	inc	dptr
      000648 F0               [24] 1666 	movx	@dptr,a
      000649                       1667 00138$:
                                   1668 ;	src/main.c:207: for(i = 0; i < BUFFER_ALWAYS_HELD_COUNT; i++)
      000649 0E               [12] 1669 	inc	r6
      00064A BE 00 01         [24] 1670 	cjne	r6,#0x00,00226$
      00064D 0F               [12] 1671 	inc	r7
      00064E                       1672 00226$:
      00064E C3               [12] 1673 	clr	c
      00064F EE               [12] 1674 	mov	a,r6
      000650 94 02            [12] 1675 	subb	a,#0x02
      000652 EF               [12] 1676 	mov	a,r7
      000653 64 80            [12] 1677 	xrl	a,#0x80
      000655 94 80            [12] 1678 	subb	a,#0x80
      000657 50 03            [24] 1679 	jnc	00227$
      000659 02r05r48         [24] 1680 	ljmp	00137$
      00065C                       1681 00227$:
                                   1682 ;	src/main.c:216: buffer_t *curr = dynamic_buffers_list.head;
      00065C 90r00r00         [24] 1683 	mov	dptr,#_dynamic_buffers_list
      00065F E0               [24] 1684 	movx	a,@dptr
      000660 FB               [12] 1685 	mov	r3,a
      000661 A3               [24] 1686 	inc	dptr
      000662 E0               [24] 1687 	movx	a,@dptr
      000663 FC               [12] 1688 	mov	r4,a
      000664 A3               [24] 1689 	inc	dptr
      000665 E0               [24] 1690 	movx	a,@dptr
      000666 FD               [12] 1691 	mov	r5,a
      000667 90r00r20         [24] 1692 	mov	dptr,#_initialize_buffers_curr_65540_109
      00066A EB               [12] 1693 	mov	a,r3
      00066B F0               [24] 1694 	movx	@dptr,a
      00066C EC               [12] 1695 	mov	a,r4
      00066D A3               [24] 1696 	inc	dptr
      00066E F0               [24] 1697 	movx	@dptr,a
      00066F ED               [12] 1698 	mov	a,r5
      000670 A3               [24] 1699 	inc	dptr
      000671 F0               [24] 1700 	movx	@dptr,a
                                   1701 ;	src/main.c:218: while(curr != NULL) {
      000672 8E*09            [24] 1702 	mov	_initialize_buffers_sloc4_1_0,r6
      000674 8F*0A            [24] 1703 	mov	(_initialize_buffers_sloc4_1_0 + 1),r7
      000676                       1704 00128$:
      000676 90r00r20         [24] 1705 	mov	dptr,#_initialize_buffers_curr_65540_109
      000679 E0               [24] 1706 	movx	a,@dptr
      00067A FB               [12] 1707 	mov	r3,a
      00067B A3               [24] 1708 	inc	dptr
      00067C E0               [24] 1709 	movx	a,@dptr
      00067D FC               [12] 1710 	mov	r4,a
      00067E A3               [24] 1711 	inc	dptr
      00067F E0               [24] 1712 	movx	a,@dptr
      000680 FD               [12] 1713 	mov	r5,a
      000681 EB               [12] 1714 	mov	a,r3
      000682 4C               [12] 1715 	orl	a,r4
      000683 70 03            [24] 1716 	jnz	00228$
      000685 02r07r58         [24] 1717 	ljmp	00130$
      000688                       1718 00228$:
                                   1719 ;	src/main.c:219: if(curr->buffer != NULL) {
      000688 8B 82            [24] 1720 	mov	dpl,r3
      00068A 8C 83            [24] 1721 	mov	dph,r4
      00068C 8D F0            [24] 1722 	mov	b,r5
      00068E 12r00r00         [24] 1723 	lcall	__gptrget
      000691 F9               [12] 1724 	mov	r1,a
      000692 A3               [24] 1725 	inc	dptr
      000693 12r00r00         [24] 1726 	lcall	__gptrget
      000696 FA               [12] 1727 	mov	r2,a
      000697 49               [12] 1728 	orl	a,r1
      000698 70 03            [24] 1729 	jnz	00229$
      00069A 02r07r1C         [24] 1730 	ljmp	00127$
      00069D                       1731 00229$:
                                   1732 ;	src/main.c:220: printf("\r\nbuffer_%d starts @ %p, ends @%p, size %zu", i, curr->buffer, curr->buffer + curr->size, curr->size);
      00069D 74 04            [12] 1733 	mov	a,#0x04
      00069F 2B               [12] 1734 	add	a,r3
      0006A0 FB               [12] 1735 	mov	r3,a
      0006A1 E4               [12] 1736 	clr	a
      0006A2 3C               [12] 1737 	addc	a,r4
      0006A3 FC               [12] 1738 	mov	r4,a
      0006A4 8B 82            [24] 1739 	mov	dpl,r3
      0006A6 8C 83            [24] 1740 	mov	dph,r4
      0006A8 8D F0            [24] 1741 	mov	b,r5
      0006AA 12r00r00         [24] 1742 	lcall	__gptrget
      0006AD F5*06            [12] 1743 	mov	_initialize_buffers_sloc3_1_0,a
      0006AF A3               [24] 1744 	inc	dptr
      0006B0 12r00r00         [24] 1745 	lcall	__gptrget
      0006B3 F5*07            [12] 1746 	mov	(_initialize_buffers_sloc3_1_0 + 1),a
      0006B5 E5*06            [12] 1747 	mov	a,_initialize_buffers_sloc3_1_0
      0006B7 29               [12] 1748 	add	a,r1
      0006B8 FE               [12] 1749 	mov	r6,a
      0006B9 E5*07            [12] 1750 	mov	a,(_initialize_buffers_sloc3_1_0 + 1)
      0006BB 3A               [12] 1751 	addc	a,r2
      0006BC FF               [12] 1752 	mov	r7,a
      0006BD 8E*0C            [24] 1753 	mov	_initialize_buffers_sloc5_1_0,r6
      0006BF 8F*0D            [24] 1754 	mov	(_initialize_buffers_sloc5_1_0 + 1),r7
      0006C1 75*0E 00         [24] 1755 	mov	(_initialize_buffers_sloc5_1_0 + 2),#0x00
      0006C4 7F 00            [12] 1756 	mov	r7,#0x00
      0006C6 C0 05            [24] 1757 	push	ar5
      0006C8 C0 04            [24] 1758 	push	ar4
      0006CA C0 03            [24] 1759 	push	ar3
      0006CC C0*06            [24] 1760 	push	_initialize_buffers_sloc3_1_0
      0006CE C0*07            [24] 1761 	push	(_initialize_buffers_sloc3_1_0 + 1)
      0006D0 C0*0C            [24] 1762 	push	_initialize_buffers_sloc5_1_0
      0006D2 C0*0D            [24] 1763 	push	(_initialize_buffers_sloc5_1_0 + 1)
      0006D4 C0*0E            [24] 1764 	push	(_initialize_buffers_sloc5_1_0 + 2)
      0006D6 C0 01            [24] 1765 	push	ar1
      0006D8 C0 02            [24] 1766 	push	ar2
      0006DA C0 07            [24] 1767 	push	ar7
      0006DC C0*09            [24] 1768 	push	_initialize_buffers_sloc4_1_0
      0006DE C0*0A            [24] 1769 	push	(_initialize_buffers_sloc4_1_0 + 1)
      0006E0 74rB5            [12] 1770 	mov	a,#___str_5
      0006E2 C0 E0            [24] 1771 	push	acc
      0006E4 74s00            [12] 1772 	mov	a,#(___str_5 >> 8)
      0006E6 C0 E0            [24] 1773 	push	acc
      0006E8 74 80            [12] 1774 	mov	a,#0x80
      0006EA C0 E0            [24] 1775 	push	acc
      0006EC 12r00r00         [24] 1776 	lcall	_printf
      0006EF E5 81            [12] 1777 	mov	a,sp
      0006F1 24 F3            [12] 1778 	add	a,#0xf3
      0006F3 F5 81            [12] 1779 	mov	sp,a
      0006F5 D0 03            [24] 1780 	pop	ar3
      0006F7 D0 04            [24] 1781 	pop	ar4
      0006F9 D0 05            [24] 1782 	pop	ar5
                                   1783 ;	src/main.c:221: total_heap_sz += curr->size; 
      0006FB 8B 82            [24] 1784 	mov	dpl,r3
      0006FD 8C 83            [24] 1785 	mov	dph,r4
      0006FF 8D F0            [24] 1786 	mov	b,r5
      000701 12r00r00         [24] 1787 	lcall	__gptrget
      000704 FB               [12] 1788 	mov	r3,a
      000705 A3               [24] 1789 	inc	dptr
      000706 12r00r00         [24] 1790 	lcall	__gptrget
      000709 FC               [12] 1791 	mov	r4,a
      00070A 90r00r1E         [24] 1792 	mov	dptr,#_initialize_buffers_total_heap_sz_65539_105
      00070D E0               [24] 1793 	movx	a,@dptr
      00070E FE               [12] 1794 	mov	r6,a
      00070F A3               [24] 1795 	inc	dptr
      000710 E0               [24] 1796 	movx	a,@dptr
      000711 FF               [12] 1797 	mov	r7,a
      000712 90r00r1E         [24] 1798 	mov	dptr,#_initialize_buffers_total_heap_sz_65539_105
      000715 EB               [12] 1799 	mov	a,r3
      000716 2E               [12] 1800 	add	a,r6
      000717 F0               [24] 1801 	movx	@dptr,a
      000718 EC               [12] 1802 	mov	a,r4
      000719 3F               [12] 1803 	addc	a,r7
      00071A A3               [24] 1804 	inc	dptr
      00071B F0               [24] 1805 	movx	@dptr,a
      00071C                       1806 00127$:
                                   1807 ;	src/main.c:223: i++; 
      00071C 05*09            [12] 1808 	inc	_initialize_buffers_sloc4_1_0
      00071E E4               [12] 1809 	clr	a
      00071F B5*09 02         [24] 1810 	cjne	a,_initialize_buffers_sloc4_1_0,00230$
      000722 05*0A            [12] 1811 	inc	(_initialize_buffers_sloc4_1_0 + 1)
      000724                       1812 00230$:
                                   1813 ;	src/main.c:224: curr = curr->next;
      000724 90r00r20         [24] 1814 	mov	dptr,#_initialize_buffers_curr_65540_109
      000727 E0               [24] 1815 	movx	a,@dptr
      000728 FD               [12] 1816 	mov	r5,a
      000729 A3               [24] 1817 	inc	dptr
      00072A E0               [24] 1818 	movx	a,@dptr
      00072B FE               [12] 1819 	mov	r6,a
      00072C A3               [24] 1820 	inc	dptr
      00072D E0               [24] 1821 	movx	a,@dptr
      00072E FF               [12] 1822 	mov	r7,a
      00072F 74 08            [12] 1823 	mov	a,#0x08
      000731 2D               [12] 1824 	add	a,r5
      000732 FD               [12] 1825 	mov	r5,a
      000733 E4               [12] 1826 	clr	a
      000734 3E               [12] 1827 	addc	a,r6
      000735 FE               [12] 1828 	mov	r6,a
      000736 8D 82            [24] 1829 	mov	dpl,r5
      000738 8E 83            [24] 1830 	mov	dph,r6
      00073A 8F F0            [24] 1831 	mov	b,r7
      00073C 12r00r00         [24] 1832 	lcall	__gptrget
      00073F FD               [12] 1833 	mov	r5,a
      000740 A3               [24] 1834 	inc	dptr
      000741 12r00r00         [24] 1835 	lcall	__gptrget
      000744 FE               [12] 1836 	mov	r6,a
      000745 A3               [24] 1837 	inc	dptr
      000746 12r00r00         [24] 1838 	lcall	__gptrget
      000749 FF               [12] 1839 	mov	r7,a
      00074A 90r00r20         [24] 1840 	mov	dptr,#_initialize_buffers_curr_65540_109
      00074D ED               [12] 1841 	mov	a,r5
      00074E F0               [24] 1842 	movx	@dptr,a
      00074F EE               [12] 1843 	mov	a,r6
      000750 A3               [24] 1844 	inc	dptr
      000751 F0               [24] 1845 	movx	@dptr,a
      000752 EF               [12] 1846 	mov	a,r7
      000753 A3               [24] 1847 	inc	dptr
      000754 F0               [24] 1848 	movx	@dptr,a
      000755 02r06r76         [24] 1849 	ljmp	00128$
      000758                       1850 00130$:
                                   1851 ;	src/main.c:226: printf("\r\nHeap starts @ %p, ends @ %p, size: %zu", __sdcc_heap, __sdcc_heap + HEAP_SIZE, total_heap_sz);
      000758 90r00r1E         [24] 1852 	mov	dptr,#_initialize_buffers_total_heap_sz_65539_105
      00075B E0               [24] 1853 	movx	a,@dptr
      00075C C0 E0            [24] 1854 	push	acc
      00075E A3               [24] 1855 	inc	dptr
      00075F E0               [24] 1856 	movx	a,@dptr
      000760 C0 E0            [24] 1857 	push	acc
      000762 74r00            [12] 1858 	mov	a,#(___sdcc_heap + 0x1000)
      000764 C0 E0            [24] 1859 	push	acc
      000766 74s10            [12] 1860 	mov	a,#((___sdcc_heap + 0x1000) >> 8)
      000768 C0 E0            [24] 1861 	push	acc
      00076A E4               [12] 1862 	clr	a
      00076B C0 E0            [24] 1863 	push	acc
      00076D 74r00            [12] 1864 	mov	a,#___sdcc_heap
      00076F C0 E0            [24] 1865 	push	acc
      000771 74s00            [12] 1866 	mov	a,#(___sdcc_heap >> 8)
      000773 C0 E0            [24] 1867 	push	acc
      000775 E4               [12] 1868 	clr	a
      000776 C0 E0            [24] 1869 	push	acc
      000778 74rE1            [12] 1870 	mov	a,#___str_6
      00077A C0 E0            [24] 1871 	push	acc
      00077C 74s00            [12] 1872 	mov	a,#(___str_6 >> 8)
      00077E C0 E0            [24] 1873 	push	acc
      000780 74 80            [12] 1874 	mov	a,#0x80
      000782 C0 E0            [24] 1875 	push	acc
      000784 12r00r00         [24] 1876 	lcall	_printf
      000787 E5 81            [12] 1877 	mov	a,sp
      000789 24 F5            [12] 1878 	add	a,#0xf5
      00078B F5 81            [12] 1879 	mov	sp,a
                                   1880 ;	src/main.c:227: }
      00078D 22               [24] 1881 	ret
                                   1882 ;------------------------------------------------------------
                                   1883 ;Allocation info for local variables in function 'store_in_buffer'
                                   1884 ;------------------------------------------------------------
                                   1885 ;sloc0                     Allocated with name '_store_in_buffer_sloc0_1_0'
                                   1886 ;sloc1                     Allocated with name '_store_in_buffer_sloc1_1_0'
                                   1887 ;c                         Allocated with name '_store_in_buffer_PARM_2'
                                   1888 ;buffer                    Allocated with name '_store_in_buffer_buffer_65536_112'
                                   1889 ;------------------------------------------------------------
                                   1890 ;	src/main.c:229: void store_in_buffer(buffer_t *buffer, char c)
                                   1891 ;	-----------------------------------------
                                   1892 ;	 function store_in_buffer
                                   1893 ;	-----------------------------------------
      00078E                       1894 _store_in_buffer:
      00078E AF F0            [24] 1895 	mov	r7,b
      000790 AE 83            [24] 1896 	mov	r6,dph
      000792 E5 82            [12] 1897 	mov	a,dpl
      000794 90r00r24         [24] 1898 	mov	dptr,#_store_in_buffer_buffer_65536_112
      000797 F0               [24] 1899 	movx	@dptr,a
      000798 EE               [12] 1900 	mov	a,r6
      000799 A3               [24] 1901 	inc	dptr
      00079A F0               [24] 1902 	movx	@dptr,a
      00079B EF               [12] 1903 	mov	a,r7
      00079C A3               [24] 1904 	inc	dptr
      00079D F0               [24] 1905 	movx	@dptr,a
                                   1906 ;	src/main.c:231: if (buffer->curr_available_char < buffer->size)
      00079E 90r00r24         [24] 1907 	mov	dptr,#_store_in_buffer_buffer_65536_112
      0007A1 E0               [24] 1908 	movx	a,@dptr
      0007A2 FD               [12] 1909 	mov	r5,a
      0007A3 A3               [24] 1910 	inc	dptr
      0007A4 E0               [24] 1911 	movx	a,@dptr
      0007A5 FE               [12] 1912 	mov	r6,a
      0007A6 A3               [24] 1913 	inc	dptr
      0007A7 E0               [24] 1914 	movx	a,@dptr
      0007A8 FF               [12] 1915 	mov	r7,a
      0007A9 74 06            [12] 1916 	mov	a,#0x06
      0007AB 2D               [12] 1917 	add	a,r5
      0007AC F5*11            [12] 1918 	mov	_store_in_buffer_sloc1_1_0,a
      0007AE E4               [12] 1919 	clr	a
      0007AF 3E               [12] 1920 	addc	a,r6
      0007B0 F5*12            [12] 1921 	mov	(_store_in_buffer_sloc1_1_0 + 1),a
      0007B2 8F*13            [24] 1922 	mov	(_store_in_buffer_sloc1_1_0 + 2),r7
      0007B4 85*11 82         [24] 1923 	mov	dpl,_store_in_buffer_sloc1_1_0
      0007B7 85*12 83         [24] 1924 	mov	dph,(_store_in_buffer_sloc1_1_0 + 1)
      0007BA 85*13 F0         [24] 1925 	mov	b,(_store_in_buffer_sloc1_1_0 + 2)
      0007BD 12r00r00         [24] 1926 	lcall	__gptrget
      0007C0 F5*0F            [12] 1927 	mov	_store_in_buffer_sloc0_1_0,a
      0007C2 A3               [24] 1928 	inc	dptr
      0007C3 12r00r00         [24] 1929 	lcall	__gptrget
      0007C6 F5*10            [12] 1930 	mov	(_store_in_buffer_sloc0_1_0 + 1),a
      0007C8 74 04            [12] 1931 	mov	a,#0x04
      0007CA 2D               [12] 1932 	add	a,r5
      0007CB F8               [12] 1933 	mov	r0,a
      0007CC E4               [12] 1934 	clr	a
      0007CD 3E               [12] 1935 	addc	a,r6
      0007CE F9               [12] 1936 	mov	r1,a
      0007CF 8F 04            [24] 1937 	mov	ar4,r7
      0007D1 88 82            [24] 1938 	mov	dpl,r0
      0007D3 89 83            [24] 1939 	mov	dph,r1
      0007D5 8C F0            [24] 1940 	mov	b,r4
      0007D7 12r00r00         [24] 1941 	lcall	__gptrget
      0007DA F8               [12] 1942 	mov	r0,a
      0007DB A3               [24] 1943 	inc	dptr
      0007DC 12r00r00         [24] 1944 	lcall	__gptrget
      0007DF F9               [12] 1945 	mov	r1,a
      0007E0 C3               [12] 1946 	clr	c
      0007E1 E5*0F            [12] 1947 	mov	a,_store_in_buffer_sloc0_1_0
      0007E3 98               [12] 1948 	subb	a,r0
      0007E4 E5*10            [12] 1949 	mov	a,(_store_in_buffer_sloc0_1_0 + 1)
      0007E6 99               [12] 1950 	subb	a,r1
      0007E7 40 01            [24] 1951 	jc	00115$
      0007E9 22               [24] 1952 	ret
      0007EA                       1953 00115$:
                                   1954 ;	src/main.c:233: buffer->buffer[buffer->curr_available_char] = c;
      0007EA 8D 82            [24] 1955 	mov	dpl,r5
      0007EC 8E 83            [24] 1956 	mov	dph,r6
      0007EE 8F F0            [24] 1957 	mov	b,r7
      0007F0 12r00r00         [24] 1958 	lcall	__gptrget
      0007F3 FB               [12] 1959 	mov	r3,a
      0007F4 A3               [24] 1960 	inc	dptr
      0007F5 12r00r00         [24] 1961 	lcall	__gptrget
      0007F8 FC               [12] 1962 	mov	r4,a
      0007F9 E5*0F            [12] 1963 	mov	a,_store_in_buffer_sloc0_1_0
      0007FB 2B               [12] 1964 	add	a,r3
      0007FC FB               [12] 1965 	mov	r3,a
      0007FD E5*10            [12] 1966 	mov	a,(_store_in_buffer_sloc0_1_0 + 1)
      0007FF 3C               [12] 1967 	addc	a,r4
      000800 FC               [12] 1968 	mov	r4,a
      000801 90r00r23         [24] 1969 	mov	dptr,#_store_in_buffer_PARM_2
      000804 E0               [24] 1970 	movx	a,@dptr
      000805 FA               [12] 1971 	mov	r2,a
      000806 8B 82            [24] 1972 	mov	dpl,r3
      000808 8C 83            [24] 1973 	mov	dph,r4
      00080A F0               [24] 1974 	movx	@dptr,a
                                   1975 ;	src/main.c:234: buffer->curr_available_char++;
      00080B 85*11 82         [24] 1976 	mov	dpl,_store_in_buffer_sloc1_1_0
      00080E 85*12 83         [24] 1977 	mov	dph,(_store_in_buffer_sloc1_1_0 + 1)
      000811 85*13 F0         [24] 1978 	mov	b,(_store_in_buffer_sloc1_1_0 + 2)
      000814 12r00r00         [24] 1979 	lcall	__gptrget
      000817 FC               [12] 1980 	mov	r4,a
      000818 A3               [24] 1981 	inc	dptr
      000819 12r00r00         [24] 1982 	lcall	__gptrget
      00081C FB               [12] 1983 	mov	r3,a
      00081D 0C               [12] 1984 	inc	r4
      00081E BC 00 01         [24] 1985 	cjne	r4,#0x00,00116$
      000821 0B               [12] 1986 	inc	r3
      000822                       1987 00116$:
      000822 85*11 82         [24] 1988 	mov	dpl,_store_in_buffer_sloc1_1_0
      000825 85*12 83         [24] 1989 	mov	dph,(_store_in_buffer_sloc1_1_0 + 1)
      000828 85*13 F0         [24] 1990 	mov	b,(_store_in_buffer_sloc1_1_0 + 2)
      00082B EC               [12] 1991 	mov	a,r4
      00082C 12r00r00         [24] 1992 	lcall	__gptrput
      00082F A3               [24] 1993 	inc	dptr
      000830 EB               [12] 1994 	mov	a,r3
      000831 12r00r00         [24] 1995 	lcall	__gptrput
                                   1996 ;	src/main.c:235: if (is_alphabet_char(c))
      000834 8A 82            [24] 1997 	mov	dpl,r2
      000836 C0 07            [24] 1998 	push	ar7
      000838 C0 06            [24] 1999 	push	ar6
      00083A C0 05            [24] 2000 	push	ar5
      00083C 12r00r04         [24] 2001 	lcall	_is_alphabet_char
      00083F E5 82            [12] 2002 	mov	a,dpl
      000841 D0 05            [24] 2003 	pop	ar5
      000843 D0 06            [24] 2004 	pop	ar6
      000845 D0 07            [24] 2005 	pop	ar7
      000847 60 2A            [24] 2006 	jz	00105$
                                   2007 ;	src/main.c:237: buffer->alphabet_chars++;
      000849 74 02            [12] 2008 	mov	a,#0x02
      00084B 2D               [12] 2009 	add	a,r5
      00084C FD               [12] 2010 	mov	r5,a
      00084D E4               [12] 2011 	clr	a
      00084E 3E               [12] 2012 	addc	a,r6
      00084F FE               [12] 2013 	mov	r6,a
      000850 8D 82            [24] 2014 	mov	dpl,r5
      000852 8E 83            [24] 2015 	mov	dph,r6
      000854 8F F0            [24] 2016 	mov	b,r7
      000856 12r00r00         [24] 2017 	lcall	__gptrget
      000859 FB               [12] 2018 	mov	r3,a
      00085A A3               [24] 2019 	inc	dptr
      00085B 12r00r00         [24] 2020 	lcall	__gptrget
      00085E FC               [12] 2021 	mov	r4,a
      00085F 0B               [12] 2022 	inc	r3
      000860 BB 00 01         [24] 2023 	cjne	r3,#0x00,00118$
      000863 0C               [12] 2024 	inc	r4
      000864                       2025 00118$:
      000864 8D 82            [24] 2026 	mov	dpl,r5
      000866 8E 83            [24] 2027 	mov	dph,r6
      000868 8F F0            [24] 2028 	mov	b,r7
      00086A EB               [12] 2029 	mov	a,r3
      00086B 12r00r00         [24] 2030 	lcall	__gptrput
      00086E A3               [24] 2031 	inc	dptr
      00086F EC               [12] 2032 	mov	a,r4
                                   2033 ;	src/main.c:240: }
      000870 02r00r00         [24] 2034 	ljmp	__gptrput
      000873                       2035 00105$:
      000873 22               [24] 2036 	ret
                                   2037 ;------------------------------------------------------------
                                   2038 ;Allocation info for local variables in function 'command_header'
                                   2039 ;------------------------------------------------------------
                                   2040 ;command_string            Allocated with name '_command_header_command_string_65536_116'
                                   2041 ;------------------------------------------------------------
                                   2042 ;	src/main.c:242: void command_header(char *command_string)
                                   2043 ;	-----------------------------------------
                                   2044 ;	 function command_header
                                   2045 ;	-----------------------------------------
      000874                       2046 _command_header:
      000874 AF F0            [24] 2047 	mov	r7,b
      000876 AE 83            [24] 2048 	mov	r6,dph
      000878 E5 82            [12] 2049 	mov	a,dpl
      00087A 90r00r27         [24] 2050 	mov	dptr,#_command_header_command_string_65536_116
      00087D F0               [24] 2051 	movx	@dptr,a
      00087E EE               [12] 2052 	mov	a,r6
      00087F A3               [24] 2053 	inc	dptr
      000880 F0               [24] 2054 	movx	@dptr,a
      000881 EF               [12] 2055 	mov	a,r7
      000882 A3               [24] 2056 	inc	dptr
      000883 F0               [24] 2057 	movx	@dptr,a
                                   2058 ;	src/main.c:244: printf("\r\n        %s", command_string);
      000884 90r00r27         [24] 2059 	mov	dptr,#_command_header_command_string_65536_116
      000887 E0               [24] 2060 	movx	a,@dptr
      000888 C0 E0            [24] 2061 	push	acc
      00088A A3               [24] 2062 	inc	dptr
      00088B E0               [24] 2063 	movx	a,@dptr
      00088C C0 E0            [24] 2064 	push	acc
      00088E A3               [24] 2065 	inc	dptr
      00088F E0               [24] 2066 	movx	a,@dptr
      000890 C0 E0            [24] 2067 	push	acc
      000892 74r0A            [12] 2068 	mov	a,#___str_7
      000894 C0 E0            [24] 2069 	push	acc
      000896 74s01            [12] 2070 	mov	a,#(___str_7 >> 8)
      000898 C0 E0            [24] 2071 	push	acc
      00089A 74 80            [12] 2072 	mov	a,#0x80
      00089C C0 E0            [24] 2073 	push	acc
      00089E 12r00r00         [24] 2074 	lcall	_printf
      0008A1 E5 81            [12] 2075 	mov	a,sp
      0008A3 24 FA            [12] 2076 	add	a,#0xfa
      0008A5 F5 81            [12] 2077 	mov	sp,a
                                   2078 ;	src/main.c:245: printf("\r\n------------------------------");   
      0008A7 74r17            [12] 2079 	mov	a,#___str_8
      0008A9 C0 E0            [24] 2080 	push	acc
      0008AB 74s01            [12] 2081 	mov	a,#(___str_8 >> 8)
      0008AD C0 E0            [24] 2082 	push	acc
      0008AF 74 80            [12] 2083 	mov	a,#0x80
      0008B1 C0 E0            [24] 2084 	push	acc
      0008B3 12r00r00         [24] 2085 	lcall	_printf
      0008B6 15 81            [12] 2086 	dec	sp
      0008B8 15 81            [12] 2087 	dec	sp
      0008BA 15 81            [12] 2088 	dec	sp
                                   2089 ;	src/main.c:246: }
      0008BC 22               [24] 2090 	ret
                                   2091 ;------------------------------------------------------------
                                   2092 ;Allocation info for local variables in function 'heap_report'
                                   2093 ;------------------------------------------------------------
                                   2094 ;sloc0                     Allocated with name '_heap_report_sloc0_1_0'
                                   2095 ;sloc1                     Allocated with name '_heap_report_sloc1_1_0'
                                   2096 ;sloc2                     Allocated with name '_heap_report_sloc2_1_0'
                                   2097 ;sloc3                     Allocated with name '_heap_report_sloc3_1_0'
                                   2098 ;sloc4                     Allocated with name '_heap_report_sloc4_1_0'
                                   2099 ;sloc5                     Allocated with name '_heap_report_sloc5_1_0'
                                   2100 ;total_heap_sz             Allocated with name '_heap_report_total_heap_sz_65537_119'
                                   2101 ;i                         Allocated with name '_heap_report_i_65537_119'
                                   2102 ;curr                      Allocated with name '_heap_report_curr_65538_123'
                                   2103 ;------------------------------------------------------------
                                   2104 ;	src/main.c:250: void heap_report()
                                   2105 ;	-----------------------------------------
                                   2106 ;	 function heap_report
                                   2107 ;	-----------------------------------------
      0008BD                       2108 _heap_report:
                                   2109 ;	src/main.c:252: command_header("HEAP REPORT");
      0008BD 90r01r38         [24] 2110 	mov	dptr,#___str_9
      0008C0 75 F0 80         [24] 2111 	mov	b,#0x80
      0008C3 12r08r74         [24] 2112 	lcall	_command_header
                                   2113 ;	src/main.c:253: size_t total_heap_sz = 0;
      0008C6 90r00r2A         [24] 2114 	mov	dptr,#_heap_report_total_heap_sz_65537_119
      0008C9 E4               [12] 2115 	clr	a
      0008CA F0               [24] 2116 	movx	@dptr,a
      0008CB A3               [24] 2117 	inc	dptr
      0008CC F0               [24] 2118 	movx	@dptr,a
                                   2119 ;	src/main.c:255: for(i = 0; i < BUFFER_ALWAYS_HELD_COUNT; i++)
      0008CD 7E 00            [12] 2120 	mov	r6,#0x00
      0008CF 7F 00            [12] 2121 	mov	r7,#0x00
      0008D1                       2122 00109$:
                                   2123 ;	src/main.c:257: if(static_buffers[i].buffer != NULL) {
      0008D1 90r00r00         [24] 2124 	mov	dptr,#__mulint_PARM_2
      0008D4 EE               [12] 2125 	mov	a,r6
      0008D5 F0               [24] 2126 	movx	@dptr,a
      0008D6 EF               [12] 2127 	mov	a,r7
      0008D7 A3               [24] 2128 	inc	dptr
      0008D8 F0               [24] 2129 	movx	@dptr,a
      0008D9 90 00 0B         [24] 2130 	mov	dptr,#0x000b
      0008DC C0 07            [24] 2131 	push	ar7
      0008DE C0 06            [24] 2132 	push	ar6
      0008E0 12r00r00         [24] 2133 	lcall	__mulint
      0008E3 AC 82            [24] 2134 	mov	r4,dpl
      0008E5 AD 83            [24] 2135 	mov	r5,dph
      0008E7 D0 06            [24] 2136 	pop	ar6
      0008E9 D0 07            [24] 2137 	pop	ar7
      0008EB EC               [12] 2138 	mov	a,r4
      0008EC 24r00            [12] 2139 	add	a,#_static_buffers
      0008EE F5 82            [12] 2140 	mov	dpl,a
      0008F0 ED               [12] 2141 	mov	a,r5
      0008F1 34s00            [12] 2142 	addc	a,#(_static_buffers >> 8)
      0008F3 F5 83            [12] 2143 	mov	dph,a
      0008F5 E0               [24] 2144 	movx	a,@dptr
      0008F6 FA               [12] 2145 	mov	r2,a
      0008F7 A3               [24] 2146 	inc	dptr
      0008F8 E0               [24] 2147 	movx	a,@dptr
      0008F9 FB               [12] 2148 	mov	r3,a
      0008FA 4A               [12] 2149 	orl	a,r2
      0008FB 70 03            [24] 2150 	jnz	00139$
      0008FD 02r09rB6         [24] 2151 	ljmp	00110$
      000900                       2152 00139$:
                                   2153 ;	src/main.c:264: static_buffers[i].size - static_buffers[i].curr_available_char);
      000900 EC               [12] 2154 	mov	a,r4
      000901 24r00            [12] 2155 	add	a,#_static_buffers
      000903 FC               [12] 2156 	mov	r4,a
      000904 ED               [12] 2157 	mov	a,r5
      000905 34s00            [12] 2158 	addc	a,#(_static_buffers >> 8)
      000907 FD               [12] 2159 	mov	r5,a
      000908 74 04            [12] 2160 	mov	a,#0x04
      00090A 2C               [12] 2161 	add	a,r4
      00090B F5*14            [12] 2162 	mov	_heap_report_sloc0_1_0,a
      00090D E4               [12] 2163 	clr	a
      00090E 3D               [12] 2164 	addc	a,r5
      00090F F5*15            [12] 2165 	mov	(_heap_report_sloc0_1_0 + 1),a
      000911 85*14 82         [24] 2166 	mov	dpl,_heap_report_sloc0_1_0
      000914 85*15 83         [24] 2167 	mov	dph,(_heap_report_sloc0_1_0 + 1)
      000917 E0               [24] 2168 	movx	a,@dptr
      000918 F8               [12] 2169 	mov	r0,a
      000919 A3               [24] 2170 	inc	dptr
      00091A E0               [24] 2171 	movx	a,@dptr
      00091B F9               [12] 2172 	mov	r1,a
      00091C 74 06            [12] 2173 	mov	a,#0x06
      00091E 2C               [12] 2174 	add	a,r4
      00091F F5 82            [12] 2175 	mov	dpl,a
      000921 E4               [12] 2176 	clr	a
      000922 3D               [12] 2177 	addc	a,r5
      000923 F5 83            [12] 2178 	mov	dph,a
      000925 E0               [24] 2179 	movx	a,@dptr
      000926 FA               [12] 2180 	mov	r2,a
      000927 A3               [24] 2181 	inc	dptr
      000928 E0               [24] 2182 	movx	a,@dptr
      000929 FB               [12] 2183 	mov	r3,a
      00092A E8               [12] 2184 	mov	a,r0
      00092B C3               [12] 2185 	clr	c
      00092C 9A               [12] 2186 	subb	a,r2
      00092D F5*16            [12] 2187 	mov	_heap_report_sloc1_1_0,a
      00092F E9               [12] 2188 	mov	a,r1
      000930 9B               [12] 2189 	subb	a,r3
      000931 F5*17            [12] 2190 	mov	(_heap_report_sloc1_1_0 + 1),a
                                   2191 ;	src/main.c:263: static_buffers[i].alphabet_chars,
      000933 8C 82            [24] 2192 	mov	dpl,r4
      000935 8D 83            [24] 2193 	mov	dph,r5
      000937 A3               [24] 2194 	inc	dptr
      000938 A3               [24] 2195 	inc	dptr
      000939 E0               [24] 2196 	movx	a,@dptr
      00093A F5*18            [12] 2197 	mov	_heap_report_sloc2_1_0,a
      00093C A3               [24] 2198 	inc	dptr
      00093D E0               [24] 2199 	movx	a,@dptr
      00093E F5*19            [12] 2200 	mov	(_heap_report_sloc2_1_0 + 1),a
                                   2201 ;	src/main.c:261: static_buffers[i].buffer + static_buffers[i].size, 
      000940 8C 82            [24] 2202 	mov	dpl,r4
      000942 8D 83            [24] 2203 	mov	dph,r5
      000944 E0               [24] 2204 	movx	a,@dptr
      000945 F5*1A            [12] 2205 	mov	_heap_report_sloc3_1_0,a
      000947 A3               [24] 2206 	inc	dptr
      000948 E0               [24] 2207 	movx	a,@dptr
      000949 F5*1B            [12] 2208 	mov	(_heap_report_sloc3_1_0 + 1),a
      00094B E8               [12] 2209 	mov	a,r0
      00094C 25*1A            [12] 2210 	add	a,_heap_report_sloc3_1_0
      00094E FA               [12] 2211 	mov	r2,a
      00094F E9               [12] 2212 	mov	a,r1
      000950 35*1B            [12] 2213 	addc	a,(_heap_report_sloc3_1_0 + 1)
      000952 FB               [12] 2214 	mov	r3,a
      000953 8A*1C            [24] 2215 	mov	_heap_report_sloc4_1_0,r2
      000955 8B*1D            [24] 2216 	mov	(_heap_report_sloc4_1_0 + 1),r3
      000957 75*1E 00         [24] 2217 	mov	(_heap_report_sloc4_1_0 + 2),#0x00
                                   2218 ;	src/main.c:260: static_buffers[i].buffer, 
      00095A AC*1A            [24] 2219 	mov	r4,_heap_report_sloc3_1_0
      00095C AD*1B            [24] 2220 	mov	r5,(_heap_report_sloc3_1_0 + 1)
      00095E 7B 00            [12] 2221 	mov	r3,#0x00
                                   2222 ;	src/main.c:258: printf("\r\nbuffer_%d starts @ %p, ends @%p, size %zu, contains %zu alphabet chars, has %zu chars remaining", 
      000960 C0 07            [24] 2223 	push	ar7
      000962 C0 06            [24] 2224 	push	ar6
      000964 C0*16            [24] 2225 	push	_heap_report_sloc1_1_0
      000966 C0*17            [24] 2226 	push	(_heap_report_sloc1_1_0 + 1)
      000968 C0*18            [24] 2227 	push	_heap_report_sloc2_1_0
      00096A C0*19            [24] 2228 	push	(_heap_report_sloc2_1_0 + 1)
      00096C C0 00            [24] 2229 	push	ar0
      00096E C0 01            [24] 2230 	push	ar1
      000970 C0*1C            [24] 2231 	push	_heap_report_sloc4_1_0
      000972 C0*1D            [24] 2232 	push	(_heap_report_sloc4_1_0 + 1)
      000974 C0*1E            [24] 2233 	push	(_heap_report_sloc4_1_0 + 2)
      000976 C0 04            [24] 2234 	push	ar4
      000978 C0 05            [24] 2235 	push	ar5
      00097A C0 03            [24] 2236 	push	ar3
      00097C C0 06            [24] 2237 	push	ar6
      00097E C0 07            [24] 2238 	push	ar7
      000980 74r44            [12] 2239 	mov	a,#___str_10
      000982 C0 E0            [24] 2240 	push	acc
      000984 74s01            [12] 2241 	mov	a,#(___str_10 >> 8)
      000986 C0 E0            [24] 2242 	push	acc
      000988 74 80            [12] 2243 	mov	a,#0x80
      00098A C0 E0            [24] 2244 	push	acc
      00098C 12r00r00         [24] 2245 	lcall	_printf
      00098F E5 81            [12] 2246 	mov	a,sp
      000991 24 EF            [12] 2247 	add	a,#0xef
      000993 F5 81            [12] 2248 	mov	sp,a
      000995 D0 06            [24] 2249 	pop	ar6
      000997 D0 07            [24] 2250 	pop	ar7
                                   2251 ;	src/main.c:265: total_heap_sz += static_buffers[i].size; 
      000999 85*14 82         [24] 2252 	mov	dpl,_heap_report_sloc0_1_0
      00099C 85*15 83         [24] 2253 	mov	dph,(_heap_report_sloc0_1_0 + 1)
      00099F E0               [24] 2254 	movx	a,@dptr
      0009A0 FC               [12] 2255 	mov	r4,a
      0009A1 A3               [24] 2256 	inc	dptr
      0009A2 E0               [24] 2257 	movx	a,@dptr
      0009A3 FD               [12] 2258 	mov	r5,a
      0009A4 90r00r2A         [24] 2259 	mov	dptr,#_heap_report_total_heap_sz_65537_119
      0009A7 E0               [24] 2260 	movx	a,@dptr
      0009A8 FA               [12] 2261 	mov	r2,a
      0009A9 A3               [24] 2262 	inc	dptr
      0009AA E0               [24] 2263 	movx	a,@dptr
      0009AB FB               [12] 2264 	mov	r3,a
      0009AC 90r00r2A         [24] 2265 	mov	dptr,#_heap_report_total_heap_sz_65537_119
      0009AF EC               [12] 2266 	mov	a,r4
      0009B0 2A               [12] 2267 	add	a,r2
      0009B1 F0               [24] 2268 	movx	@dptr,a
      0009B2 ED               [12] 2269 	mov	a,r5
      0009B3 3B               [12] 2270 	addc	a,r3
      0009B4 A3               [24] 2271 	inc	dptr
      0009B5 F0               [24] 2272 	movx	@dptr,a
      0009B6                       2273 00110$:
                                   2274 ;	src/main.c:255: for(i = 0; i < BUFFER_ALWAYS_HELD_COUNT; i++)
      0009B6 0E               [12] 2275 	inc	r6
      0009B7 BE 00 01         [24] 2276 	cjne	r6,#0x00,00140$
      0009BA 0F               [12] 2277 	inc	r7
      0009BB                       2278 00140$:
      0009BB C3               [12] 2279 	clr	c
      0009BC EE               [12] 2280 	mov	a,r6
      0009BD 94 02            [12] 2281 	subb	a,#0x02
      0009BF EF               [12] 2282 	mov	a,r7
      0009C0 64 80            [12] 2283 	xrl	a,#0x80
      0009C2 94 80            [12] 2284 	subb	a,#0x80
      0009C4 50 03            [24] 2285 	jnc	00141$
      0009C6 02r08rD1         [24] 2286 	ljmp	00109$
      0009C9                       2287 00141$:
                                   2288 ;	src/main.c:269: buffer_t *curr = dynamic_buffers_list.head;
      0009C9 90r00r00         [24] 2289 	mov	dptr,#_dynamic_buffers_list
      0009CC E0               [24] 2290 	movx	a,@dptr
      0009CD FB               [12] 2291 	mov	r3,a
      0009CE A3               [24] 2292 	inc	dptr
      0009CF E0               [24] 2293 	movx	a,@dptr
      0009D0 FC               [12] 2294 	mov	r4,a
      0009D1 A3               [24] 2295 	inc	dptr
      0009D2 E0               [24] 2296 	movx	a,@dptr
      0009D3 FD               [12] 2297 	mov	r5,a
                                   2298 ;	src/main.c:270: while(curr != NULL) {
      0009D4 74 04            [12] 2299 	mov	a,#0x04
      0009D6 2B               [12] 2300 	add	a,r3
      0009D7 F8               [12] 2301 	mov	r0,a
      0009D8 E4               [12] 2302 	clr	a
      0009D9 3C               [12] 2303 	addc	a,r4
      0009DA F9               [12] 2304 	mov	r1,a
      0009DB 8D 02            [24] 2305 	mov	ar2,r5
      0009DD 74 02            [12] 2306 	mov	a,#0x02
      0009DF 2B               [12] 2307 	add	a,r3
      0009E0 F5*1C            [12] 2308 	mov	_heap_report_sloc4_1_0,a
      0009E2 E4               [12] 2309 	clr	a
      0009E3 3C               [12] 2310 	addc	a,r4
      0009E4 F5*1D            [12] 2311 	mov	(_heap_report_sloc4_1_0 + 1),a
      0009E6 8D*1E            [24] 2312 	mov	(_heap_report_sloc4_1_0 + 2),r5
      0009E8 8E*18            [24] 2313 	mov	_heap_report_sloc2_1_0,r6
      0009EA 8F*19            [24] 2314 	mov	(_heap_report_sloc2_1_0 + 1),r7
      0009EC                       2315 00106$:
      0009EC EB               [12] 2316 	mov	a,r3
      0009ED 4C               [12] 2317 	orl	a,r4
      0009EE 70 03            [24] 2318 	jnz	00142$
      0009F0 02r0ArD1         [24] 2319 	ljmp	00108$
      0009F3                       2320 00142$:
                                   2321 ;	src/main.c:271: if(curr->buffer != NULL) {
      0009F3 8B 82            [24] 2322 	mov	dpl,r3
      0009F5 8C 83            [24] 2323 	mov	dph,r4
      0009F7 8D F0            [24] 2324 	mov	b,r5
      0009F9 12r00r00         [24] 2325 	lcall	__gptrget
      0009FC F5*1A            [12] 2326 	mov	_heap_report_sloc3_1_0,a
      0009FE A3               [24] 2327 	inc	dptr
      0009FF 12r00r00         [24] 2328 	lcall	__gptrget
      000A02 F5*1B            [12] 2329 	mov	(_heap_report_sloc3_1_0 + 1),a
      000A04 E5*1A            [12] 2330 	mov	a,_heap_report_sloc3_1_0
      000A06 45*1B            [12] 2331 	orl	a,(_heap_report_sloc3_1_0 + 1)
      000A08 70 03            [24] 2332 	jnz	00143$
      000A0A 02r0ArC6         [24] 2333 	ljmp	00105$
      000A0D                       2334 00143$:
                                   2335 ;	src/main.c:278: curr->size - curr->alphabet_chars);
      000A0D C0 03            [24] 2336 	push	ar3
      000A0F C0 04            [24] 2337 	push	ar4
      000A11 C0 05            [24] 2338 	push	ar5
      000A13 88 82            [24] 2339 	mov	dpl,r0
      000A15 89 83            [24] 2340 	mov	dph,r1
      000A17 8A F0            [24] 2341 	mov	b,r2
      000A19 12r00r00         [24] 2342 	lcall	__gptrget
      000A1C FC               [12] 2343 	mov	r4,a
      000A1D A3               [24] 2344 	inc	dptr
      000A1E 12r00r00         [24] 2345 	lcall	__gptrget
      000A21 FD               [12] 2346 	mov	r5,a
      000A22 85*1C 82         [24] 2347 	mov	dpl,_heap_report_sloc4_1_0
      000A25 85*1D 83         [24] 2348 	mov	dph,(_heap_report_sloc4_1_0 + 1)
      000A28 85*1E F0         [24] 2349 	mov	b,(_heap_report_sloc4_1_0 + 2)
      000A2B 12r00r00         [24] 2350 	lcall	__gptrget
      000A2E F5*16            [12] 2351 	mov	_heap_report_sloc1_1_0,a
      000A30 A3               [24] 2352 	inc	dptr
      000A31 12r00r00         [24] 2353 	lcall	__gptrget
      000A34 F5*17            [12] 2354 	mov	(_heap_report_sloc1_1_0 + 1),a
      000A36 EC               [12] 2355 	mov	a,r4
      000A37 C3               [12] 2356 	clr	c
      000A38 95*16            [12] 2357 	subb	a,_heap_report_sloc1_1_0
      000A3A F5*14            [12] 2358 	mov	_heap_report_sloc0_1_0,a
      000A3C ED               [12] 2359 	mov	a,r5
      000A3D 95*17            [12] 2360 	subb	a,(_heap_report_sloc1_1_0 + 1)
      000A3F F5*15            [12] 2361 	mov	(_heap_report_sloc0_1_0 + 1),a
                                   2362 ;	src/main.c:275: curr->buffer + curr->size, 
      000A41 EC               [12] 2363 	mov	a,r4
      000A42 25*1A            [12] 2364 	add	a,_heap_report_sloc3_1_0
      000A44 FB               [12] 2365 	mov	r3,a
      000A45 ED               [12] 2366 	mov	a,r5
      000A46 35*1B            [12] 2367 	addc	a,(_heap_report_sloc3_1_0 + 1)
      000A48 FF               [12] 2368 	mov	r7,a
      000A49 8B*1F            [24] 2369 	mov	_heap_report_sloc5_1_0,r3
      000A4B 8F*20            [24] 2370 	mov	(_heap_report_sloc5_1_0 + 1),r7
      000A4D 75*21 00         [24] 2371 	mov	(_heap_report_sloc5_1_0 + 2),#0x00
                                   2372 ;	src/main.c:274: curr->buffer, 
      000A50 AE*1A            [24] 2373 	mov	r6,_heap_report_sloc3_1_0
      000A52 AF*1B            [24] 2374 	mov	r7,(_heap_report_sloc3_1_0 + 1)
      000A54 7B 00            [12] 2375 	mov	r3,#0x00
                                   2376 ;	src/main.c:272: printf("\r\nbuffer_%d starts @ %p, ends @%p, size %zu, contains %zu alphabet chars, has %zu chars remaining", 
      000A56 C0 05            [24] 2377 	push	ar5
      000A58 C0 04            [24] 2378 	push	ar4
      000A5A C0 03            [24] 2379 	push	ar3
      000A5C C0 02            [24] 2380 	push	ar2
      000A5E C0 01            [24] 2381 	push	ar1
      000A60 C0 00            [24] 2382 	push	ar0
      000A62 C0*14            [24] 2383 	push	_heap_report_sloc0_1_0
      000A64 C0*15            [24] 2384 	push	(_heap_report_sloc0_1_0 + 1)
      000A66 C0*16            [24] 2385 	push	_heap_report_sloc1_1_0
      000A68 C0*17            [24] 2386 	push	(_heap_report_sloc1_1_0 + 1)
      000A6A C0 04            [24] 2387 	push	ar4
      000A6C C0 05            [24] 2388 	push	ar5
      000A6E C0*1F            [24] 2389 	push	_heap_report_sloc5_1_0
      000A70 C0*20            [24] 2390 	push	(_heap_report_sloc5_1_0 + 1)
      000A72 C0*21            [24] 2391 	push	(_heap_report_sloc5_1_0 + 2)
      000A74 C0 06            [24] 2392 	push	ar6
      000A76 C0 07            [24] 2393 	push	ar7
      000A78 C0 03            [24] 2394 	push	ar3
      000A7A C0*18            [24] 2395 	push	_heap_report_sloc2_1_0
      000A7C C0*19            [24] 2396 	push	(_heap_report_sloc2_1_0 + 1)
      000A7E 74r44            [12] 2397 	mov	a,#___str_10
      000A80 C0 E0            [24] 2398 	push	acc
      000A82 74s01            [12] 2399 	mov	a,#(___str_10 >> 8)
      000A84 C0 E0            [24] 2400 	push	acc
      000A86 74 80            [12] 2401 	mov	a,#0x80
      000A88 C0 E0            [24] 2402 	push	acc
      000A8A 12r00r00         [24] 2403 	lcall	_printf
      000A8D E5 81            [12] 2404 	mov	a,sp
      000A8F 24 EF            [12] 2405 	add	a,#0xef
      000A91 F5 81            [12] 2406 	mov	sp,a
      000A93 D0 00            [24] 2407 	pop	ar0
      000A95 D0 01            [24] 2408 	pop	ar1
      000A97 D0 02            [24] 2409 	pop	ar2
      000A99 D0 03            [24] 2410 	pop	ar3
      000A9B D0 04            [24] 2411 	pop	ar4
      000A9D D0 05            [24] 2412 	pop	ar5
                                   2413 ;	src/main.c:279: total_heap_sz += curr->size; 
      000A9F 88 82            [24] 2414 	mov	dpl,r0
      000AA1 89 83            [24] 2415 	mov	dph,r1
      000AA3 8A F0            [24] 2416 	mov	b,r2
      000AA5 12r00r00         [24] 2417 	lcall	__gptrget
      000AA8 FE               [12] 2418 	mov	r6,a
      000AA9 A3               [24] 2419 	inc	dptr
      000AAA 12r00r00         [24] 2420 	lcall	__gptrget
      000AAD FF               [12] 2421 	mov	r7,a
      000AAE 90r00r2A         [24] 2422 	mov	dptr,#_heap_report_total_heap_sz_65537_119
      000AB1 E0               [24] 2423 	movx	a,@dptr
      000AB2 FC               [12] 2424 	mov	r4,a
      000AB3 A3               [24] 2425 	inc	dptr
      000AB4 E0               [24] 2426 	movx	a,@dptr
      000AB5 FD               [12] 2427 	mov	r5,a
      000AB6 90r00r2A         [24] 2428 	mov	dptr,#_heap_report_total_heap_sz_65537_119
      000AB9 EE               [12] 2429 	mov	a,r6
      000ABA 2C               [12] 2430 	add	a,r4
      000ABB F0               [24] 2431 	movx	@dptr,a
      000ABC EF               [12] 2432 	mov	a,r7
      000ABD 3D               [12] 2433 	addc	a,r5
      000ABE A3               [24] 2434 	inc	dptr
      000ABF F0               [24] 2435 	movx	@dptr,a
                                   2436 ;	src/main.c:285: printf("\r\n");
      000AC0 D0 05            [24] 2437 	pop	ar5
      000AC2 D0 04            [24] 2438 	pop	ar4
      000AC4 D0 03            [24] 2439 	pop	ar3
                                   2440 ;	src/main.c:279: total_heap_sz += curr->size; 
      000AC6                       2441 00105$:
                                   2442 ;	src/main.c:281: i++;
      000AC6 05*18            [12] 2443 	inc	_heap_report_sloc2_1_0
      000AC8 E4               [12] 2444 	clr	a
      000AC9 B5*18 02         [24] 2445 	cjne	a,_heap_report_sloc2_1_0,00144$
      000ACC 05*19            [12] 2446 	inc	(_heap_report_sloc2_1_0 + 1)
      000ACE                       2447 00144$:
                                   2448 ;	src/main.c:282: curr->next;
      000ACE 02r09rEC         [24] 2449 	ljmp	00106$
      000AD1                       2450 00108$:
                                   2451 ;	src/main.c:284: printf("\r\nHeap starts @ %p, ends @ %p, size: %zu", __sdcc_heap, __sdcc_heap + HEAP_SIZE, total_heap_sz);
      000AD1 90r00r2A         [24] 2452 	mov	dptr,#_heap_report_total_heap_sz_65537_119
      000AD4 E0               [24] 2453 	movx	a,@dptr
      000AD5 C0 E0            [24] 2454 	push	acc
      000AD7 A3               [24] 2455 	inc	dptr
      000AD8 E0               [24] 2456 	movx	a,@dptr
      000AD9 C0 E0            [24] 2457 	push	acc
      000ADB 74r00            [12] 2458 	mov	a,#(___sdcc_heap + 0x1000)
      000ADD C0 E0            [24] 2459 	push	acc
      000ADF 74s10            [12] 2460 	mov	a,#((___sdcc_heap + 0x1000) >> 8)
      000AE1 C0 E0            [24] 2461 	push	acc
      000AE3 E4               [12] 2462 	clr	a
      000AE4 C0 E0            [24] 2463 	push	acc
      000AE6 74r00            [12] 2464 	mov	a,#___sdcc_heap
      000AE8 C0 E0            [24] 2465 	push	acc
      000AEA 74s00            [12] 2466 	mov	a,#(___sdcc_heap >> 8)
      000AEC C0 E0            [24] 2467 	push	acc
      000AEE E4               [12] 2468 	clr	a
      000AEF C0 E0            [24] 2469 	push	acc
      000AF1 74rE1            [12] 2470 	mov	a,#___str_6
      000AF3 C0 E0            [24] 2471 	push	acc
      000AF5 74s00            [12] 2472 	mov	a,#(___str_6 >> 8)
      000AF7 C0 E0            [24] 2473 	push	acc
      000AF9 74 80            [12] 2474 	mov	a,#0x80
      000AFB C0 E0            [24] 2475 	push	acc
      000AFD 12r00r00         [24] 2476 	lcall	_printf
      000B00 E5 81            [12] 2477 	mov	a,sp
      000B02 24 F5            [12] 2478 	add	a,#0xf5
      000B04 F5 81            [12] 2479 	mov	sp,a
                                   2480 ;	src/main.c:285: printf("\r\n");
      000B06 74rA6            [12] 2481 	mov	a,#___str_11
      000B08 C0 E0            [24] 2482 	push	acc
      000B0A 74s01            [12] 2483 	mov	a,#(___str_11 >> 8)
      000B0C C0 E0            [24] 2484 	push	acc
      000B0E 74 80            [12] 2485 	mov	a,#0x80
      000B10 C0 E0            [24] 2486 	push	acc
      000B12 12r00r00         [24] 2487 	lcall	_printf
      000B15 15 81            [12] 2488 	dec	sp
      000B17 15 81            [12] 2489 	dec	sp
      000B19 15 81            [12] 2490 	dec	sp
                                   2491 ;	src/main.c:286: }
      000B1B 22               [24] 2492 	ret
                                   2493 ;------------------------------------------------------------
                                   2494 ;Allocation info for local variables in function 'get_user_buffer_sz'
                                   2495 ;------------------------------------------------------------
                                   2496 ;maximum_sz                Allocated with name '_get_user_buffer_sz_maximum_sz_65536_126'
                                   2497 ;user_buffer_size          Allocated with name '_get_user_buffer_sz_user_buffer_size_65536_127'
                                   2498 ;------------------------------------------------------------
                                   2499 ;	src/main.c:290: size_t get_user_buffer_sz(size_t maximum_sz)
                                   2500 ;	-----------------------------------------
                                   2501 ;	 function get_user_buffer_sz
                                   2502 ;	-----------------------------------------
      000B1C                       2503 _get_user_buffer_sz:
      000B1C AF 83            [24] 2504 	mov	r7,dph
      000B1E E5 82            [12] 2505 	mov	a,dpl
      000B20 90r00r2C         [24] 2506 	mov	dptr,#_get_user_buffer_sz_maximum_sz_65536_126
      000B23 F0               [24] 2507 	movx	@dptr,a
      000B24 EF               [12] 2508 	mov	a,r7
      000B25 A3               [24] 2509 	inc	dptr
      000B26 F0               [24] 2510 	movx	@dptr,a
                                   2511 ;	src/main.c:293: do {
      000B27 90r00r2C         [24] 2512 	mov	dptr,#_get_user_buffer_sz_maximum_sz_65536_126
      000B2A E0               [24] 2513 	movx	a,@dptr
      000B2B FE               [12] 2514 	mov	r6,a
      000B2C A3               [24] 2515 	inc	dptr
      000B2D E0               [24] 2516 	movx	a,@dptr
      000B2E FF               [12] 2517 	mov	r7,a
      000B2F                       2518 00103$:
                                   2519 ;	src/main.c:294: printf("\r\nPlease enter a valid buffer size that is divisible by 32 [64,%zu]: ", maximum_sz);
      000B2F C0 07            [24] 2520 	push	ar7
      000B31 C0 06            [24] 2521 	push	ar6
      000B33 C0 06            [24] 2522 	push	ar6
      000B35 C0 07            [24] 2523 	push	ar7
      000B37 74rA9            [12] 2524 	mov	a,#___str_12
      000B39 C0 E0            [24] 2525 	push	acc
      000B3B 74s01            [12] 2526 	mov	a,#(___str_12 >> 8)
      000B3D C0 E0            [24] 2527 	push	acc
      000B3F 74 80            [12] 2528 	mov	a,#0x80
      000B41 C0 E0            [24] 2529 	push	acc
      000B43 12r00r00         [24] 2530 	lcall	_printf
      000B46 E5 81            [12] 2531 	mov	a,sp
      000B48 24 FB            [12] 2532 	add	a,#0xfb
      000B4A F5 81            [12] 2533 	mov	sp,a
                                   2534 ;	src/main.c:295: get_string();
      000B4C 12r00r00         [24] 2535 	lcall	_get_string
                                   2536 ;	src/main.c:296: user_buffer_size = (size_t) atoi(get_input_buffer()); //TODO: replace with own implementation of atoi that respects the size_t
      000B4F 12r00r00         [24] 2537 	lcall	_get_input_buffer
      000B52 12r00r00         [24] 2538 	lcall	_atoi
      000B55 AC 82            [24] 2539 	mov	r4,dpl
      000B57 AD 83            [24] 2540 	mov	r5,dph
      000B59 D0 06            [24] 2541 	pop	ar6
      000B5B D0 07            [24] 2542 	pop	ar7
                                   2543 ;	src/main.c:297: } while ((user_buffer_size > maximum_sz)
      000B5D C3               [12] 2544 	clr	c
      000B5E EE               [12] 2545 	mov	a,r6
      000B5F 9C               [12] 2546 	subb	a,r4
      000B60 EF               [12] 2547 	mov	a,r7
      000B61 9D               [12] 2548 	subb	a,r5
                                   2549 ;	src/main.c:298: || (user_buffer_size < USER_BUFFER_MIN)
      000B62 40 CB            [24] 2550 	jc	00103$
      000B64 EC               [12] 2551 	mov	a,r4
      000B65 94 40            [12] 2552 	subb	a,#0x40
      000B67 ED               [12] 2553 	mov	a,r5
      000B68 94 00            [12] 2554 	subb	a,#0x00
      000B6A 40 C3            [24] 2555 	jc	00103$
                                   2556 ;	src/main.c:299: || (MODULE_32(user_buffer_size) != 0));
      000B6C EC               [12] 2557 	mov	a,r4
      000B6D 54 1F            [12] 2558 	anl	a,#0x1f
      000B6F 70 BE            [24] 2559 	jnz	00103$
                                   2560 ;	src/main.c:300: return user_buffer_size;
      000B71 8C 82            [24] 2561 	mov	dpl,r4
      000B73 8D 83            [24] 2562 	mov	dph,r5
                                   2563 ;	src/main.c:301: }
      000B75 22               [24] 2564 	ret
                                   2565 ;------------------------------------------------------------
                                   2566 ;Allocation info for local variables in function 'free_all_buffers'
                                   2567 ;------------------------------------------------------------
                                   2568 ;i                         Allocated with name '_free_all_buffers_i_131072_130'
                                   2569 ;------------------------------------------------------------
                                   2570 ;	src/main.c:304: void free_all_buffers()
                                   2571 ;	-----------------------------------------
                                   2572 ;	 function free_all_buffers
                                   2573 ;	-----------------------------------------
      000B76                       2574 _free_all_buffers:
                                   2575 ;	src/main.c:306: printf("\r\n Freeing ALL BUFFERS");
      000B76 74rEF            [12] 2576 	mov	a,#___str_13
      000B78 C0 E0            [24] 2577 	push	acc
      000B7A 74s01            [12] 2578 	mov	a,#(___str_13 >> 8)
      000B7C C0 E0            [24] 2579 	push	acc
      000B7E 74 80            [12] 2580 	mov	a,#0x80
      000B80 C0 E0            [24] 2581 	push	acc
      000B82 12r00r00         [24] 2582 	lcall	_printf
      000B85 15 81            [12] 2583 	dec	sp
      000B87 15 81            [12] 2584 	dec	sp
      000B89 15 81            [12] 2585 	dec	sp
                                   2586 ;	src/main.c:307: for(int i = 0; i < BUFFER_ALWAYS_HELD_COUNT; i++)
      000B8B 7E 00            [12] 2587 	mov	r6,#0x00
      000B8D 7F 00            [12] 2588 	mov	r7,#0x00
      000B8F                       2589 00105$:
      000B8F C3               [12] 2590 	clr	c
      000B90 EE               [12] 2591 	mov	a,r6
      000B91 94 02            [12] 2592 	subb	a,#0x02
      000B93 EF               [12] 2593 	mov	a,r7
      000B94 64 80            [12] 2594 	xrl	a,#0x80
      000B96 94 80            [12] 2595 	subb	a,#0x80
      000B98 40 03            [24] 2596 	jc	00122$
      000B9A 02r0Cr20         [24] 2597 	ljmp	00103$
      000B9D                       2598 00122$:
                                   2599 ;	src/main.c:309: if(static_buffers[i].buffer != NULL)
      000B9D 90r00r00         [24] 2600 	mov	dptr,#__mulint_PARM_2
      000BA0 EE               [12] 2601 	mov	a,r6
      000BA1 F0               [24] 2602 	movx	@dptr,a
      000BA2 EF               [12] 2603 	mov	a,r7
      000BA3 A3               [24] 2604 	inc	dptr
      000BA4 F0               [24] 2605 	movx	@dptr,a
      000BA5 90 00 0B         [24] 2606 	mov	dptr,#0x000b
      000BA8 C0 07            [24] 2607 	push	ar7
      000BAA C0 06            [24] 2608 	push	ar6
      000BAC 12r00r00         [24] 2609 	lcall	__mulint
      000BAF AC 82            [24] 2610 	mov	r4,dpl
      000BB1 AD 83            [24] 2611 	mov	r5,dph
      000BB3 D0 06            [24] 2612 	pop	ar6
      000BB5 D0 07            [24] 2613 	pop	ar7
      000BB7 EC               [12] 2614 	mov	a,r4
      000BB8 24r00            [12] 2615 	add	a,#_static_buffers
      000BBA F5 82            [12] 2616 	mov	dpl,a
      000BBC ED               [12] 2617 	mov	a,r5
      000BBD 34s00            [12] 2618 	addc	a,#(_static_buffers >> 8)
      000BBF F5 83            [12] 2619 	mov	dph,a
      000BC1 E0               [24] 2620 	movx	a,@dptr
      000BC2 FC               [12] 2621 	mov	r4,a
      000BC3 A3               [24] 2622 	inc	dptr
      000BC4 E0               [24] 2623 	movx	a,@dptr
      000BC5 FD               [12] 2624 	mov	r5,a
      000BC6 4C               [12] 2625 	orl	a,r4
      000BC7 60 13            [24] 2626 	jz	00102$
                                   2627 ;	src/main.c:311: free(static_buffers[i].buffer);
      000BC9 7B 00            [12] 2628 	mov	r3,#0x00
      000BCB 8C 82            [24] 2629 	mov	dpl,r4
      000BCD 8D 83            [24] 2630 	mov	dph,r5
      000BCF 8B F0            [24] 2631 	mov	b,r3
      000BD1 C0 07            [24] 2632 	push	ar7
      000BD3 C0 06            [24] 2633 	push	ar6
      000BD5 12r00r00         [24] 2634 	lcall	_free
      000BD8 D0 06            [24] 2635 	pop	ar6
      000BDA D0 07            [24] 2636 	pop	ar7
      000BDC                       2637 00102$:
                                   2638 ;	src/main.c:313: static_buffers[i].buffer = NULL;
      000BDC 90r00r00         [24] 2639 	mov	dptr,#__mulint_PARM_2
      000BDF EE               [12] 2640 	mov	a,r6
      000BE0 F0               [24] 2641 	movx	@dptr,a
      000BE1 EF               [12] 2642 	mov	a,r7
      000BE2 A3               [24] 2643 	inc	dptr
      000BE3 F0               [24] 2644 	movx	@dptr,a
      000BE4 90 00 0B         [24] 2645 	mov	dptr,#0x000b
      000BE7 C0 07            [24] 2646 	push	ar7
      000BE9 C0 06            [24] 2647 	push	ar6
      000BEB 12r00r00         [24] 2648 	lcall	__mulint
      000BEE AC 82            [24] 2649 	mov	r4,dpl
      000BF0 AD 83            [24] 2650 	mov	r5,dph
      000BF2 D0 06            [24] 2651 	pop	ar6
      000BF4 D0 07            [24] 2652 	pop	ar7
      000BF6 EC               [12] 2653 	mov	a,r4
      000BF7 24r00            [12] 2654 	add	a,#_static_buffers
      000BF9 F5 82            [12] 2655 	mov	dpl,a
      000BFB ED               [12] 2656 	mov	a,r5
      000BFC 34s00            [12] 2657 	addc	a,#(_static_buffers >> 8)
      000BFE F5 83            [12] 2658 	mov	dph,a
      000C00 E4               [12] 2659 	clr	a
      000C01 F0               [24] 2660 	movx	@dptr,a
      000C02 A3               [24] 2661 	inc	dptr
      000C03 F0               [24] 2662 	movx	@dptr,a
                                   2663 ;	src/main.c:314: static_buffers[i].size = 0; 
      000C04 EC               [12] 2664 	mov	a,r4
      000C05 24r00            [12] 2665 	add	a,#_static_buffers
      000C07 FC               [12] 2666 	mov	r4,a
      000C08 ED               [12] 2667 	mov	a,r5
      000C09 34s00            [12] 2668 	addc	a,#(_static_buffers >> 8)
      000C0B FD               [12] 2669 	mov	r5,a
      000C0C 8C 82            [24] 2670 	mov	dpl,r4
      000C0E 8D 83            [24] 2671 	mov	dph,r5
      000C10 A3               [24] 2672 	inc	dptr
      000C11 A3               [24] 2673 	inc	dptr
      000C12 A3               [24] 2674 	inc	dptr
      000C13 A3               [24] 2675 	inc	dptr
      000C14 E4               [12] 2676 	clr	a
      000C15 F0               [24] 2677 	movx	@dptr,a
      000C16 A3               [24] 2678 	inc	dptr
      000C17 F0               [24] 2679 	movx	@dptr,a
                                   2680 ;	src/main.c:307: for(int i = 0; i < BUFFER_ALWAYS_HELD_COUNT; i++)
      000C18 0E               [12] 2681 	inc	r6
      000C19 BE 00 01         [24] 2682 	cjne	r6,#0x00,00124$
      000C1C 0F               [12] 2683 	inc	r7
      000C1D                       2684 00124$:
      000C1D 02r0Br8F         [24] 2685 	ljmp	00105$
      000C20                       2686 00103$:
                                   2687 ;	src/main.c:316: free_all_elems_from_list(&dynamic_buffers_list); 
      000C20 90r00r00         [24] 2688 	mov	dptr,#_dynamic_buffers_list
      000C23 75 F0 00         [24] 2689 	mov	b,#0x00
                                   2690 ;	src/main.c:317: }
      000C26 02r00r00         [24] 2691 	ljmp	_free_all_elems_from_list
                                   2692 ;------------------------------------------------------------
                                   2693 ;Allocation info for local variables in function 'qmark_command_handler'
                                   2694 ;------------------------------------------------------------
                                   2695 ;sloc0                     Allocated with name '_qmark_command_handler_sloc0_1_0'
                                   2696 ;chars_received_since_last_qmark Allocated with name '_qmark_command_handler_chars_received_since_last_qmark_65537_134'
                                   2697 ;curr_output_char          Allocated with name '_qmark_command_handler_curr_output_char_65538_135'
                                   2698 ;i                         Allocated with name '_qmark_command_handler_i_131074_136'
                                   2699 ;curr_buffer_char          Allocated with name '_qmark_command_handler_curr_buffer_char_196610_137'
                                   2700 ;curr_char                 Allocated with name '_qmark_command_handler_curr_char_196610_137'
                                   2701 ;------------------------------------------------------------
                                   2702 ;	src/main.c:321: void qmark_command_handler()
                                   2703 ;	-----------------------------------------
                                   2704 ;	 function qmark_command_handler
                                   2705 ;	-----------------------------------------
      000C29                       2706 _qmark_command_handler:
                                   2707 ;	src/main.c:323: heap_report();
      000C29 12r08rBD         [24] 2708 	lcall	_heap_report
                                   2709 ;	src/main.c:324: size_t chars_received_since_last_qmark = get_char_count();
      000C2C 12r00r00         [24] 2710 	lcall	_get_char_count
      000C2F AE 82            [24] 2711 	mov	r6,dpl
      000C31 AF 83            [24] 2712 	mov	r7,dph
                                   2713 ;	src/main.c:325: reset_char_count();
      000C33 C0 07            [24] 2714 	push	ar7
      000C35 C0 06            [24] 2715 	push	ar6
      000C37 12r00r00         [24] 2716 	lcall	_reset_char_count
      000C3A D0 06            [24] 2717 	pop	ar6
      000C3C D0 07            [24] 2718 	pop	ar7
                                   2719 ;	src/main.c:326: printf("\r\n Received %zu chars since last invocation of ?", chars_received_since_last_qmark);
      000C3E C0 06            [24] 2720 	push	ar6
      000C40 C0 07            [24] 2721 	push	ar7
      000C42 74r06            [12] 2722 	mov	a,#___str_14
      000C44 C0 E0            [24] 2723 	push	acc
      000C46 74s02            [12] 2724 	mov	a,#(___str_14 >> 8)
      000C48 C0 E0            [24] 2725 	push	acc
      000C4A 74 80            [12] 2726 	mov	a,#0x80
      000C4C C0 E0            [24] 2727 	push	acc
      000C4E 12r00r00         [24] 2728 	lcall	_printf
      000C51 E5 81            [12] 2729 	mov	a,sp
      000C53 24 FB            [12] 2730 	add	a,#0xfb
      000C55 F5 81            [12] 2731 	mov	sp,a
                                   2732 ;	src/main.c:327: size_t curr_output_char = 0;
      000C57 90r00r2E         [24] 2733 	mov	dptr,#_qmark_command_handler_curr_output_char_65538_135
      000C5A E4               [12] 2734 	clr	a
      000C5B F0               [24] 2735 	movx	@dptr,a
      000C5C A3               [24] 2736 	inc	dptr
      000C5D F0               [24] 2737 	movx	@dptr,a
                                   2738 ;	src/main.c:329: for(int i = 0; i < 2; i++)
      000C5E 7E 00            [12] 2739 	mov	r6,#0x00
      000C60 7F 00            [12] 2740 	mov	r7,#0x00
      000C62                       2741 00108$:
      000C62 C3               [12] 2742 	clr	c
      000C63 EE               [12] 2743 	mov	a,r6
      000C64 94 02            [12] 2744 	subb	a,#0x02
      000C66 EF               [12] 2745 	mov	a,r7
      000C67 64 80            [12] 2746 	xrl	a,#0x80
      000C69 94 80            [12] 2747 	subb	a,#0x80
      000C6B 40 03            [24] 2748 	jc	00134$
      000C6D 02r0DrEB         [24] 2749 	ljmp	00106$
      000C70                       2750 00134$:
                                   2751 ;	src/main.c:332: char curr_char = static_buffers[i].buffer[0];
      000C70 90r00r00         [24] 2752 	mov	dptr,#__mulint_PARM_2
      000C73 EE               [12] 2753 	mov	a,r6
      000C74 F0               [24] 2754 	movx	@dptr,a
      000C75 EF               [12] 2755 	mov	a,r7
      000C76 A3               [24] 2756 	inc	dptr
      000C77 F0               [24] 2757 	movx	@dptr,a
      000C78 90 00 0B         [24] 2758 	mov	dptr,#0x000b
      000C7B C0 07            [24] 2759 	push	ar7
      000C7D C0 06            [24] 2760 	push	ar6
      000C7F 12r00r00         [24] 2761 	lcall	__mulint
      000C82 AC 82            [24] 2762 	mov	r4,dpl
      000C84 AD 83            [24] 2763 	mov	r5,dph
      000C86 D0 06            [24] 2764 	pop	ar6
      000C88 D0 07            [24] 2765 	pop	ar7
      000C8A EC               [12] 2766 	mov	a,r4
      000C8B 24r00            [12] 2767 	add	a,#_static_buffers
      000C8D FC               [12] 2768 	mov	r4,a
      000C8E ED               [12] 2769 	mov	a,r5
      000C8F 34s00            [12] 2770 	addc	a,#(_static_buffers >> 8)
      000C91 FD               [12] 2771 	mov	r5,a
      000C92 8C 82            [24] 2772 	mov	dpl,r4
      000C94 8D 83            [24] 2773 	mov	dph,r5
      000C96 E0               [24] 2774 	movx	a,@dptr
      000C97 FA               [12] 2775 	mov	r2,a
      000C98 A3               [24] 2776 	inc	dptr
      000C99 E0               [24] 2777 	movx	a,@dptr
      000C9A FB               [12] 2778 	mov	r3,a
      000C9B 8A 82            [24] 2779 	mov	dpl,r2
      000C9D 8B 83            [24] 2780 	mov	dph,r3
      000C9F E0               [24] 2781 	movx	a,@dptr
      000CA0 90r00r30         [24] 2782 	mov	dptr,#_qmark_command_handler_curr_char_196610_137
      000CA3 F0               [24] 2783 	movx	@dptr,a
                                   2784 ;	src/main.c:333: while(curr_char != '\0')
      000CA4 90r00r2E         [24] 2785 	mov	dptr,#_qmark_command_handler_curr_output_char_65538_135
      000CA7 E0               [24] 2786 	movx	a,@dptr
      000CA8 FA               [12] 2787 	mov	r2,a
      000CA9 A3               [24] 2788 	inc	dptr
      000CAA E0               [24] 2789 	movx	a,@dptr
      000CAB FB               [12] 2790 	mov	r3,a
      000CAC 78 00            [12] 2791 	mov	r0,#0x00
      000CAE 79 00            [12] 2792 	mov	r1,#0x00
      000CB0                       2793 00103$:
      000CB0 90r00r30         [24] 2794 	mov	dptr,#_qmark_command_handler_curr_char_196610_137
      000CB3 E0               [24] 2795 	movx	a,@dptr
      000CB4 70 03            [24] 2796 	jnz	00135$
      000CB6 02r0Dr5E         [24] 2797 	ljmp	00117$
      000CB9                       2798 00135$:
                                   2799 ;	src/main.c:335: if (MODULE_32(curr_output_char) == 0)
      000CB9 EA               [12] 2800 	mov	a,r2
      000CBA 54 1F            [12] 2801 	anl	a,#0x1f
      000CBC 70 35            [24] 2802 	jnz	00102$
                                   2803 ;	src/main.c:337: printf("\r\n");
      000CBE C0 07            [24] 2804 	push	ar7
      000CC0 C0 06            [24] 2805 	push	ar6
      000CC2 C0 05            [24] 2806 	push	ar5
      000CC4 C0 04            [24] 2807 	push	ar4
      000CC6 C0 03            [24] 2808 	push	ar3
      000CC8 C0 02            [24] 2809 	push	ar2
      000CCA C0 01            [24] 2810 	push	ar1
      000CCC C0 00            [24] 2811 	push	ar0
      000CCE 74rA6            [12] 2812 	mov	a,#___str_11
      000CD0 C0 E0            [24] 2813 	push	acc
      000CD2 74s01            [12] 2814 	mov	a,#(___str_11 >> 8)
      000CD4 C0 E0            [24] 2815 	push	acc
      000CD6 74 80            [12] 2816 	mov	a,#0x80
      000CD8 C0 E0            [24] 2817 	push	acc
      000CDA 12r00r00         [24] 2818 	lcall	_printf
      000CDD 15 81            [12] 2819 	dec	sp
      000CDF 15 81            [12] 2820 	dec	sp
      000CE1 15 81            [12] 2821 	dec	sp
      000CE3 D0 00            [24] 2822 	pop	ar0
      000CE5 D0 01            [24] 2823 	pop	ar1
      000CE7 D0 02            [24] 2824 	pop	ar2
      000CE9 D0 03            [24] 2825 	pop	ar3
      000CEB D0 04            [24] 2826 	pop	ar4
      000CED D0 05            [24] 2827 	pop	ar5
      000CEF D0 06            [24] 2828 	pop	ar6
      000CF1 D0 07            [24] 2829 	pop	ar7
      000CF3                       2830 00102$:
                                   2831 ;	src/main.c:339: printf("%c", curr_char);
      000CF3 C0 06            [24] 2832 	push	ar6
      000CF5 C0 07            [24] 2833 	push	ar7
      000CF7 90r00r30         [24] 2834 	mov	dptr,#_qmark_command_handler_curr_char_196610_137
      000CFA E0               [24] 2835 	movx	a,@dptr
      000CFB FF               [12] 2836 	mov	r7,a
      000CFC 7E 00            [12] 2837 	mov	r6,#0x00
      000CFE C0 07            [24] 2838 	push	ar7
      000D00 C0 06            [24] 2839 	push	ar6
      000D02 C0 05            [24] 2840 	push	ar5
      000D04 C0 04            [24] 2841 	push	ar4
      000D06 C0 03            [24] 2842 	push	ar3
      000D08 C0 02            [24] 2843 	push	ar2
      000D0A C0 01            [24] 2844 	push	ar1
      000D0C C0 00            [24] 2845 	push	ar0
      000D0E C0 07            [24] 2846 	push	ar7
      000D10 C0 06            [24] 2847 	push	ar6
      000D12 74r37            [12] 2848 	mov	a,#___str_15
      000D14 C0 E0            [24] 2849 	push	acc
      000D16 74s02            [12] 2850 	mov	a,#(___str_15 >> 8)
      000D18 C0 E0            [24] 2851 	push	acc
      000D1A 74 80            [12] 2852 	mov	a,#0x80
      000D1C C0 E0            [24] 2853 	push	acc
      000D1E 12r00r00         [24] 2854 	lcall	_printf
      000D21 E5 81            [12] 2855 	mov	a,sp
      000D23 24 FB            [12] 2856 	add	a,#0xfb
      000D25 F5 81            [12] 2857 	mov	sp,a
      000D27 D0 00            [24] 2858 	pop	ar0
      000D29 D0 01            [24] 2859 	pop	ar1
      000D2B D0 02            [24] 2860 	pop	ar2
      000D2D D0 03            [24] 2861 	pop	ar3
      000D2F D0 04            [24] 2862 	pop	ar4
      000D31 D0 05            [24] 2863 	pop	ar5
      000D33 D0 06            [24] 2864 	pop	ar6
      000D35 D0 07            [24] 2865 	pop	ar7
                                   2866 ;	src/main.c:340: curr_output_char++;
      000D37 0A               [12] 2867 	inc	r2
      000D38 BA 00 01         [24] 2868 	cjne	r2,#0x00,00138$
      000D3B 0B               [12] 2869 	inc	r3
      000D3C                       2870 00138$:
                                   2871 ;	src/main.c:341: curr_buffer_char++;
      000D3C 08               [12] 2872 	inc	r0
      000D3D B8 00 01         [24] 2873 	cjne	r0,#0x00,00139$
      000D40 09               [12] 2874 	inc	r1
      000D41                       2875 00139$:
                                   2876 ;	src/main.c:342: curr_char = static_buffers[i].buffer[curr_buffer_char];
      000D41 8C 82            [24] 2877 	mov	dpl,r4
      000D43 8D 83            [24] 2878 	mov	dph,r5
      000D45 E0               [24] 2879 	movx	a,@dptr
      000D46 FE               [12] 2880 	mov	r6,a
      000D47 A3               [24] 2881 	inc	dptr
      000D48 E0               [24] 2882 	movx	a,@dptr
      000D49 FF               [12] 2883 	mov	r7,a
      000D4A E8               [12] 2884 	mov	a,r0
      000D4B 2E               [12] 2885 	add	a,r6
      000D4C F5 82            [12] 2886 	mov	dpl,a
      000D4E E9               [12] 2887 	mov	a,r1
      000D4F 3F               [12] 2888 	addc	a,r7
      000D50 F5 83            [12] 2889 	mov	dph,a
      000D52 E0               [24] 2890 	movx	a,@dptr
      000D53 90r00r30         [24] 2891 	mov	dptr,#_qmark_command_handler_curr_char_196610_137
      000D56 F0               [24] 2892 	movx	@dptr,a
      000D57 D0 07            [24] 2893 	pop	ar7
      000D59 D0 06            [24] 2894 	pop	ar6
      000D5B 02r0CrB0         [24] 2895 	ljmp	00103$
      000D5E                       2896 00117$:
      000D5E 90r00r2E         [24] 2897 	mov	dptr,#_qmark_command_handler_curr_output_char_65538_135
      000D61 EA               [12] 2898 	mov	a,r2
      000D62 F0               [24] 2899 	movx	@dptr,a
      000D63 EB               [12] 2900 	mov	a,r3
      000D64 A3               [24] 2901 	inc	dptr
      000D65 F0               [24] 2902 	movx	@dptr,a
                                   2903 ;	src/main.c:345: memset(static_buffers[i].buffer, '\0', static_buffers[i].size);
      000D66 90r00r00         [24] 2904 	mov	dptr,#__mulint_PARM_2
      000D69 EE               [12] 2905 	mov	a,r6
      000D6A F0               [24] 2906 	movx	@dptr,a
      000D6B EF               [12] 2907 	mov	a,r7
      000D6C A3               [24] 2908 	inc	dptr
      000D6D F0               [24] 2909 	movx	@dptr,a
      000D6E 90 00 0B         [24] 2910 	mov	dptr,#0x000b
      000D71 C0 07            [24] 2911 	push	ar7
      000D73 C0 06            [24] 2912 	push	ar6
      000D75 12r00r00         [24] 2913 	lcall	__mulint
      000D78 AC 82            [24] 2914 	mov	r4,dpl
      000D7A AD 83            [24] 2915 	mov	r5,dph
      000D7C EC               [12] 2916 	mov	a,r4
      000D7D 24r00            [12] 2917 	add	a,#_static_buffers
      000D7F F5 82            [12] 2918 	mov	dpl,a
      000D81 ED               [12] 2919 	mov	a,r5
      000D82 34s00            [12] 2920 	addc	a,#(_static_buffers >> 8)
      000D84 F5 83            [12] 2921 	mov	dph,a
      000D86 E0               [24] 2922 	movx	a,@dptr
      000D87 FA               [12] 2923 	mov	r2,a
      000D88 A3               [24] 2924 	inc	dptr
      000D89 E0               [24] 2925 	movx	a,@dptr
      000D8A FB               [12] 2926 	mov	r3,a
      000D8B 8A*22            [24] 2927 	mov	_qmark_command_handler_sloc0_1_0,r2
      000D8D 8B*23            [24] 2928 	mov	(_qmark_command_handler_sloc0_1_0 + 1),r3
      000D8F 75*24 00         [24] 2929 	mov	(_qmark_command_handler_sloc0_1_0 + 2),#0x00
      000D92 EC               [12] 2930 	mov	a,r4
      000D93 24r00            [12] 2931 	add	a,#_static_buffers
      000D95 FC               [12] 2932 	mov	r4,a
      000D96 ED               [12] 2933 	mov	a,r5
      000D97 34s00            [12] 2934 	addc	a,#(_static_buffers >> 8)
      000D99 FD               [12] 2935 	mov	r5,a
      000D9A 8C 82            [24] 2936 	mov	dpl,r4
      000D9C 8D 83            [24] 2937 	mov	dph,r5
      000D9E A3               [24] 2938 	inc	dptr
      000D9F A3               [24] 2939 	inc	dptr
      000DA0 A3               [24] 2940 	inc	dptr
      000DA1 A3               [24] 2941 	inc	dptr
      000DA2 E0               [24] 2942 	movx	a,@dptr
      000DA3 F8               [12] 2943 	mov	r0,a
      000DA4 A3               [24] 2944 	inc	dptr
      000DA5 E0               [24] 2945 	movx	a,@dptr
      000DA6 FB               [12] 2946 	mov	r3,a
      000DA7 90r00r00         [24] 2947 	mov	dptr,#_memset_PARM_2
      000DAA E4               [12] 2948 	clr	a
      000DAB F0               [24] 2949 	movx	@dptr,a
      000DAC 90r00r00         [24] 2950 	mov	dptr,#_memset_PARM_3
      000DAF E8               [12] 2951 	mov	a,r0
      000DB0 F0               [24] 2952 	movx	@dptr,a
      000DB1 EB               [12] 2953 	mov	a,r3
      000DB2 A3               [24] 2954 	inc	dptr
      000DB3 F0               [24] 2955 	movx	@dptr,a
      000DB4 85*22 82         [24] 2956 	mov	dpl,_qmark_command_handler_sloc0_1_0
      000DB7 85*23 83         [24] 2957 	mov	dph,(_qmark_command_handler_sloc0_1_0 + 1)
      000DBA 85*24 F0         [24] 2958 	mov	b,(_qmark_command_handler_sloc0_1_0 + 2)
      000DBD C0 05            [24] 2959 	push	ar5
      000DBF C0 04            [24] 2960 	push	ar4
      000DC1 12r00r00         [24] 2961 	lcall	_memset
      000DC4 D0 04            [24] 2962 	pop	ar4
      000DC6 D0 05            [24] 2963 	pop	ar5
      000DC8 D0 06            [24] 2964 	pop	ar6
      000DCA D0 07            [24] 2965 	pop	ar7
                                   2966 ;	src/main.c:346: static_buffers[i].alphabet_chars = 0;
      000DCC 8C 82            [24] 2967 	mov	dpl,r4
      000DCE 8D 83            [24] 2968 	mov	dph,r5
      000DD0 A3               [24] 2969 	inc	dptr
      000DD1 A3               [24] 2970 	inc	dptr
      000DD2 E4               [12] 2971 	clr	a
      000DD3 F0               [24] 2972 	movx	@dptr,a
      000DD4 A3               [24] 2973 	inc	dptr
      000DD5 F0               [24] 2974 	movx	@dptr,a
                                   2975 ;	src/main.c:347: static_buffers[i].curr_available_char = 0;
      000DD6 74 06            [12] 2976 	mov	a,#0x06
      000DD8 2C               [12] 2977 	add	a,r4
      000DD9 F5 82            [12] 2978 	mov	dpl,a
      000DDB E4               [12] 2979 	clr	a
      000DDC 3D               [12] 2980 	addc	a,r5
      000DDD F5 83            [12] 2981 	mov	dph,a
      000DDF E4               [12] 2982 	clr	a
      000DE0 F0               [24] 2983 	movx	@dptr,a
      000DE1 A3               [24] 2984 	inc	dptr
      000DE2 F0               [24] 2985 	movx	@dptr,a
                                   2986 ;	src/main.c:329: for(int i = 0; i < 2; i++)
      000DE3 0E               [12] 2987 	inc	r6
      000DE4 BE 00 01         [24] 2988 	cjne	r6,#0x00,00140$
      000DE7 0F               [12] 2989 	inc	r7
      000DE8                       2990 00140$:
      000DE8 02r0Cr62         [24] 2991 	ljmp	00108$
      000DEB                       2992 00106$:
                                   2993 ;	src/main.c:350: printf("\r\n");
      000DEB 74rA6            [12] 2994 	mov	a,#___str_11
      000DED C0 E0            [24] 2995 	push	acc
      000DEF 74s01            [12] 2996 	mov	a,#(___str_11 >> 8)
      000DF1 C0 E0            [24] 2997 	push	acc
      000DF3 74 80            [12] 2998 	mov	a,#0x80
      000DF5 C0 E0            [24] 2999 	push	acc
      000DF7 12r00r00         [24] 3000 	lcall	_printf
      000DFA 15 81            [12] 3001 	dec	sp
      000DFC 15 81            [12] 3002 	dec	sp
      000DFE 15 81            [12] 3003 	dec	sp
                                   3004 ;	src/main.c:351: printf("\r\n");
      000E00 74rA6            [12] 3005 	mov	a,#___str_11
      000E02 C0 E0            [24] 3006 	push	acc
      000E04 74s01            [12] 3007 	mov	a,#(___str_11 >> 8)
      000E06 C0 E0            [24] 3008 	push	acc
      000E08 74 80            [12] 3009 	mov	a,#0x80
      000E0A C0 E0            [24] 3010 	push	acc
      000E0C 12r00r00         [24] 3011 	lcall	_printf
      000E0F 15 81            [12] 3012 	dec	sp
      000E11 15 81            [12] 3013 	dec	sp
      000E13 15 81            [12] 3014 	dec	sp
                                   3015 ;	src/main.c:352: }
      000E15 22               [24] 3016 	ret
                                   3017 ;------------------------------------------------------------
                                   3018 ;Allocation info for local variables in function 'enter_command_handler'
                                   3019 ;------------------------------------------------------------
                                   3020 ;sloc0                     Allocated with name '_enter_command_handler_sloc0_1_0'
                                   3021 ;sloc1                     Allocated with name '_enter_command_handler_sloc1_1_0'
                                   3022 ;sloc2                     Allocated with name '_enter_command_handler_sloc2_1_0'
                                   3023 ;sloc3                     Allocated with name '_enter_command_handler_sloc3_1_0'
                                   3024 ;i                         Allocated with name '_enter_command_handler_i_131072_141'
                                   3025 ;address                   Allocated with name '_enter_command_handler_address_262144_143'
                                   3026 ;j                         Allocated with name '_enter_command_handler_j_393216_145'
                                   3027 ;------------------------------------------------------------
                                   3028 ;	src/main.c:354: void enter_command_handler()
                                   3029 ;	-----------------------------------------
                                   3030 ;	 function enter_command_handler
                                   3031 ;	-----------------------------------------
      000E16                       3032 _enter_command_handler:
                                   3033 ;	src/main.c:356: command_header("Dump Admin Buffers");
      000E16 90r02r3A         [24] 3034 	mov	dptr,#___str_16
      000E19 75 F0 80         [24] 3035 	mov	b,#0x80
      000E1C 12r08r74         [24] 3036 	lcall	_command_header
                                   3037 ;	src/main.c:357: for(int i = 0; i < 2; i++)
      000E1F 7E 00            [12] 3038 	mov	r6,#0x00
      000E21 7F 00            [12] 3039 	mov	r7,#0x00
      000E23                       3040 00111$:
      000E23 C3               [12] 3041 	clr	c
      000E24 EE               [12] 3042 	mov	a,r6
      000E25 94 02            [12] 3043 	subb	a,#0x02
      000E27 EF               [12] 3044 	mov	a,r7
      000E28 64 80            [12] 3045 	xrl	a,#0x80
      000E2A 94 80            [12] 3046 	subb	a,#0x80
      000E2C 40 01            [24] 3047 	jc	00142$
      000E2E 22               [24] 3048 	ret
      000E2F                       3049 00142$:
                                   3050 ;	src/main.c:359: printf("\r\n Buffer %d ", i);
      000E2F C0 07            [24] 3051 	push	ar7
      000E31 C0 06            [24] 3052 	push	ar6
      000E33 C0 06            [24] 3053 	push	ar6
      000E35 C0 07            [24] 3054 	push	ar7
      000E37 74r4D            [12] 3055 	mov	a,#___str_17
      000E39 C0 E0            [24] 3056 	push	acc
      000E3B 74s02            [12] 3057 	mov	a,#(___str_17 >> 8)
      000E3D C0 E0            [24] 3058 	push	acc
      000E3F 74 80            [12] 3059 	mov	a,#0x80
      000E41 C0 E0            [24] 3060 	push	acc
      000E43 12r00r00         [24] 3061 	lcall	_printf
      000E46 E5 81            [12] 3062 	mov	a,sp
      000E48 24 FB            [12] 3063 	add	a,#0xfb
      000E4A F5 81            [12] 3064 	mov	sp,a
                                   3065 ;	src/main.c:360: printf("\r\n----------");
      000E4C 74r5B            [12] 3066 	mov	a,#___str_18
      000E4E C0 E0            [24] 3067 	push	acc
      000E50 74s02            [12] 3068 	mov	a,#(___str_18 >> 8)
      000E52 C0 E0            [24] 3069 	push	acc
      000E54 74 80            [12] 3070 	mov	a,#0x80
      000E56 C0 E0            [24] 3071 	push	acc
      000E58 12r00r00         [24] 3072 	lcall	_printf
      000E5B 15 81            [12] 3073 	dec	sp
      000E5D 15 81            [12] 3074 	dec	sp
      000E5F 15 81            [12] 3075 	dec	sp
      000E61 D0 06            [24] 3076 	pop	ar6
      000E63 D0 07            [24] 3077 	pop	ar7
                                   3078 ;	src/main.c:361: for(char *address = static_buffers[i].buffer; address < (static_buffers[i].buffer + static_buffers[i].size); address += 16)
      000E65 90r00r00         [24] 3079 	mov	dptr,#__mulint_PARM_2
      000E68 EE               [12] 3080 	mov	a,r6
      000E69 F0               [24] 3081 	movx	@dptr,a
      000E6A EF               [12] 3082 	mov	a,r7
      000E6B A3               [24] 3083 	inc	dptr
      000E6C F0               [24] 3084 	movx	@dptr,a
      000E6D 90 00 0B         [24] 3085 	mov	dptr,#0x000b
      000E70 C0 07            [24] 3086 	push	ar7
      000E72 C0 06            [24] 3087 	push	ar6
      000E74 12r00r00         [24] 3088 	lcall	__mulint
      000E77 AC 82            [24] 3089 	mov	r4,dpl
      000E79 AD 83            [24] 3090 	mov	r5,dph
      000E7B D0 06            [24] 3091 	pop	ar6
      000E7D D0 07            [24] 3092 	pop	ar7
      000E7F EC               [12] 3093 	mov	a,r4
      000E80 24r00            [12] 3094 	add	a,#_static_buffers
      000E82 FA               [12] 3095 	mov	r2,a
      000E83 ED               [12] 3096 	mov	a,r5
      000E84 34s00            [12] 3097 	addc	a,#(_static_buffers >> 8)
      000E86 FB               [12] 3098 	mov	r3,a
      000E87 8A 82            [24] 3099 	mov	dpl,r2
      000E89 8B 83            [24] 3100 	mov	dph,r3
      000E8B E0               [24] 3101 	movx	a,@dptr
      000E8C F8               [12] 3102 	mov	r0,a
      000E8D A3               [24] 3103 	inc	dptr
      000E8E E0               [24] 3104 	movx	a,@dptr
      000E8F F9               [12] 3105 	mov	r1,a
      000E90 88*25            [24] 3106 	mov	_enter_command_handler_sloc0_1_0,r0
      000E92 89*26            [24] 3107 	mov	(_enter_command_handler_sloc0_1_0 + 1),r1
      000E94 75*27 00         [24] 3108 	mov	(_enter_command_handler_sloc0_1_0 + 2),#0x00
      000E97 8E 00            [24] 3109 	mov	ar0,r6
      000E99 8F 01            [24] 3110 	mov	ar1,r7
      000E9B 8A*2C            [24] 3111 	mov	_enter_command_handler_sloc3_1_0,r2
      000E9D 8B*2D            [24] 3112 	mov	(_enter_command_handler_sloc3_1_0 + 1),r3
      000E9F EC               [12] 3113 	mov	a,r4
      000EA0 24r00            [12] 3114 	add	a,#_static_buffers
      000EA2 FC               [12] 3115 	mov	r4,a
      000EA3 ED               [12] 3116 	mov	a,r5
      000EA4 34s00            [12] 3117 	addc	a,#(_static_buffers >> 8)
      000EA6 FD               [12] 3118 	mov	r5,a
      000EA7 74 04            [12] 3119 	mov	a,#0x04
      000EA9 2C               [12] 3120 	add	a,r4
      000EAA F5*28            [12] 3121 	mov	_enter_command_handler_sloc1_1_0,a
      000EAC E4               [12] 3122 	clr	a
      000EAD 3D               [12] 3123 	addc	a,r5
      000EAE F5*29            [12] 3124 	mov	(_enter_command_handler_sloc1_1_0 + 1),a
      000EB0                       3125 00108$:
      000EB0 C0 00            [24] 3126 	push	ar0
      000EB2 C0 01            [24] 3127 	push	ar1
      000EB4 85*2C 82         [24] 3128 	mov	dpl,_enter_command_handler_sloc3_1_0
      000EB7 85*2D 83         [24] 3129 	mov	dph,(_enter_command_handler_sloc3_1_0 + 1)
      000EBA E0               [24] 3130 	movx	a,@dptr
      000EBB F8               [12] 3131 	mov	r0,a
      000EBC A3               [24] 3132 	inc	dptr
      000EBD E0               [24] 3133 	movx	a,@dptr
      000EBE F9               [12] 3134 	mov	r1,a
      000EBF 85*28 82         [24] 3135 	mov	dpl,_enter_command_handler_sloc1_1_0
      000EC2 85*29 83         [24] 3136 	mov	dph,(_enter_command_handler_sloc1_1_0 + 1)
      000EC5 E0               [24] 3137 	movx	a,@dptr
      000EC6 FC               [12] 3138 	mov	r4,a
      000EC7 A3               [24] 3139 	inc	dptr
      000EC8 E0               [24] 3140 	movx	a,@dptr
      000EC9 FD               [12] 3141 	mov	r5,a
      000ECA EC               [12] 3142 	mov	a,r4
      000ECB 28               [12] 3143 	add	a,r0
      000ECC F5*2A            [12] 3144 	mov	_enter_command_handler_sloc2_1_0,a
      000ECE ED               [12] 3145 	mov	a,r5
      000ECF 39               [12] 3146 	addc	a,r1
      000ED0 F5*2B            [12] 3147 	mov	(_enter_command_handler_sloc2_1_0 + 1),a
      000ED2 A9*25            [24] 3148 	mov	r1,_enter_command_handler_sloc0_1_0
      000ED4 AC*26            [24] 3149 	mov	r4,(_enter_command_handler_sloc0_1_0 + 1)
      000ED6 AD*27            [24] 3150 	mov	r5,(_enter_command_handler_sloc0_1_0 + 2)
      000ED8 A8*2A            [24] 3151 	mov	r0,_enter_command_handler_sloc2_1_0
      000EDA AA*2B            [24] 3152 	mov	r2,(_enter_command_handler_sloc2_1_0 + 1)
      000EDC 7B 00            [12] 3153 	mov	r3,#0x00
      000EDE C0 00            [24] 3154 	push	ar0
      000EE0 C0 02            [24] 3155 	push	ar2
      000EE2 C0 03            [24] 3156 	push	ar3
      000EE4 89 82            [24] 3157 	mov	dpl,r1
      000EE6 8C 83            [24] 3158 	mov	dph,r4
      000EE8 8D F0            [24] 3159 	mov	b,r5
      000EEA 12r00r00         [24] 3160 	lcall	___gptr_cmp
      000EED 15 81            [12] 3161 	dec	sp
      000EEF 15 81            [12] 3162 	dec	sp
      000EF1 15 81            [12] 3163 	dec	sp
      000EF3 D0 01            [24] 3164 	pop	ar1
      000EF5 D0 00            [24] 3165 	pop	ar0
      000EF7 40 03            [24] 3166 	jc	00143$
      000EF9 02r0Fr9C         [24] 3167 	ljmp	00102$
      000EFC                       3168 00143$:
                                   3169 ;	src/main.c:363: printf("\r\n%04X:", (unsigned int) address);
      000EFC AB*25            [24] 3170 	mov	r3,_enter_command_handler_sloc0_1_0
      000EFE AC*26            [24] 3171 	mov	r4,(_enter_command_handler_sloc0_1_0 + 1)
      000F00 C0 01            [24] 3172 	push	ar1
      000F02 C0 00            [24] 3173 	push	ar0
      000F04 C0 03            [24] 3174 	push	ar3
      000F06 C0 04            [24] 3175 	push	ar4
      000F08 74r68            [12] 3176 	mov	a,#___str_19
      000F0A C0 E0            [24] 3177 	push	acc
      000F0C 74s02            [12] 3178 	mov	a,#(___str_19 >> 8)
      000F0E C0 E0            [24] 3179 	push	acc
      000F10 74 80            [12] 3180 	mov	a,#0x80
      000F12 C0 E0            [24] 3181 	push	acc
      000F14 12r00r00         [24] 3182 	lcall	_printf
      000F17 E5 81            [12] 3183 	mov	a,sp
      000F19 24 FB            [12] 3184 	add	a,#0xfb
      000F1B F5 81            [12] 3185 	mov	sp,a
      000F1D D0 00            [24] 3186 	pop	ar0
      000F1F D0 01            [24] 3187 	pop	ar1
                                   3188 ;	src/main.c:364: for(int j = 0; j < 16; j++)
      000F21 AB*25            [24] 3189 	mov	r3,_enter_command_handler_sloc0_1_0
      000F23 AC*26            [24] 3190 	mov	r4,(_enter_command_handler_sloc0_1_0 + 1)
      000F25 AD*27            [24] 3191 	mov	r5,(_enter_command_handler_sloc0_1_0 + 2)
      000F27 E4               [12] 3192 	clr	a
      000F28 F5*2A            [12] 3193 	mov	_enter_command_handler_sloc2_1_0,a
      000F2A F5*2B            [12] 3194 	mov	(_enter_command_handler_sloc2_1_0 + 1),a
      000F2C                       3195 00105$:
      000F2C C3               [12] 3196 	clr	c
      000F2D E5*2A            [12] 3197 	mov	a,_enter_command_handler_sloc2_1_0
      000F2F 94 10            [12] 3198 	subb	a,#0x10
      000F31 E5*2B            [12] 3199 	mov	a,(_enter_command_handler_sloc2_1_0 + 1)
      000F33 64 80            [12] 3200 	xrl	a,#0x80
      000F35 94 80            [12] 3201 	subb	a,#0x80
      000F37 50 55            [24] 3202 	jnc	00109$
                                   3203 ;	src/main.c:366: printf(" %02hhX", (unsigned char) *(address+j));
      000F39 C0 00            [24] 3204 	push	ar0
      000F3B C0 01            [24] 3205 	push	ar1
      000F3D E5*2A            [12] 3206 	mov	a,_enter_command_handler_sloc2_1_0
      000F3F 2B               [12] 3207 	add	a,r3
      000F40 F8               [12] 3208 	mov	r0,a
      000F41 E5*2B            [12] 3209 	mov	a,(_enter_command_handler_sloc2_1_0 + 1)
      000F43 3C               [12] 3210 	addc	a,r4
      000F44 F9               [12] 3211 	mov	r1,a
      000F45 8D 02            [24] 3212 	mov	ar2,r5
      000F47 88 82            [24] 3213 	mov	dpl,r0
      000F49 89 83            [24] 3214 	mov	dph,r1
      000F4B 8A F0            [24] 3215 	mov	b,r2
      000F4D 12r00r00         [24] 3216 	lcall	__gptrget
      000F50 F8               [12] 3217 	mov	r0,a
      000F51 7A 00            [12] 3218 	mov	r2,#0x00
      000F53 C0 05            [24] 3219 	push	ar5
      000F55 C0 04            [24] 3220 	push	ar4
      000F57 C0 03            [24] 3221 	push	ar3
      000F59 C0 01            [24] 3222 	push	ar1
      000F5B C0 00            [24] 3223 	push	ar0
      000F5D C0 00            [24] 3224 	push	ar0
      000F5F C0 02            [24] 3225 	push	ar2
      000F61 74r70            [12] 3226 	mov	a,#___str_20
      000F63 C0 E0            [24] 3227 	push	acc
      000F65 74s02            [12] 3228 	mov	a,#(___str_20 >> 8)
      000F67 C0 E0            [24] 3229 	push	acc
      000F69 74 80            [12] 3230 	mov	a,#0x80
      000F6B C0 E0            [24] 3231 	push	acc
      000F6D 12r00r00         [24] 3232 	lcall	_printf
      000F70 E5 81            [12] 3233 	mov	a,sp
      000F72 24 FB            [12] 3234 	add	a,#0xfb
      000F74 F5 81            [12] 3235 	mov	sp,a
      000F76 D0 00            [24] 3236 	pop	ar0
      000F78 D0 01            [24] 3237 	pop	ar1
      000F7A D0 03            [24] 3238 	pop	ar3
      000F7C D0 04            [24] 3239 	pop	ar4
      000F7E D0 05            [24] 3240 	pop	ar5
                                   3241 ;	src/main.c:364: for(int j = 0; j < 16; j++)
      000F80 05*2A            [12] 3242 	inc	_enter_command_handler_sloc2_1_0
      000F82 E4               [12] 3243 	clr	a
      000F83 B5*2A 02         [24] 3244 	cjne	a,_enter_command_handler_sloc2_1_0,00145$
      000F86 05*2B            [12] 3245 	inc	(_enter_command_handler_sloc2_1_0 + 1)
      000F88                       3246 00145$:
      000F88 D0 01            [24] 3247 	pop	ar1
      000F8A D0 00            [24] 3248 	pop	ar0
      000F8C 80 9E            [24] 3249 	sjmp	00105$
      000F8E                       3250 00109$:
                                   3251 ;	src/main.c:361: for(char *address = static_buffers[i].buffer; address < (static_buffers[i].buffer + static_buffers[i].size); address += 16)
      000F8E 74 10            [12] 3252 	mov	a,#0x10
      000F90 25*25            [12] 3253 	add	a,_enter_command_handler_sloc0_1_0
      000F92 F5*25            [12] 3254 	mov	_enter_command_handler_sloc0_1_0,a
      000F94 E4               [12] 3255 	clr	a
      000F95 35*26            [12] 3256 	addc	a,(_enter_command_handler_sloc0_1_0 + 1)
      000F97 F5*26            [12] 3257 	mov	(_enter_command_handler_sloc0_1_0 + 1),a
      000F99 02r0ErB0         [24] 3258 	ljmp	00108$
      000F9C                       3259 00102$:
                                   3260 ;	src/main.c:369: printf("\r\n");
      000F9C C0 01            [24] 3261 	push	ar1
      000F9E C0 00            [24] 3262 	push	ar0
      000FA0 74rA6            [12] 3263 	mov	a,#___str_11
      000FA2 C0 E0            [24] 3264 	push	acc
      000FA4 74s01            [12] 3265 	mov	a,#(___str_11 >> 8)
      000FA6 C0 E0            [24] 3266 	push	acc
      000FA8 74 80            [12] 3267 	mov	a,#0x80
      000FAA C0 E0            [24] 3268 	push	acc
      000FAC 12r00r00         [24] 3269 	lcall	_printf
      000FAF 15 81            [12] 3270 	dec	sp
      000FB1 15 81            [12] 3271 	dec	sp
      000FB3 15 81            [12] 3272 	dec	sp
      000FB5 D0 00            [24] 3273 	pop	ar0
      000FB7 D0 01            [24] 3274 	pop	ar1
                                   3275 ;	src/main.c:357: for(int i = 0; i < 2; i++)
      000FB9 74 01            [12] 3276 	mov	a,#0x01
      000FBB 28               [12] 3277 	add	a,r0
      000FBC FE               [12] 3278 	mov	r6,a
      000FBD E4               [12] 3279 	clr	a
      000FBE 39               [12] 3280 	addc	a,r1
      000FBF FF               [12] 3281 	mov	r7,a
                                   3282 ;	src/main.c:371: }
      000FC0 02r0Er23         [24] 3283 	ljmp	00111$
                                   3284 ;------------------------------------------------------------
                                   3285 ;Allocation info for local variables in function 'percent_command_handler'
                                   3286 ;------------------------------------------------------------
                                   3287 ;sloc0                     Allocated with name '_percent_command_handler_sloc0_1_0'
                                   3288 ;i                         Allocated with name '_percent_command_handler_i_131072_148'
                                   3289 ;curr                      Allocated with name '_percent_command_handler_curr_65537_151'
                                   3290 ;------------------------------------------------------------
                                   3291 ;	src/main.c:373: void percent_command_handler()
                                   3292 ;	-----------------------------------------
                                   3293 ;	 function percent_command_handler
                                   3294 ;	-----------------------------------------
      000FC3                       3295 _percent_command_handler:
                                   3296 ;	src/main.c:375: command_header("Clear Buffers");
      000FC3 90r02r78         [24] 3297 	mov	dptr,#___str_21
      000FC6 75 F0 80         [24] 3298 	mov	b,#0x80
      000FC9 12r08r74         [24] 3299 	lcall	_command_header
                                   3300 ;	src/main.c:376: for(int i = 0; i < BUFFER_ALWAYS_HELD_COUNT; i++)
      000FCC 7E 00            [12] 3301 	mov	r6,#0x00
      000FCE 7F 00            [12] 3302 	mov	r7,#0x00
      000FD0                       3303 00107$:
      000FD0 C3               [12] 3304 	clr	c
      000FD1 EE               [12] 3305 	mov	a,r6
      000FD2 94 02            [12] 3306 	subb	a,#0x02
      000FD4 EF               [12] 3307 	mov	a,r7
      000FD5 64 80            [12] 3308 	xrl	a,#0x80
      000FD7 94 80            [12] 3309 	subb	a,#0x80
      000FD9 40 03            [24] 3310 	jc	00128$
      000FDB 02r10r6F         [24] 3311 	ljmp	00103$
      000FDE                       3312 00128$:
                                   3313 ;	src/main.c:378: if (static_buffers[i].buffer != NULL) 
      000FDE 90r00r00         [24] 3314 	mov	dptr,#__mulint_PARM_2
      000FE1 EE               [12] 3315 	mov	a,r6
      000FE2 F0               [24] 3316 	movx	@dptr,a
      000FE3 EF               [12] 3317 	mov	a,r7
      000FE4 A3               [24] 3318 	inc	dptr
      000FE5 F0               [24] 3319 	movx	@dptr,a
      000FE6 90 00 0B         [24] 3320 	mov	dptr,#0x000b
      000FE9 C0 07            [24] 3321 	push	ar7
      000FEB C0 06            [24] 3322 	push	ar6
      000FED 12r00r00         [24] 3323 	lcall	__mulint
      000FF0 AC 82            [24] 3324 	mov	r4,dpl
      000FF2 AD 83            [24] 3325 	mov	r5,dph
      000FF4 D0 06            [24] 3326 	pop	ar6
      000FF6 D0 07            [24] 3327 	pop	ar7
      000FF8 EC               [12] 3328 	mov	a,r4
      000FF9 24r00            [12] 3329 	add	a,#_static_buffers
      000FFB F5 82            [12] 3330 	mov	dpl,a
      000FFD ED               [12] 3331 	mov	a,r5
      000FFE 34s00            [12] 3332 	addc	a,#(_static_buffers >> 8)
      001000 F5 83            [12] 3333 	mov	dph,a
      001002 E0               [24] 3334 	movx	a,@dptr
      001003 FA               [12] 3335 	mov	r2,a
      001004 A3               [24] 3336 	inc	dptr
      001005 E0               [24] 3337 	movx	a,@dptr
      001006 FB               [12] 3338 	mov	r3,a
      001007 4A               [12] 3339 	orl	a,r2
      001008 60 5D            [24] 3340 	jz	00108$
                                   3341 ;	src/main.c:380: memset(static_buffers[i].buffer, 0x00, static_buffers[i].size);
      00100A C0 06            [24] 3342 	push	ar6
      00100C C0 07            [24] 3343 	push	ar7
      00100E 8B 01            [24] 3344 	mov	ar1,r3
      001010 7B 00            [12] 3345 	mov	r3,#0x00
      001012 EC               [12] 3346 	mov	a,r4
      001013 24r00            [12] 3347 	add	a,#_static_buffers
      001015 FC               [12] 3348 	mov	r4,a
      001016 ED               [12] 3349 	mov	a,r5
      001017 34s00            [12] 3350 	addc	a,#(_static_buffers >> 8)
      001019 FD               [12] 3351 	mov	r5,a
      00101A 8C 82            [24] 3352 	mov	dpl,r4
      00101C 8D 83            [24] 3353 	mov	dph,r5
      00101E A3               [24] 3354 	inc	dptr
      00101F A3               [24] 3355 	inc	dptr
      001020 A3               [24] 3356 	inc	dptr
      001021 A3               [24] 3357 	inc	dptr
      001022 E0               [24] 3358 	movx	a,@dptr
      001023 F8               [12] 3359 	mov	r0,a
      001024 A3               [24] 3360 	inc	dptr
      001025 E0               [24] 3361 	movx	a,@dptr
      001026 FF               [12] 3362 	mov	r7,a
      001027 90r00r00         [24] 3363 	mov	dptr,#_memset_PARM_2
      00102A E4               [12] 3364 	clr	a
      00102B F0               [24] 3365 	movx	@dptr,a
      00102C 90r00r00         [24] 3366 	mov	dptr,#_memset_PARM_3
      00102F E8               [12] 3367 	mov	a,r0
      001030 F0               [24] 3368 	movx	@dptr,a
      001031 EF               [12] 3369 	mov	a,r7
      001032 A3               [24] 3370 	inc	dptr
      001033 F0               [24] 3371 	movx	@dptr,a
      001034 8A 82            [24] 3372 	mov	dpl,r2
      001036 89 83            [24] 3373 	mov	dph,r1
      001038 8B F0            [24] 3374 	mov	b,r3
      00103A C0 07            [24] 3375 	push	ar7
      00103C C0 06            [24] 3376 	push	ar6
      00103E C0 05            [24] 3377 	push	ar5
      001040 C0 04            [24] 3378 	push	ar4
      001042 12r00r00         [24] 3379 	lcall	_memset
      001045 D0 04            [24] 3380 	pop	ar4
      001047 D0 05            [24] 3381 	pop	ar5
      001049 D0 06            [24] 3382 	pop	ar6
      00104B D0 07            [24] 3383 	pop	ar7
                                   3384 ;	src/main.c:381: static_buffers[i].curr_available_char = 0;
      00104D 74 06            [12] 3385 	mov	a,#0x06
      00104F 2C               [12] 3386 	add	a,r4
      001050 F5 82            [12] 3387 	mov	dpl,a
      001052 E4               [12] 3388 	clr	a
      001053 3D               [12] 3389 	addc	a,r5
      001054 F5 83            [12] 3390 	mov	dph,a
      001056 E4               [12] 3391 	clr	a
      001057 F0               [24] 3392 	movx	@dptr,a
      001058 A3               [24] 3393 	inc	dptr
      001059 F0               [24] 3394 	movx	@dptr,a
                                   3395 ;	src/main.c:382: static_buffers[i].alphabet_chars = 0; 
      00105A 8C 82            [24] 3396 	mov	dpl,r4
      00105C 8D 83            [24] 3397 	mov	dph,r5
      00105E A3               [24] 3398 	inc	dptr
      00105F A3               [24] 3399 	inc	dptr
      001060 F0               [24] 3400 	movx	@dptr,a
      001061 A3               [24] 3401 	inc	dptr
      001062 F0               [24] 3402 	movx	@dptr,a
                                   3403 ;	src/main.c:391: curr->alphabet_chars = 0; 
      001063 D0 07            [24] 3404 	pop	ar7
      001065 D0 06            [24] 3405 	pop	ar6
                                   3406 ;	src/main.c:382: static_buffers[i].alphabet_chars = 0; 
      001067                       3407 00108$:
                                   3408 ;	src/main.c:376: for(int i = 0; i < BUFFER_ALWAYS_HELD_COUNT; i++)
      001067 0E               [12] 3409 	inc	r6
      001068 BE 00 01         [24] 3410 	cjne	r6,#0x00,00130$
      00106B 0F               [12] 3411 	inc	r7
      00106C                       3412 00130$:
      00106C 02r0FrD0         [24] 3413 	ljmp	00107$
      00106F                       3414 00103$:
                                   3415 ;	src/main.c:386: buffer_t *curr = dynamic_buffers_list.head;
      00106F 90r00r00         [24] 3416 	mov	dptr,#_dynamic_buffers_list
      001072 E0               [24] 3417 	movx	a,@dptr
      001073 FD               [12] 3418 	mov	r5,a
      001074 A3               [24] 3419 	inc	dptr
      001075 E0               [24] 3420 	movx	a,@dptr
      001076 FE               [12] 3421 	mov	r6,a
      001077 A3               [24] 3422 	inc	dptr
      001078 E0               [24] 3423 	movx	a,@dptr
      001079 FF               [12] 3424 	mov	r7,a
                                   3425 ;	src/main.c:387: if (curr != NULL)
      00107A ED               [12] 3426 	mov	a,r5
      00107B 4E               [12] 3427 	orl	a,r6
      00107C 70 01            [24] 3428 	jnz	00131$
      00107E 22               [24] 3429 	ret
      00107F                       3430 00131$:
                                   3431 ;	src/main.c:389: memset(curr->buffer, 0x00, curr->size);
      00107F 8D 82            [24] 3432 	mov	dpl,r5
      001081 8E 83            [24] 3433 	mov	dph,r6
      001083 8F F0            [24] 3434 	mov	b,r7
      001085 12r00r00         [24] 3435 	lcall	__gptrget
      001088 FB               [12] 3436 	mov	r3,a
      001089 A3               [24] 3437 	inc	dptr
      00108A 12r00r00         [24] 3438 	lcall	__gptrget
      00108D FC               [12] 3439 	mov	r4,a
      00108E 8B*2E            [24] 3440 	mov	_percent_command_handler_sloc0_1_0,r3
      001090 8C*2F            [24] 3441 	mov	(_percent_command_handler_sloc0_1_0 + 1),r4
      001092 75*30 00         [24] 3442 	mov	(_percent_command_handler_sloc0_1_0 + 2),#0x00
      001095 74 04            [12] 3443 	mov	a,#0x04
      001097 2D               [12] 3444 	add	a,r5
      001098 F8               [12] 3445 	mov	r0,a
      001099 E4               [12] 3446 	clr	a
      00109A 3E               [12] 3447 	addc	a,r6
      00109B F9               [12] 3448 	mov	r1,a
      00109C 8F 04            [24] 3449 	mov	ar4,r7
      00109E 88 82            [24] 3450 	mov	dpl,r0
      0010A0 89 83            [24] 3451 	mov	dph,r1
      0010A2 8C F0            [24] 3452 	mov	b,r4
      0010A4 12r00r00         [24] 3453 	lcall	__gptrget
      0010A7 F8               [12] 3454 	mov	r0,a
      0010A8 A3               [24] 3455 	inc	dptr
      0010A9 12r00r00         [24] 3456 	lcall	__gptrget
      0010AC F9               [12] 3457 	mov	r1,a
      0010AD 90r00r00         [24] 3458 	mov	dptr,#_memset_PARM_2
      0010B0 E4               [12] 3459 	clr	a
      0010B1 F0               [24] 3460 	movx	@dptr,a
      0010B2 90r00r00         [24] 3461 	mov	dptr,#_memset_PARM_3
      0010B5 E8               [12] 3462 	mov	a,r0
      0010B6 F0               [24] 3463 	movx	@dptr,a
      0010B7 E9               [12] 3464 	mov	a,r1
      0010B8 A3               [24] 3465 	inc	dptr
      0010B9 F0               [24] 3466 	movx	@dptr,a
      0010BA 85*2E 82         [24] 3467 	mov	dpl,_percent_command_handler_sloc0_1_0
      0010BD 85*2F 83         [24] 3468 	mov	dph,(_percent_command_handler_sloc0_1_0 + 1)
      0010C0 85*30 F0         [24] 3469 	mov	b,(_percent_command_handler_sloc0_1_0 + 2)
      0010C3 C0 07            [24] 3470 	push	ar7
      0010C5 C0 06            [24] 3471 	push	ar6
      0010C7 C0 05            [24] 3472 	push	ar5
      0010C9 12r00r00         [24] 3473 	lcall	_memset
      0010CC D0 05            [24] 3474 	pop	ar5
      0010CE D0 06            [24] 3475 	pop	ar6
      0010D0 D0 07            [24] 3476 	pop	ar7
                                   3477 ;	src/main.c:390: curr->curr_available_char = 0;
      0010D2 74 06            [12] 3478 	mov	a,#0x06
      0010D4 2D               [12] 3479 	add	a,r5
      0010D5 FA               [12] 3480 	mov	r2,a
      0010D6 E4               [12] 3481 	clr	a
      0010D7 3E               [12] 3482 	addc	a,r6
      0010D8 FB               [12] 3483 	mov	r3,a
      0010D9 8F 04            [24] 3484 	mov	ar4,r7
      0010DB 8A 82            [24] 3485 	mov	dpl,r2
      0010DD 8B 83            [24] 3486 	mov	dph,r3
      0010DF 8C F0            [24] 3487 	mov	b,r4
      0010E1 E4               [12] 3488 	clr	a
      0010E2 12r00r00         [24] 3489 	lcall	__gptrput
      0010E5 A3               [24] 3490 	inc	dptr
      0010E6 12r00r00         [24] 3491 	lcall	__gptrput
                                   3492 ;	src/main.c:391: curr->alphabet_chars = 0; 
      0010E9 74 02            [12] 3493 	mov	a,#0x02
      0010EB 2D               [12] 3494 	add	a,r5
      0010EC FD               [12] 3495 	mov	r5,a
      0010ED E4               [12] 3496 	clr	a
      0010EE 3E               [12] 3497 	addc	a,r6
      0010EF FE               [12] 3498 	mov	r6,a
      0010F0 8D 82            [24] 3499 	mov	dpl,r5
      0010F2 8E 83            [24] 3500 	mov	dph,r6
      0010F4 8F F0            [24] 3501 	mov	b,r7
      0010F6 E4               [12] 3502 	clr	a
      0010F7 12r00r00         [24] 3503 	lcall	__gptrput
      0010FA A3               [24] 3504 	inc	dptr
                                   3505 ;	src/main.c:393: }
      0010FB 02r00r00         [24] 3506 	ljmp	__gptrput
                                   3507 ;------------------------------------------------------------
                                   3508 ;Allocation info for local variables in function 'dollar_sign_command_handler'
                                   3509 ;------------------------------------------------------------
                                   3510 ;sloc0                     Allocated with name '_dollar_sign_command_handler_sloc0_1_0'
                                   3511 ;buffer_3                  Allocated with name '_dollar_sign_command_handler_buffer_3_65537_155'
                                   3512 ;------------------------------------------------------------
                                   3513 ;	src/main.c:395: void dollar_sign_command_handler()
                                   3514 ;	-----------------------------------------
                                   3515 ;	 function dollar_sign_command_handler
                                   3516 ;	-----------------------------------------
      0010FE                       3517 _dollar_sign_command_handler:
                                   3518 ;	src/main.c:397: P1_0 = ON;
                                   3519 ;	assignBit
      0010FE D2 90            [12] 3520 	setb	_P1_0
                                   3521 ;	src/main.c:398: if (dynamic_buffers_list.head == NULL
      001100 90r00r00         [24] 3522 	mov	dptr,#_dynamic_buffers_list
      001103 E0               [24] 3523 	movx	a,@dptr
      001104 FD               [12] 3524 	mov	r5,a
      001105 A3               [24] 3525 	inc	dptr
      001106 E0               [24] 3526 	movx	a,@dptr
      001107 FE               [12] 3527 	mov	r6,a
      001108 A3               [24] 3528 	inc	dptr
      001109 E0               [24] 3529 	movx	a,@dptr
      00110A FF               [12] 3530 	mov	r7,a
      00110B ED               [12] 3531 	mov	a,r5
      00110C 4E               [12] 3532 	orl	a,r6
      00110D 60 1F            [24] 3533 	jz	00101$
                                   3534 ;	src/main.c:399: || dynamic_buffers_list.head->next == NULL) 
      00110F 74 08            [12] 3535 	mov	a,#0x08
      001111 2D               [12] 3536 	add	a,r5
      001112 FD               [12] 3537 	mov	r5,a
      001113 E4               [12] 3538 	clr	a
      001114 3E               [12] 3539 	addc	a,r6
      001115 FE               [12] 3540 	mov	r6,a
      001116 8D 82            [24] 3541 	mov	dpl,r5
      001118 8E 83            [24] 3542 	mov	dph,r6
      00111A 8F F0            [24] 3543 	mov	b,r7
      00111C 12r00r00         [24] 3544 	lcall	__gptrget
      00111F FD               [12] 3545 	mov	r5,a
      001120 A3               [24] 3546 	inc	dptr
      001121 12r00r00         [24] 3547 	lcall	__gptrget
      001124 FE               [12] 3548 	mov	r6,a
      001125 A3               [24] 3549 	inc	dptr
      001126 12r00r00         [24] 3550 	lcall	__gptrget
      001129 FF               [12] 3551 	mov	r7,a
      00112A ED               [12] 3552 	mov	a,r5
      00112B 4E               [12] 3553 	orl	a,r6
      00112C 70 03            [24] 3554 	jnz	00102$
      00112E                       3555 00101$:
                                   3556 ;	src/main.c:401: P1_0 = OFF;
                                   3557 ;	assignBit
      00112E C2 90            [12] 3558 	clr	_P1_0
                                   3559 ;	src/main.c:402: return; 
      001130 22               [24] 3560 	ret
      001131                       3561 00102$:
                                   3562 ;	src/main.c:405: memcpy(buffer_3->buffer, static_buffers[0].buffer, static_buffers[0].size);
      001131 8D 82            [24] 3563 	mov	dpl,r5
      001133 8E 83            [24] 3564 	mov	dph,r6
      001135 8F F0            [24] 3565 	mov	b,r7
      001137 12r00r00         [24] 3566 	lcall	__gptrget
      00113A FB               [12] 3567 	mov	r3,a
      00113B A3               [24] 3568 	inc	dptr
      00113C 12r00r00         [24] 3569 	lcall	__gptrget
      00113F FC               [12] 3570 	mov	r4,a
      001140 8B*31            [24] 3571 	mov	_dollar_sign_command_handler_sloc0_1_0,r3
      001142 8C*32            [24] 3572 	mov	(_dollar_sign_command_handler_sloc0_1_0 + 1),r4
      001144 75*33 00         [24] 3573 	mov	(_dollar_sign_command_handler_sloc0_1_0 + 2),#0x00
      001147 90r00r00         [24] 3574 	mov	dptr,#_static_buffers
      00114A E0               [24] 3575 	movx	a,@dptr
      00114B F8               [12] 3576 	mov	r0,a
      00114C A3               [24] 3577 	inc	dptr
      00114D E0               [24] 3578 	movx	a,@dptr
      00114E F9               [12] 3579 	mov	r1,a
      00114F 7C 00            [12] 3580 	mov	r4,#0x00
      001151 90r00r04         [24] 3581 	mov	dptr,#(_static_buffers + 0x0004)
      001154 E0               [24] 3582 	movx	a,@dptr
      001155 FA               [12] 3583 	mov	r2,a
      001156 A3               [24] 3584 	inc	dptr
      001157 E0               [24] 3585 	movx	a,@dptr
      001158 FB               [12] 3586 	mov	r3,a
      001159 90r00r00         [24] 3587 	mov	dptr,#___memcpy_PARM_2
      00115C E8               [12] 3588 	mov	a,r0
      00115D F0               [24] 3589 	movx	@dptr,a
      00115E E9               [12] 3590 	mov	a,r1
      00115F A3               [24] 3591 	inc	dptr
      001160 F0               [24] 3592 	movx	@dptr,a
      001161 EC               [12] 3593 	mov	a,r4
      001162 A3               [24] 3594 	inc	dptr
      001163 F0               [24] 3595 	movx	@dptr,a
      001164 90r00r00         [24] 3596 	mov	dptr,#___memcpy_PARM_3
      001167 EA               [12] 3597 	mov	a,r2
      001168 F0               [24] 3598 	movx	@dptr,a
      001169 EB               [12] 3599 	mov	a,r3
      00116A A3               [24] 3600 	inc	dptr
      00116B F0               [24] 3601 	movx	@dptr,a
      00116C 85*31 82         [24] 3602 	mov	dpl,_dollar_sign_command_handler_sloc0_1_0
      00116F 85*32 83         [24] 3603 	mov	dph,(_dollar_sign_command_handler_sloc0_1_0 + 1)
      001172 85*33 F0         [24] 3604 	mov	b,(_dollar_sign_command_handler_sloc0_1_0 + 2)
      001175 C0 07            [24] 3605 	push	ar7
      001177 C0 06            [24] 3606 	push	ar6
      001179 C0 05            [24] 3607 	push	ar5
      00117B 12r00r00         [24] 3608 	lcall	___memcpy
      00117E D0 05            [24] 3609 	pop	ar5
      001180 D0 06            [24] 3610 	pop	ar6
      001182 D0 07            [24] 3611 	pop	ar7
                                   3612 ;	src/main.c:406: buffer_3->alphabet_chars = static_buffers[0].alphabet_chars;
      001184 74 02            [12] 3613 	mov	a,#0x02
      001186 2D               [12] 3614 	add	a,r5
      001187 FA               [12] 3615 	mov	r2,a
      001188 E4               [12] 3616 	clr	a
      001189 3E               [12] 3617 	addc	a,r6
      00118A FB               [12] 3618 	mov	r3,a
      00118B 8F 04            [24] 3619 	mov	ar4,r7
      00118D 90r00r02         [24] 3620 	mov	dptr,#(_static_buffers + 0x0002)
      001190 E0               [24] 3621 	movx	a,@dptr
      001191 F8               [12] 3622 	mov	r0,a
      001192 A3               [24] 3623 	inc	dptr
      001193 E0               [24] 3624 	movx	a,@dptr
      001194 F9               [12] 3625 	mov	r1,a
      001195 8A 82            [24] 3626 	mov	dpl,r2
      001197 8B 83            [24] 3627 	mov	dph,r3
      001199 8C F0            [24] 3628 	mov	b,r4
      00119B E8               [12] 3629 	mov	a,r0
      00119C 12r00r00         [24] 3630 	lcall	__gptrput
      00119F A3               [24] 3631 	inc	dptr
      0011A0 E9               [12] 3632 	mov	a,r1
      0011A1 12r00r00         [24] 3633 	lcall	__gptrput
                                   3634 ;	src/main.c:407: buffer_3->curr_available_char = static_buffers[0].curr_available_char;
      0011A4 74 06            [12] 3635 	mov	a,#0x06
      0011A6 2D               [12] 3636 	add	a,r5
      0011A7 FD               [12] 3637 	mov	r5,a
      0011A8 E4               [12] 3638 	clr	a
      0011A9 3E               [12] 3639 	addc	a,r6
      0011AA FE               [12] 3640 	mov	r6,a
      0011AB 90r00r06         [24] 3641 	mov	dptr,#(_static_buffers + 0x0006)
      0011AE E0               [24] 3642 	movx	a,@dptr
      0011AF FB               [12] 3643 	mov	r3,a
      0011B0 A3               [24] 3644 	inc	dptr
      0011B1 E0               [24] 3645 	movx	a,@dptr
      0011B2 FC               [12] 3646 	mov	r4,a
      0011B3 8D 82            [24] 3647 	mov	dpl,r5
      0011B5 8E 83            [24] 3648 	mov	dph,r6
      0011B7 8F F0            [24] 3649 	mov	b,r7
      0011B9 EB               [12] 3650 	mov	a,r3
      0011BA 12r00r00         [24] 3651 	lcall	__gptrput
      0011BD A3               [24] 3652 	inc	dptr
      0011BE EC               [12] 3653 	mov	a,r4
      0011BF 12r00r00         [24] 3654 	lcall	__gptrput
                                   3655 ;	src/main.c:408: P1_0 = OFF; 
                                   3656 ;	assignBit
      0011C2 C2 90            [12] 3657 	clr	_P1_0
                                   3658 ;	src/main.c:409: }
      0011C4 22               [24] 3659 	ret
                                   3660 ;------------------------------------------------------------
                                   3661 ;Allocation info for local variables in function 'hashtag_command_handler'
                                   3662 ;------------------------------------------------------------
                                   3663 ;buffer_3                  Allocated with name '_hashtag_command_handler_buffer_3_65537_158'
                                   3664 ;i                         Allocated with name '_hashtag_command_handler_i_131073_159'
                                   3665 ;c                         Allocated with name '_hashtag_command_handler_c_196609_160'
                                   3666 ;------------------------------------------------------------
                                   3667 ;	src/main.c:411: void hashtag_command_handler()
                                   3668 ;	-----------------------------------------
                                   3669 ;	 function hashtag_command_handler
                                   3670 ;	-----------------------------------------
      0011C5                       3671 _hashtag_command_handler:
                                   3672 ;	src/main.c:413: P1_0 = ON;
                                   3673 ;	assignBit
      0011C5 D2 90            [12] 3674 	setb	_P1_0
                                   3675 ;	src/main.c:414: if (dynamic_buffers_list.head == NULL
      0011C7 90r00r00         [24] 3676 	mov	dptr,#_dynamic_buffers_list
      0011CA E0               [24] 3677 	movx	a,@dptr
      0011CB FD               [12] 3678 	mov	r5,a
      0011CC A3               [24] 3679 	inc	dptr
      0011CD E0               [24] 3680 	movx	a,@dptr
      0011CE FE               [12] 3681 	mov	r6,a
      0011CF A3               [24] 3682 	inc	dptr
      0011D0 E0               [24] 3683 	movx	a,@dptr
      0011D1 FF               [12] 3684 	mov	r7,a
      0011D2 ED               [12] 3685 	mov	a,r5
      0011D3 4E               [12] 3686 	orl	a,r6
      0011D4 60 1F            [24] 3687 	jz	00101$
                                   3688 ;	src/main.c:415: || dynamic_buffers_list.head->next == NULL) 
      0011D6 74 08            [12] 3689 	mov	a,#0x08
      0011D8 2D               [12] 3690 	add	a,r5
      0011D9 FD               [12] 3691 	mov	r5,a
      0011DA E4               [12] 3692 	clr	a
      0011DB 3E               [12] 3693 	addc	a,r6
      0011DC FE               [12] 3694 	mov	r6,a
      0011DD 8D 82            [24] 3695 	mov	dpl,r5
      0011DF 8E 83            [24] 3696 	mov	dph,r6
      0011E1 8F F0            [24] 3697 	mov	b,r7
      0011E3 12r00r00         [24] 3698 	lcall	__gptrget
      0011E6 FD               [12] 3699 	mov	r5,a
      0011E7 A3               [24] 3700 	inc	dptr
      0011E8 12r00r00         [24] 3701 	lcall	__gptrget
      0011EB FE               [12] 3702 	mov	r6,a
      0011EC A3               [24] 3703 	inc	dptr
      0011ED 12r00r00         [24] 3704 	lcall	__gptrget
      0011F0 FF               [12] 3705 	mov	r7,a
      0011F1 ED               [12] 3706 	mov	a,r5
      0011F2 4E               [12] 3707 	orl	a,r6
      0011F3 70 03            [24] 3708 	jnz	00102$
      0011F5                       3709 00101$:
                                   3710 ;	src/main.c:417: P1_0 = OFF;
                                   3711 ;	assignBit
      0011F5 C2 90            [12] 3712 	clr	_P1_0
                                   3713 ;	src/main.c:418: return; 
      0011F7 22               [24] 3714 	ret
      0011F8                       3715 00102$:
                                   3716 ;	src/main.c:421: buffer_t *buffer_3 = dynamic_buffers_list.head->next;
      0011F8 8D 02            [24] 3717 	mov	ar2,r5
      0011FA 8E 03            [24] 3718 	mov	ar3,r6
      0011FC 8F 04            [24] 3719 	mov	ar4,r7
                                   3720 ;	src/main.c:422: for(size_t i = 0; i < buffer_3->curr_available_char; i++)
      0011FE 74 06            [12] 3721 	mov	a,#0x06
      001200 2D               [12] 3722 	add	a,r5
      001201 FD               [12] 3723 	mov	r5,a
      001202 E4               [12] 3724 	clr	a
      001203 3E               [12] 3725 	addc	a,r6
      001204 FE               [12] 3726 	mov	r6,a
      001205 78 00            [12] 3727 	mov	r0,#0x00
      001207 79 00            [12] 3728 	mov	r1,#0x00
      001209                       3729 00109$:
      001209 C0 02            [24] 3730 	push	ar2
      00120B C0 03            [24] 3731 	push	ar3
      00120D C0 04            [24] 3732 	push	ar4
      00120F 8D 82            [24] 3733 	mov	dpl,r5
      001211 8E 83            [24] 3734 	mov	dph,r6
      001213 8F F0            [24] 3735 	mov	b,r7
      001215 12r00r00         [24] 3736 	lcall	__gptrget
      001218 FB               [12] 3737 	mov	r3,a
      001219 A3               [24] 3738 	inc	dptr
      00121A 12r00r00         [24] 3739 	lcall	__gptrget
      00121D FC               [12] 3740 	mov	r4,a
      00121E C3               [12] 3741 	clr	c
      00121F E8               [12] 3742 	mov	a,r0
      001220 9B               [12] 3743 	subb	a,r3
      001221 E9               [12] 3744 	mov	a,r1
      001222 9C               [12] 3745 	subb	a,r4
      001223 D0 04            [24] 3746 	pop	ar4
      001225 D0 03            [24] 3747 	pop	ar3
      001227 D0 02            [24] 3748 	pop	ar2
      001229 50 6B            [24] 3749 	jnc	00107$
                                   3750 ;	src/main.c:424: register char c = buffer_3->buffer[i];
      00122B C0 05            [24] 3751 	push	ar5
      00122D C0 06            [24] 3752 	push	ar6
      00122F C0 07            [24] 3753 	push	ar7
      001231 8A 82            [24] 3754 	mov	dpl,r2
      001233 8B 83            [24] 3755 	mov	dph,r3
      001235 8C F0            [24] 3756 	mov	b,r4
      001237 12r00r00         [24] 3757 	lcall	__gptrget
      00123A FE               [12] 3758 	mov	r6,a
      00123B A3               [24] 3759 	inc	dptr
      00123C 12r00r00         [24] 3760 	lcall	__gptrget
      00123F FF               [12] 3761 	mov	r7,a
      001240 E8               [12] 3762 	mov	a,r0
      001241 2E               [12] 3763 	add	a,r6
      001242 F5 82            [12] 3764 	mov	dpl,a
      001244 E9               [12] 3765 	mov	a,r1
      001245 3F               [12] 3766 	addc	a,r7
      001246 F5 83            [12] 3767 	mov	dph,a
      001248 E0               [24] 3768 	movx	a,@dptr
      001249 F5*00            [12] 3769 	mov	_hashtag_command_handler_c_196609_160,a
                                   3770 ;	src/main.c:425: if (c <= 'Z' || c >= 'A')
      00124B C3               [12] 3771 	clr	c
      00124C 74 5A            [12] 3772 	mov	a,#0x5a
      00124E 95*00            [12] 3773 	subb	a,_hashtag_command_handler_c_196609_160
      001250 D0 07            [24] 3774 	pop	ar7
      001252 D0 06            [24] 3775 	pop	ar6
      001254 D0 05            [24] 3776 	pop	ar5
      001256 50 06            [24] 3777 	jnc	00104$
      001258 74 BF            [12] 3778 	mov	a,#0x100 - 0x41
      00125A 25*00            [12] 3779 	add	a,_hashtag_command_handler_c_196609_160
      00125C 50 30            [24] 3780 	jnc	00110$
      00125E                       3781 00104$:
                                   3782 ;	src/main.c:427: buffer_3->buffer[i] |= LOWER_CASE_MASK;
      00125E C0 05            [24] 3783 	push	ar5
      001260 C0 06            [24] 3784 	push	ar6
      001262 C0 07            [24] 3785 	push	ar7
      001264 8A 82            [24] 3786 	mov	dpl,r2
      001266 8B 83            [24] 3787 	mov	dph,r3
      001268 8C F0            [24] 3788 	mov	b,r4
      00126A 12r00r00         [24] 3789 	lcall	__gptrget
      00126D FE               [12] 3790 	mov	r6,a
      00126E A3               [24] 3791 	inc	dptr
      00126F 12r00r00         [24] 3792 	lcall	__gptrget
      001272 FF               [12] 3793 	mov	r7,a
      001273 E8               [12] 3794 	mov	a,r0
      001274 2E               [12] 3795 	add	a,r6
      001275 FE               [12] 3796 	mov	r6,a
      001276 E9               [12] 3797 	mov	a,r1
      001277 3F               [12] 3798 	addc	a,r7
      001278 FF               [12] 3799 	mov	r7,a
      001279 8E 82            [24] 3800 	mov	dpl,r6
      00127B 8F 83            [24] 3801 	mov	dph,r7
      00127D E0               [24] 3802 	movx	a,@dptr
      00127E FD               [12] 3803 	mov	r5,a
      00127F 43 05 20         [24] 3804 	orl	ar5,#0x20
      001282 8E 82            [24] 3805 	mov	dpl,r6
      001284 8F 83            [24] 3806 	mov	dph,r7
      001286 ED               [12] 3807 	mov	a,r5
      001287 F0               [24] 3808 	movx	@dptr,a
                                   3809 ;	src/main.c:430: P1_0 = OFF;
      001288 D0 07            [24] 3810 	pop	ar7
      00128A D0 06            [24] 3811 	pop	ar6
      00128C D0 05            [24] 3812 	pop	ar5
                                   3813 ;	src/main.c:427: buffer_3->buffer[i] |= LOWER_CASE_MASK;
      00128E                       3814 00110$:
                                   3815 ;	src/main.c:422: for(size_t i = 0; i < buffer_3->curr_available_char; i++)
      00128E 08               [12] 3816 	inc	r0
      00128F B8 00 01         [24] 3817 	cjne	r0,#0x00,00135$
      001292 09               [12] 3818 	inc	r1
      001293                       3819 00135$:
      001293 02r12r09         [24] 3820 	ljmp	00109$
      001296                       3821 00107$:
                                   3822 ;	src/main.c:430: P1_0 = OFF;
                                   3823 ;	assignBit
      001296 C2 90            [12] 3824 	clr	_P1_0
                                   3825 ;	src/main.c:431: }
      001298 22               [24] 3826 	ret
                                   3827 ;------------------------------------------------------------
                                   3828 ;Allocation info for local variables in function 'plus_command_handler'
                                   3829 ;------------------------------------------------------------
                                   3830 ;size                      Allocated with name '_plus_command_handler_size_65536_162'
                                   3831 ;new_buffer                Allocated with name '_plus_command_handler_new_buffer_65537_164'
                                   3832 ;------------------------------------------------------------
                                   3833 ;	src/main.c:434: void plus_command_handler() 
                                   3834 ;	-----------------------------------------
                                   3835 ;	 function plus_command_handler
                                   3836 ;	-----------------------------------------
      001299                       3837 _plus_command_handler:
                                   3838 ;	src/main.c:437: while (true) {
      001299                       3839 00105$:
                                   3840 ;	src/main.c:438: printf("\r\nPlease enter a size for the new buffer, [200,600]: ");
      001299 74r86            [12] 3841 	mov	a,#___str_22
      00129B C0 E0            [24] 3842 	push	acc
      00129D 74s02            [12] 3843 	mov	a,#(___str_22 >> 8)
      00129F C0 E0            [24] 3844 	push	acc
      0012A1 74 80            [12] 3845 	mov	a,#0x80
      0012A3 C0 E0            [24] 3846 	push	acc
      0012A5 12r00r00         [24] 3847 	lcall	_printf
      0012A8 15 81            [12] 3848 	dec	sp
      0012AA 15 81            [12] 3849 	dec	sp
      0012AC 15 81            [12] 3850 	dec	sp
                                   3851 ;	src/main.c:439: get_string();
      0012AE 12r00r00         [24] 3852 	lcall	_get_string
                                   3853 ;	src/main.c:440: size = atoi(get_input_buffer());
      0012B1 12r00r00         [24] 3854 	lcall	_get_input_buffer
      0012B4 12r00r00         [24] 3855 	lcall	_atoi
      0012B7 AE 82            [24] 3856 	mov	r6,dpl
      0012B9 AF 83            [24] 3857 	mov	r7,dph
                                   3858 ;	src/main.c:441: if (size < MAX_USER_DETERMINED_BUFFER_SZ && size > MIN_USER_DETERMINED_BUFFER_SZ) break;
      0012BB C3               [12] 3859 	clr	c
      0012BC EE               [12] 3860 	mov	a,r6
      0012BD 94 58            [12] 3861 	subb	a,#0x58
      0012BF EF               [12] 3862 	mov	a,r7
      0012C0 64 80            [12] 3863 	xrl	a,#0x80
      0012C2 94 82            [12] 3864 	subb	a,#0x82
      0012C4 50 0F            [24] 3865 	jnc	00102$
      0012C6 C3               [12] 3866 	clr	c
      0012C7 74 C8            [12] 3867 	mov	a,#0xc8
      0012C9 9E               [12] 3868 	subb	a,r6
      0012CA 74 80            [12] 3869 	mov	a,#(0x00 ^ 0x80)
      0012CC 8F F0            [24] 3870 	mov	b,r7
      0012CE 63 F0 80         [24] 3871 	xrl	b,#0x80
      0012D1 95 F0            [12] 3872 	subb	a,b
      0012D3 40 17            [24] 3873 	jc	00106$
      0012D5                       3874 00102$:
                                   3875 ;	src/main.c:442: printf("\r\nBuffer size invalid!! Please try again");
      0012D5 74rBC            [12] 3876 	mov	a,#___str_23
      0012D7 C0 E0            [24] 3877 	push	acc
      0012D9 74s02            [12] 3878 	mov	a,#(___str_23 >> 8)
      0012DB C0 E0            [24] 3879 	push	acc
      0012DD 74 80            [12] 3880 	mov	a,#0x80
      0012DF C0 E0            [24] 3881 	push	acc
      0012E1 12r00r00         [24] 3882 	lcall	_printf
      0012E4 15 81            [12] 3883 	dec	sp
      0012E6 15 81            [12] 3884 	dec	sp
      0012E8 15 81            [12] 3885 	dec	sp
      0012EA 80 AD            [24] 3886 	sjmp	00105$
      0012EC                       3887 00106$:
                                   3888 ;	src/main.c:445: buffer_t *new_buffer = alloc_new_buffer((size_t) size);
      0012EC 8E 82            [24] 3889 	mov	dpl,r6
      0012EE 8F 83            [24] 3890 	mov	dph,r7
      0012F0 12r00rD9         [24] 3891 	lcall	_alloc_new_buffer
      0012F3 AD 82            [24] 3892 	mov	r5,dpl
      0012F5 AE 83            [24] 3893 	mov	r6,dph
      0012F7 AF F0            [24] 3894 	mov	r7,b
                                   3895 ;	src/main.c:447: if (new_buffer == NULL)
      0012F9 ED               [12] 3896 	mov	a,r5
      0012FA 4E               [12] 3897 	orl	a,r6
      0012FB 70 16            [24] 3898 	jnz	00108$
                                   3899 ;	src/main.c:449: printf("\r\n Allocation failed; able to allocate header but not buffer");
      0012FD 74rE5            [12] 3900 	mov	a,#___str_24
      0012FF C0 E0            [24] 3901 	push	acc
      001301 74s02            [12] 3902 	mov	a,#(___str_24 >> 8)
      001303 C0 E0            [24] 3903 	push	acc
      001305 74 80            [12] 3904 	mov	a,#0x80
      001307 C0 E0            [24] 3905 	push	acc
      001309 12r00r00         [24] 3906 	lcall	_printf
      00130C 15 81            [12] 3907 	dec	sp
      00130E 15 81            [12] 3908 	dec	sp
      001310 15 81            [12] 3909 	dec	sp
                                   3910 ;	src/main.c:450: return;
      001312 22               [24] 3911 	ret
      001313                       3912 00108$:
                                   3913 ;	src/main.c:453: append_to_buffer_list(&dynamic_buffers_list, new_buffer);
      001313 90r00r00         [24] 3914 	mov	dptr,#_append_to_buffer_list_PARM_2
      001316 ED               [12] 3915 	mov	a,r5
      001317 F0               [24] 3916 	movx	@dptr,a
      001318 EE               [12] 3917 	mov	a,r6
      001319 A3               [24] 3918 	inc	dptr
      00131A F0               [24] 3919 	movx	@dptr,a
      00131B EF               [12] 3920 	mov	a,r7
      00131C A3               [24] 3921 	inc	dptr
      00131D F0               [24] 3922 	movx	@dptr,a
      00131E 90r00r00         [24] 3923 	mov	dptr,#_dynamic_buffers_list
      001321 75 F0 00         [24] 3924 	mov	b,#0x00
      001324 12r00r00         [24] 3925 	lcall	_append_to_buffer_list
                                   3926 ;	src/main.c:455: printf("\r\n Allocation successful!! New buffer added");
      001327 74r22            [12] 3927 	mov	a,#___str_25
      001329 C0 E0            [24] 3928 	push	acc
      00132B 74s03            [12] 3929 	mov	a,#(___str_25 >> 8)
      00132D C0 E0            [24] 3930 	push	acc
      00132F 74 80            [12] 3931 	mov	a,#0x80
      001331 C0 E0            [24] 3932 	push	acc
      001333 12r00r00         [24] 3933 	lcall	_printf
      001336 15 81            [12] 3934 	dec	sp
      001338 15 81            [12] 3935 	dec	sp
      00133A 15 81            [12] 3936 	dec	sp
                                   3937 ;	src/main.c:457: }
      00133C 22               [24] 3938 	ret
                                   3939 ;------------------------------------------------------------
                                   3940 ;Allocation info for local variables in function 'minus_command_handler'
                                   3941 ;------------------------------------------------------------
                                   3942 ;buffer_num                Allocated with name '_minus_command_handler_buffer_num_65537_167'
                                   3943 ;freed                     Allocated with name '_minus_command_handler_freed_131073_170'
                                   3944 ;------------------------------------------------------------
                                   3945 ;	src/main.c:459: void minus_command_handler() 
                                   3946 ;	-----------------------------------------
                                   3947 ;	 function minus_command_handler
                                   3948 ;	-----------------------------------------
      00133D                       3949 _minus_command_handler:
                                   3950 ;	src/main.c:461: printf("\r\nPlease enter the number of the buffer you would like to free: ");
      00133D 74r4E            [12] 3951 	mov	a,#___str_26
      00133F C0 E0            [24] 3952 	push	acc
      001341 74s03            [12] 3953 	mov	a,#(___str_26 >> 8)
      001343 C0 E0            [24] 3954 	push	acc
      001345 74 80            [12] 3955 	mov	a,#0x80
      001347 C0 E0            [24] 3956 	push	acc
      001349 12r00r00         [24] 3957 	lcall	_printf
      00134C 15 81            [12] 3958 	dec	sp
      00134E 15 81            [12] 3959 	dec	sp
      001350 15 81            [12] 3960 	dec	sp
                                   3961 ;	src/main.c:462: get_string(); 
      001352 12r00r00         [24] 3962 	lcall	_get_string
                                   3963 ;	src/main.c:463: int buffer_num = atoi(get_input_buffer()); 
      001355 12r00r00         [24] 3964 	lcall	_get_input_buffer
      001358 12r00r00         [24] 3965 	lcall	_atoi
      00135B AE 82            [24] 3966 	mov	r6,dpl
                                   3967 ;	src/main.c:464: if (buffer_num < 0)
      00135D E5 83            [12] 3968 	mov	a,dph
      00135F FF               [12] 3969 	mov	r7,a
      001360 30 E7 16         [24] 3970 	jnb	acc.7,00108$
                                   3971 ;	src/main.c:466: printf("\r\n Invalid buffer number, negatives not valid");
      001363 74r8F            [12] 3972 	mov	a,#___str_27
      001365 C0 E0            [24] 3973 	push	acc
      001367 74s03            [12] 3974 	mov	a,#(___str_27 >> 8)
      001369 C0 E0            [24] 3975 	push	acc
      00136B 74 80            [12] 3976 	mov	a,#0x80
      00136D C0 E0            [24] 3977 	push	acc
      00136F 12r00r00         [24] 3978 	lcall	_printf
      001372 15 81            [12] 3979 	dec	sp
      001374 15 81            [12] 3980 	dec	sp
      001376 15 81            [12] 3981 	dec	sp
                                   3982 ;	src/main.c:467: return;
      001378 22               [24] 3983 	ret
      001379                       3984 00108$:
                                   3985 ;	src/main.c:469: else if (buffer_num <= 1) 
      001379 C3               [12] 3986 	clr	c
      00137A 74 01            [12] 3987 	mov	a,#0x01
      00137C 9E               [12] 3988 	subb	a,r6
      00137D 74 80            [12] 3989 	mov	a,#(0x00 ^ 0x80)
      00137F 8F F0            [24] 3990 	mov	b,r7
      001381 63 F0 80         [24] 3991 	xrl	b,#0x80
      001384 95 F0            [12] 3992 	subb	a,b
      001386 40 16            [24] 3993 	jc	00105$
                                   3994 ;	src/main.c:471: printf("\r\n Invalid buffer number, buffers 0 & 1 are protected");
      001388 74rBD            [12] 3995 	mov	a,#___str_28
      00138A C0 E0            [24] 3996 	push	acc
      00138C 74s03            [12] 3997 	mov	a,#(___str_28 >> 8)
      00138E C0 E0            [24] 3998 	push	acc
      001390 74 80            [12] 3999 	mov	a,#0x80
      001392 C0 E0            [24] 4000 	push	acc
      001394 12r00r00         [24] 4001 	lcall	_printf
      001397 15 81            [12] 4002 	dec	sp
      001399 15 81            [12] 4003 	dec	sp
      00139B 15 81            [12] 4004 	dec	sp
                                   4005 ;	src/main.c:472: return; 
      00139D 22               [24] 4006 	ret
      00139E                       4007 00105$:
                                   4008 ;	src/main.c:476: bool freed = remove_from_buffer_list(&dynamic_buffers_list, (size_t)(buffer_num-2));
      00139E EE               [12] 4009 	mov	a,r6
      00139F 24 FE            [12] 4010 	add	a,#0xfe
      0013A1 FE               [12] 4011 	mov	r6,a
      0013A2 EF               [12] 4012 	mov	a,r7
      0013A3 34 FF            [12] 4013 	addc	a,#0xff
      0013A5 FF               [12] 4014 	mov	r7,a
      0013A6 90r00r00         [24] 4015 	mov	dptr,#_remove_from_buffer_list_PARM_2
      0013A9 EE               [12] 4016 	mov	a,r6
      0013AA F0               [24] 4017 	movx	@dptr,a
      0013AB EF               [12] 4018 	mov	a,r7
      0013AC A3               [24] 4019 	inc	dptr
      0013AD F0               [24] 4020 	movx	@dptr,a
      0013AE 90r00r00         [24] 4021 	mov	dptr,#_dynamic_buffers_list
      0013B1 75 F0 00         [24] 4022 	mov	b,#0x00
      0013B4 12r00r00         [24] 4023 	lcall	_remove_from_buffer_list
      0013B7 E5 82            [12] 4024 	mov	a,dpl
                                   4025 ;	src/main.c:477: if (freed)
      0013B9 60 16            [24] 4026 	jz	00102$
                                   4027 ;	src/main.c:479: printf("\r\n Successfully removed buffer");
      0013BB 74rF3            [12] 4028 	mov	a,#___str_29
      0013BD C0 E0            [24] 4029 	push	acc
      0013BF 74s03            [12] 4030 	mov	a,#(___str_29 >> 8)
      0013C1 C0 E0            [24] 4031 	push	acc
      0013C3 74 80            [12] 4032 	mov	a,#0x80
      0013C5 C0 E0            [24] 4033 	push	acc
      0013C7 12r00r00         [24] 4034 	lcall	_printf
      0013CA 15 81            [12] 4035 	dec	sp
      0013CC 15 81            [12] 4036 	dec	sp
      0013CE 15 81            [12] 4037 	dec	sp
      0013D0 22               [24] 4038 	ret
      0013D1                       4039 00102$:
                                   4040 ;	src/main.c:483: printf("\r\n Failed to remove buffer, idx too big");
      0013D1 74r12            [12] 4041 	mov	a,#___str_30
      0013D3 C0 E0            [24] 4042 	push	acc
      0013D5 74s04            [12] 4043 	mov	a,#(___str_30 >> 8)
      0013D7 C0 E0            [24] 4044 	push	acc
      0013D9 74 80            [12] 4045 	mov	a,#0x80
      0013DB C0 E0            [24] 4046 	push	acc
      0013DD 12r00r00         [24] 4047 	lcall	_printf
      0013E0 15 81            [12] 4048 	dec	sp
      0013E2 15 81            [12] 4049 	dec	sp
      0013E4 15 81            [12] 4050 	dec	sp
                                   4051 ;	src/main.c:487: }
      0013E6 22               [24] 4052 	ret
                                   4053 ;------------------------------------------------------------
                                   4054 ;Allocation info for local variables in function 'main'
                                   4055 ;------------------------------------------------------------
                                   4056 ;received_char             Allocated with name '_main_received_char_196609_176'
                                   4057 ;------------------------------------------------------------
                                   4058 ;	src/main.c:489: void main()
                                   4059 ;	-----------------------------------------
                                   4060 ;	 function main
                                   4061 ;	-----------------------------------------
      0013E7                       4062 _main:
                                   4063 ;	src/main.c:491: initialize_buffers();
      0013E7 12r01r76         [24] 4064 	lcall	_initialize_buffers
      0013EA                       4065 00114$:
                                   4066 ;	src/main.c:495: printf("\r\nEnter a char: ");
      0013EA 74r3A            [12] 4067 	mov	a,#___str_31
      0013EC C0 E0            [24] 4068 	push	acc
      0013EE 74s04            [12] 4069 	mov	a,#(___str_31 >> 8)
      0013F0 C0 E0            [24] 4070 	push	acc
      0013F2 74 80            [12] 4071 	mov	a,#0x80
      0013F4 C0 E0            [24] 4072 	push	acc
      0013F6 12r00r00         [24] 4073 	lcall	_printf
      0013F9 15 81            [12] 4074 	dec	sp
      0013FB 15 81            [12] 4075 	dec	sp
      0013FD 15 81            [12] 4076 	dec	sp
                                   4077 ;	src/main.c:496: char received_char = get_next_input_char();
      0013FF 12r00r00         [24] 4078 	lcall	_get_next_input_char
                                   4079 ;	src/main.c:497: if (is_alphabet_char(received_char))
      001402 AF 82            [24] 4080 	mov  r7,dpl
      001404 C0 07            [24] 4081 	push	ar7
      001406 12r00r04         [24] 4082 	lcall	_is_alphabet_char
      001409 E5 82            [12] 4083 	mov	a,dpl
      00140B D0 07            [24] 4084 	pop	ar7
      00140D 60 14            [24] 4085 	jz	00102$
                                   4086 ;	src/main.c:499: store_in_buffer(&static_buffers[0], received_char);
      00140F 90r00r23         [24] 4087 	mov	dptr,#_store_in_buffer_PARM_2
      001412 EF               [12] 4088 	mov	a,r7
      001413 F0               [24] 4089 	movx	@dptr,a
      001414 90r00r00         [24] 4090 	mov	dptr,#_static_buffers
      001417 75 F0 00         [24] 4091 	mov	b,#0x00
      00141A C0 07            [24] 4092 	push	ar7
      00141C 12r07r8E         [24] 4093 	lcall	_store_in_buffer
      00141F D0 07            [24] 4094 	pop	ar7
      001421 80 12            [24] 4095 	sjmp	00103$
      001423                       4096 00102$:
                                   4097 ;	src/main.c:503: store_in_buffer(&static_buffers[1], received_char);
      001423 90r00r23         [24] 4098 	mov	dptr,#_store_in_buffer_PARM_2
      001426 EF               [12] 4099 	mov	a,r7
      001427 F0               [24] 4100 	movx	@dptr,a
      001428 90r00r0B         [24] 4101 	mov	dptr,#(_static_buffers + 0x000b)
      00142B 75 F0 00         [24] 4102 	mov	b,#0x00
      00142E C0 07            [24] 4103 	push	ar7
      001430 12r07r8E         [24] 4104 	lcall	_store_in_buffer
      001433 D0 07            [24] 4105 	pop	ar7
      001435                       4106 00103$:
                                   4107 ;	src/main.c:506: switch(received_char)
      001435 BF 23 02         [24] 4108 	cjne	r7,#0x23,00159$
      001438 80 44            [24] 4109 	sjmp	00109$
      00143A                       4110 00159$:
      00143A BF 24 02         [24] 4111 	cjne	r7,#0x24,00160$
      00143D 80 39            [24] 4112 	sjmp	00108$
      00143F                       4113 00160$:
      00143F BF 25 02         [24] 4114 	cjne	r7,#0x25,00161$
      001442 80 25            [24] 4115 	sjmp	00106$
      001444                       4116 00161$:
      001444 BF 2B 02         [24] 4117 	cjne	r7,#0x2b,00162$
      001447 80 3B            [24] 4118 	sjmp	00110$
      001449                       4119 00162$:
      001449 BF 2D 02         [24] 4120 	cjne	r7,#0x2d,00163$
      00144C 80 3C            [24] 4121 	sjmp	00111$
      00144E                       4122 00163$:
      00144E BF 3D 02         [24] 4123 	cjne	r7,#0x3d,00164$
      001451 80 10            [24] 4124 	sjmp	00105$
      001453                       4125 00164$:
      001453 BF 3F 02         [24] 4126 	cjne	r7,#0x3f,00165$
      001456 80 05            [24] 4127 	sjmp	00104$
      001458                       4128 00165$:
                                   4129 ;	src/main.c:508: case '?':
      001458 BF 40 8F         [24] 4130 	cjne	r7,#0x40,00114$
      00145B 80 12            [24] 4131 	sjmp	00107$
      00145D                       4132 00104$:
                                   4133 ;	src/main.c:509: qmark_command_handler();
      00145D 12r0Cr29         [24] 4134 	lcall	_qmark_command_handler
                                   4135 ;	src/main.c:510: break;
      001460 02r13rEA         [24] 4136 	ljmp	00114$
                                   4137 ;	src/main.c:511: case '=':
      001463                       4138 00105$:
                                   4139 ;	src/main.c:512: enter_command_handler();
      001463 12r0Er16         [24] 4140 	lcall	_enter_command_handler
                                   4141 ;	src/main.c:513: break;
      001466 02r13rEA         [24] 4142 	ljmp	00114$
                                   4143 ;	src/main.c:514: case '%':
      001469                       4144 00106$:
                                   4145 ;	src/main.c:515: percent_command_handler();
      001469 12r0FrC3         [24] 4146 	lcall	_percent_command_handler
                                   4147 ;	src/main.c:516: break;
      00146C 02r13rEA         [24] 4148 	ljmp	00114$
                                   4149 ;	src/main.c:517: case '@':
      00146F                       4150 00107$:
                                   4151 ;	src/main.c:518: free_all_buffers();
      00146F 12r0Br76         [24] 4152 	lcall	_free_all_buffers
                                   4153 ;	src/main.c:519: initialize_buffers();
      001472 12r01r76         [24] 4154 	lcall	_initialize_buffers
                                   4155 ;	src/main.c:520: break;
      001475 02r13rEA         [24] 4156 	ljmp	00114$
                                   4157 ;	src/main.c:521: case '$':
      001478                       4158 00108$:
                                   4159 ;	src/main.c:522: dollar_sign_command_handler();
      001478 12r10rFE         [24] 4160 	lcall	_dollar_sign_command_handler
                                   4161 ;	src/main.c:523: break;
      00147B 02r13rEA         [24] 4162 	ljmp	00114$
                                   4163 ;	src/main.c:524: case '#':
      00147E                       4164 00109$:
                                   4165 ;	src/main.c:525: hashtag_command_handler();
      00147E 12r11rC5         [24] 4166 	lcall	_hashtag_command_handler
                                   4167 ;	src/main.c:526: break;
      001481 02r13rEA         [24] 4168 	ljmp	00114$
                                   4169 ;	src/main.c:527: case '+':
      001484                       4170 00110$:
                                   4171 ;	src/main.c:528: plus_command_handler();
      001484 12r12r99         [24] 4172 	lcall	_plus_command_handler
                                   4173 ;	src/main.c:529: break;
      001487 02r13rEA         [24] 4174 	ljmp	00114$
                                   4175 ;	src/main.c:530: case '-':
      00148A                       4176 00111$:
                                   4177 ;	src/main.c:531: minus_command_handler();
      00148A 12r13r3D         [24] 4178 	lcall	_minus_command_handler
                                   4179 ;	src/main.c:533: }
                                   4180 ;	src/main.c:535: }
      00148D 02r13rEA         [24] 4181 	ljmp	00114$
                                   4182 	.area CSEG    (CODE)
                                   4183 	.area CONST   (CODE)
                                   4184 	.area CONST   (CODE)
      000000                       4185 ___str_0:
      000000 0D                    4186 	.db 0x0d
      000001 0A                    4187 	.db 0x0a
      000002 50 6C 65 61 73 65 20  4188 	.ascii "Please enter the last two digits of your ID:"
             65 6E 74 65 72 20 74
             68 65 20 6C 61 73 74
             20 74 77 6F 20 64 69
             67 69 74 73 20 6F 66
             20 79 6F 75 72 20 49
             44 3A
      00002E 00                    4189 	.db 0x00
                                   4190 	.area CSEG    (CODE)
                                   4191 	.area CONST   (CODE)
      00002F                       4192 ___str_1:
      00002F 0D                    4193 	.db 0x0d
      000030 0A                    4194 	.db 0x0a
      000031 20 73 74 61 74 69 63  4195 	.ascii " static_buffers[%d].buffer %p"
             5F 62 75 66 66 65 72
             73 5B 25 64 5D 2E 62
             75 66 66 65 72 20 25
             70
      00004E 00                    4196 	.db 0x00
                                   4197 	.area CSEG    (CODE)
                                   4198 	.area CONST   (CODE)
      00004F                       4199 ___str_2:
      00004F 0D                    4200 	.db 0x0d
      000050 0A                    4201 	.db 0x0a
      000051 42 75 66 66 65 72 20  4202 	.ascii "Buffer Size too big, please pick a smaller buffer size"
             53 69 7A 65 20 74 6F
             6F 20 62 69 67 2C 20
             70 6C 65 61 73 65 20
             70 69 63 6B 20 61 20
             73 6D 61 6C 6C 65 72
             20 62 75 66 66 65 72
             20 73 69 7A 65
      000087 00                    4203 	.db 0x00
                                   4204 	.area CSEG    (CODE)
                                   4205 	.area CONST   (CODE)
      000088                       4206 ___str_3:
      000088 0D                    4207 	.db 0x0d
      000089 0A                    4208 	.db 0x0a
      00008A 73 74 75 64 65 6E 74  4209 	.ascii "student_number: %d"
             5F 6E 75 6D 62 65 72
             3A 20 25 64
      00009C 00                    4210 	.db 0x00
                                   4211 	.area CSEG    (CODE)
                                   4212 	.area CONST   (CODE)
      00009D                       4213 ___str_4:
      00009D 0D                    4214 	.db 0x0d
      00009E 0A                    4215 	.db 0x0a
      00009F 75 73 65 72 5F 62 75  4216 	.ascii "user_buffer_size: %zu"
             66 66 65 72 5F 73 69
             7A 65 3A 20 25 7A 75
      0000B4 00                    4217 	.db 0x00
                                   4218 	.area CSEG    (CODE)
                                   4219 	.area CONST   (CODE)
      0000B5                       4220 ___str_5:
      0000B5 0D                    4221 	.db 0x0d
      0000B6 0A                    4222 	.db 0x0a
      0000B7 62 75 66 66 65 72 5F  4223 	.ascii "buffer_%d starts @ %p, ends @%p, size %zu"
             25 64 20 73 74 61 72
             74 73 20 40 20 25 70
             2C 20 65 6E 64 73 20
             40 25 70 2C 20 73 69
             7A 65 20 25 7A 75
      0000E0 00                    4224 	.db 0x00
                                   4225 	.area CSEG    (CODE)
                                   4226 	.area CONST   (CODE)
      0000E1                       4227 ___str_6:
      0000E1 0D                    4228 	.db 0x0d
      0000E2 0A                    4229 	.db 0x0a
      0000E3 48 65 61 70 20 73 74  4230 	.ascii "Heap starts @ %p, ends @ %p, size: %zu"
             61 72 74 73 20 40 20
             25 70 2C 20 65 6E 64
             73 20 40 20 25 70 2C
             20 73 69 7A 65 3A 20
             25 7A 75
      000109 00                    4231 	.db 0x00
                                   4232 	.area CSEG    (CODE)
                                   4233 	.area CONST   (CODE)
      00010A                       4234 ___str_7:
      00010A 0D                    4235 	.db 0x0d
      00010B 0A                    4236 	.db 0x0a
      00010C 20 20 20 20 20 20 20  4237 	.ascii "        %s"
             20 25 73
      000116 00                    4238 	.db 0x00
                                   4239 	.area CSEG    (CODE)
                                   4240 	.area CONST   (CODE)
      000117                       4241 ___str_8:
      000117 0D                    4242 	.db 0x0d
      000118 0A                    4243 	.db 0x0a
      000119 2D 2D 2D 2D 2D 2D 2D  4244 	.ascii "------------------------------"
             2D 2D 2D 2D 2D 2D 2D
             2D 2D 2D 2D 2D 2D 2D
             2D 2D 2D 2D 2D 2D 2D
             2D 2D
      000137 00                    4245 	.db 0x00
                                   4246 	.area CSEG    (CODE)
                                   4247 	.area CONST   (CODE)
      000138                       4248 ___str_9:
      000138 48 45 41 50 20 52 45  4249 	.ascii "HEAP REPORT"
             50 4F 52 54
      000143 00                    4250 	.db 0x00
                                   4251 	.area CSEG    (CODE)
                                   4252 	.area CONST   (CODE)
      000144                       4253 ___str_10:
      000144 0D                    4254 	.db 0x0d
      000145 0A                    4255 	.db 0x0a
      000146 62 75 66 66 65 72 5F  4256 	.ascii "buffer_%d starts @ %p, ends @%p, size %zu, contains %zu alph"
             25 64 20 73 74 61 72
             74 73 20 40 20 25 70
             2C 20 65 6E 64 73 20
             40 25 70 2C 20 73 69
             7A 65 20 25 7A 75 2C
             20 63 6F 6E 74 61 69
             6E 73 20 25 7A 75 20
             61 6C 70 68
      000182 61 62 65 74 20 63 68  4257 	.ascii "abet chars, has %zu chars remaining"
             61 72 73 2C 20 68 61
             73 20 25 7A 75 20 63
             68 61 72 73 20 72 65
             6D 61 69 6E 69 6E 67
      0001A5 00                    4258 	.db 0x00
                                   4259 	.area CSEG    (CODE)
                                   4260 	.area CONST   (CODE)
      0001A6                       4261 ___str_11:
      0001A6 0D                    4262 	.db 0x0d
      0001A7 0A                    4263 	.db 0x0a
      0001A8 00                    4264 	.db 0x00
                                   4265 	.area CSEG    (CODE)
                                   4266 	.area CONST   (CODE)
      0001A9                       4267 ___str_12:
      0001A9 0D                    4268 	.db 0x0d
      0001AA 0A                    4269 	.db 0x0a
      0001AB 50 6C 65 61 73 65 20  4270 	.ascii "Please enter a valid buffer size that is divisible by 32 [64"
             65 6E 74 65 72 20 61
             20 76 61 6C 69 64 20
             62 75 66 66 65 72 20
             73 69 7A 65 20 74 68
             61 74 20 69 73 20 64
             69 76 69 73 69 62 6C
             65 20 62 79 20 33 32
             20 5B 36 34
      0001E7 2C 25 7A 75 5D 3A 20  4271 	.ascii ",%zu]: "
      0001EE 00                    4272 	.db 0x00
                                   4273 	.area CSEG    (CODE)
                                   4274 	.area CONST   (CODE)
      0001EF                       4275 ___str_13:
      0001EF 0D                    4276 	.db 0x0d
      0001F0 0A                    4277 	.db 0x0a
      0001F1 20 46 72 65 65 69 6E  4278 	.ascii " Freeing ALL BUFFERS"
             67 20 41 4C 4C 20 42
             55 46 46 45 52 53
      000205 00                    4279 	.db 0x00
                                   4280 	.area CSEG    (CODE)
                                   4281 	.area CONST   (CODE)
      000206                       4282 ___str_14:
      000206 0D                    4283 	.db 0x0d
      000207 0A                    4284 	.db 0x0a
      000208 20 52 65 63 65 69 76  4285 	.ascii " Received %zu chars since last invocation of ?"
             65 64 20 25 7A 75 20
             63 68 61 72 73 20 73
             69 6E 63 65 20 6C 61
             73 74 20 69 6E 76 6F
             63 61 74 69 6F 6E 20
             6F 66 20 3F
      000236 00                    4286 	.db 0x00
                                   4287 	.area CSEG    (CODE)
                                   4288 	.area CONST   (CODE)
      000237                       4289 ___str_15:
      000237 25 63                 4290 	.ascii "%c"
      000239 00                    4291 	.db 0x00
                                   4292 	.area CSEG    (CODE)
                                   4293 	.area CONST   (CODE)
      00023A                       4294 ___str_16:
      00023A 44 75 6D 70 20 41 64  4295 	.ascii "Dump Admin Buffers"
             6D 69 6E 20 42 75 66
             66 65 72 73
      00024C 00                    4296 	.db 0x00
                                   4297 	.area CSEG    (CODE)
                                   4298 	.area CONST   (CODE)
      00024D                       4299 ___str_17:
      00024D 0D                    4300 	.db 0x0d
      00024E 0A                    4301 	.db 0x0a
      00024F 20 42 75 66 66 65 72  4302 	.ascii " Buffer %d "
             20 25 64 20
      00025A 00                    4303 	.db 0x00
                                   4304 	.area CSEG    (CODE)
                                   4305 	.area CONST   (CODE)
      00025B                       4306 ___str_18:
      00025B 0D                    4307 	.db 0x0d
      00025C 0A                    4308 	.db 0x0a
      00025D 2D 2D 2D 2D 2D 2D 2D  4309 	.ascii "----------"
             2D 2D 2D
      000267 00                    4310 	.db 0x00
                                   4311 	.area CSEG    (CODE)
                                   4312 	.area CONST   (CODE)
      000268                       4313 ___str_19:
      000268 0D                    4314 	.db 0x0d
      000269 0A                    4315 	.db 0x0a
      00026A 25 30 34 58 3A        4316 	.ascii "%04X:"
      00026F 00                    4317 	.db 0x00
                                   4318 	.area CSEG    (CODE)
                                   4319 	.area CONST   (CODE)
      000270                       4320 ___str_20:
      000270 20 25 30 32 68 68 58  4321 	.ascii " %02hhX"
      000277 00                    4322 	.db 0x00
                                   4323 	.area CSEG    (CODE)
                                   4324 	.area CONST   (CODE)
      000278                       4325 ___str_21:
      000278 43 6C 65 61 72 20 42  4326 	.ascii "Clear Buffers"
             75 66 66 65 72 73
      000285 00                    4327 	.db 0x00
                                   4328 	.area CSEG    (CODE)
                                   4329 	.area CONST   (CODE)
      000286                       4330 ___str_22:
      000286 0D                    4331 	.db 0x0d
      000287 0A                    4332 	.db 0x0a
      000288 50 6C 65 61 73 65 20  4333 	.ascii "Please enter a size for the new buffer, [200,600]: "
             65 6E 74 65 72 20 61
             20 73 69 7A 65 20 66
             6F 72 20 74 68 65 20
             6E 65 77 20 62 75 66
             66 65 72 2C 20 5B 32
             30 30 2C 36 30 30 5D
             3A 20
      0002BB 00                    4334 	.db 0x00
                                   4335 	.area CSEG    (CODE)
                                   4336 	.area CONST   (CODE)
      0002BC                       4337 ___str_23:
      0002BC 0D                    4338 	.db 0x0d
      0002BD 0A                    4339 	.db 0x0a
      0002BE 42 75 66 66 65 72 20  4340 	.ascii "Buffer size invalid!! Please try again"
             73 69 7A 65 20 69 6E
             76 61 6C 69 64 21 21
             20 50 6C 65 61 73 65
             20 74 72 79 20 61 67
             61 69 6E
      0002E4 00                    4341 	.db 0x00
                                   4342 	.area CSEG    (CODE)
                                   4343 	.area CONST   (CODE)
      0002E5                       4344 ___str_24:
      0002E5 0D                    4345 	.db 0x0d
      0002E6 0A                    4346 	.db 0x0a
      0002E7 20 41 6C 6C 6F 63 61  4347 	.ascii " Allocation failed; able to allocate header but not buffer"
             74 69 6F 6E 20 66 61
             69 6C 65 64 3B 20 61
             62 6C 65 20 74 6F 20
             61 6C 6C 6F 63 61 74
             65 20 68 65 61 64 65
             72 20 62 75 74 20 6E
             6F 74 20 62 75 66 66
             65 72
      000321 00                    4348 	.db 0x00
                                   4349 	.area CSEG    (CODE)
                                   4350 	.area CONST   (CODE)
      000322                       4351 ___str_25:
      000322 0D                    4352 	.db 0x0d
      000323 0A                    4353 	.db 0x0a
      000324 20 41 6C 6C 6F 63 61  4354 	.ascii " Allocation successful!! New buffer added"
             74 69 6F 6E 20 73 75
             63 63 65 73 73 66 75
             6C 21 21 20 4E 65 77
             20 62 75 66 66 65 72
             20 61 64 64 65 64
      00034D 00                    4355 	.db 0x00
                                   4356 	.area CSEG    (CODE)
                                   4357 	.area CONST   (CODE)
      00034E                       4358 ___str_26:
      00034E 0D                    4359 	.db 0x0d
      00034F 0A                    4360 	.db 0x0a
      000350 50 6C 65 61 73 65 20  4361 	.ascii "Please enter the number of the buffer you would like to free"
             65 6E 74 65 72 20 74
             68 65 20 6E 75 6D 62
             65 72 20 6F 66 20 74
             68 65 20 62 75 66 66
             65 72 20 79 6F 75 20
             77 6F 75 6C 64 20 6C
             69 6B 65 20 74 6F 20
             66 72 65 65
      00038C 3A 20                 4362 	.ascii ": "
      00038E 00                    4363 	.db 0x00
                                   4364 	.area CSEG    (CODE)
                                   4365 	.area CONST   (CODE)
      00038F                       4366 ___str_27:
      00038F 0D                    4367 	.db 0x0d
      000390 0A                    4368 	.db 0x0a
      000391 20 49 6E 76 61 6C 69  4369 	.ascii " Invalid buffer number, negatives not valid"
             64 20 62 75 66 66 65
             72 20 6E 75 6D 62 65
             72 2C 20 6E 65 67 61
             74 69 76 65 73 20 6E
             6F 74 20 76 61 6C 69
             64
      0003BC 00                    4370 	.db 0x00
                                   4371 	.area CSEG    (CODE)
                                   4372 	.area CONST   (CODE)
      0003BD                       4373 ___str_28:
      0003BD 0D                    4374 	.db 0x0d
      0003BE 0A                    4375 	.db 0x0a
      0003BF 20 49 6E 76 61 6C 69  4376 	.ascii " Invalid buffer number, buffers 0 & 1 are protected"
             64 20 62 75 66 66 65
             72 20 6E 75 6D 62 65
             72 2C 20 62 75 66 66
             65 72 73 20 30 20 26
             20 31 20 61 72 65 20
             70 72 6F 74 65 63 74
             65 64
      0003F2 00                    4377 	.db 0x00
                                   4378 	.area CSEG    (CODE)
                                   4379 	.area CONST   (CODE)
      0003F3                       4380 ___str_29:
      0003F3 0D                    4381 	.db 0x0d
      0003F4 0A                    4382 	.db 0x0a
      0003F5 20 53 75 63 63 65 73  4383 	.ascii " Successfully removed buffer"
             73 66 75 6C 6C 79 20
             72 65 6D 6F 76 65 64
             20 62 75 66 66 65 72
      000411 00                    4384 	.db 0x00
                                   4385 	.area CSEG    (CODE)
                                   4386 	.area CONST   (CODE)
      000412                       4387 ___str_30:
      000412 0D                    4388 	.db 0x0d
      000413 0A                    4389 	.db 0x0a
      000414 20 46 61 69 6C 65 64  4390 	.ascii " Failed to remove buffer, idx too big"
             20 74 6F 20 72 65 6D
             6F 76 65 20 62 75 66
             66 65 72 2C 20 69 64
             78 20 74 6F 6F 20 62
             69 67
      000439 00                    4391 	.db 0x00
                                   4392 	.area CSEG    (CODE)
                                   4393 	.area CONST   (CODE)
      00043A                       4394 ___str_31:
      00043A 0D                    4395 	.db 0x0d
      00043B 0A                    4396 	.db 0x0a
      00043C 45 6E 74 65 72 20 61  4397 	.ascii "Enter a char: "
             20 63 68 61 72 3A 20
      00044A 00                    4398 	.db 0x00
                                   4399 	.area CSEG    (CODE)
                                   4400 	.area XINIT   (CODE)
      000000                       4401 __xinit__dynamic_buffers_list:
                                   4402 ; generic printIvalPtr
      000000 00 00 00              4403 	.byte #0x00,#0x00,#0x00
                                   4404 	.area CABS    (ABS,CODE)
